
Debug/bin\Sheppard.elf:     file format elf32-littlearm


Disassembly of section .text:

08004000 <g_pfnVectors>:
 8004000:	f4 11 00 20 15 42 00 08 5d 42 00 08 5d 42 00 08     ... .B..]B..]B..
 8004010:	5d 42 00 08 5d 42 00 08 5d 42 00 08 00 00 00 00     ]B..]B..]B......
	...
 800402c:	5d 42 00 08 5d 42 00 08 00 00 00 00 5d 42 00 08     ]B..]B......]B..
 800403c:	f9 45 00 08 5d 42 00 08 5d 42 00 08 5d 42 00 08     .E..]B..]B..]B..
 800404c:	5d 42 00 08 5d 42 00 08 5d 42 00 08 5d 42 00 08     ]B..]B..]B..]B..
 800405c:	5d 42 00 08 5d 42 00 08 5d 42 00 08 5d 42 00 08     ]B..]B..]B..]B..
 800406c:	5d 42 00 08 5d 42 00 08 5d 42 00 08 5d 42 00 08     ]B..]B..]B..]B..
 800407c:	5d 42 00 08 5d 42 00 08 5d 42 00 08 5d 42 00 08     ]B..]B..]B..]B..
	...
 800409c:	5d 42 00 08 5d 42 00 08 5d 42 00 08 5d 42 00 08     ]B..]B..]B..]B..
 80040ac:	5d 42 00 08 5d 42 00 08 5d 42 00 08 5d 42 00 08     ]B..]B..]B..]B..
 80040bc:	5d 42 00 08 5d 42 00 08 5d 42 00 08 5d 42 00 08     ]B..]B..]B..]B..
 80040cc:	5d 42 00 08 5d 42 00 08 51 43 00 08 5d 42 00 08     ]B..]B..QC..]B..
 80040dc:	5d 42 00 08 5d 42 00 08 5d 42 00 08 5d 42 00 08     ]B..]B..]B..]B..
	...
 8004118:	21 4e 00 08 5d 42 00 08 5f f8 08 f1                 !N..]B.._...

08004124 <TIM_TimeBaseInit>:
 8004124:	4a22      	ldr	r2, [pc, #136]	; (80041b0 <TIM_TimeBaseInit+0x8c>)
 8004126:	8803      	ldrh	r3, [r0, #0]
 8004128:	4290      	cmp	r0, r2
 800412a:	b29b      	uxth	r3, r3
 800412c:	d012      	beq.n	8004154 <TIM_TimeBaseInit+0x30>
 800412e:	f502 6200 	add.w	r2, r2, #2048	; 0x800
 8004132:	4290      	cmp	r0, r2
 8004134:	d00e      	beq.n	8004154 <TIM_TimeBaseInit+0x30>
 8004136:	f1b0 4f80 	cmp.w	r0, #1073741824	; 0x40000000
 800413a:	d00b      	beq.n	8004154 <TIM_TimeBaseInit+0x30>
 800413c:	f5a2 3298 	sub.w	r2, r2, #77824	; 0x13000
 8004140:	4290      	cmp	r0, r2
 8004142:	d007      	beq.n	8004154 <TIM_TimeBaseInit+0x30>
 8004144:	f502 6280 	add.w	r2, r2, #1024	; 0x400
 8004148:	4290      	cmp	r0, r2
 800414a:	d003      	beq.n	8004154 <TIM_TimeBaseInit+0x30>
 800414c:	f502 6280 	add.w	r2, r2, #1024	; 0x400
 8004150:	4290      	cmp	r0, r2
 8004152:	d103      	bne.n	800415c <TIM_TimeBaseInit+0x38>
 8004154:	884a      	ldrh	r2, [r1, #2]
 8004156:	f023 0370 	bic.w	r3, r3, #112	; 0x70
 800415a:	4313      	orrs	r3, r2
 800415c:	4a15      	ldr	r2, [pc, #84]	; (80041b4 <TIM_TimeBaseInit+0x90>)
 800415e:	4290      	cmp	r0, r2
 8004160:	d008      	beq.n	8004174 <TIM_TimeBaseInit+0x50>
 8004162:	f502 6280 	add.w	r2, r2, #1024	; 0x400
 8004166:	4290      	cmp	r0, r2
 8004168:	d004      	beq.n	8004174 <TIM_TimeBaseInit+0x50>
 800416a:	f423 7340 	bic.w	r3, r3, #768	; 0x300
 800416e:	88ca      	ldrh	r2, [r1, #6]
 8004170:	b29b      	uxth	r3, r3
 8004172:	4313      	orrs	r3, r2
 8004174:	8003      	strh	r3, [r0, #0]
 8004176:	888b      	ldrh	r3, [r1, #4]
 8004178:	8583      	strh	r3, [r0, #44]	; 0x2c
 800417a:	880b      	ldrh	r3, [r1, #0]
 800417c:	8503      	strh	r3, [r0, #40]	; 0x28
 800417e:	4b0c      	ldr	r3, [pc, #48]	; (80041b0 <TIM_TimeBaseInit+0x8c>)
 8004180:	4298      	cmp	r0, r3
 8004182:	d00f      	beq.n	80041a4 <TIM_TimeBaseInit+0x80>
 8004184:	f503 6300 	add.w	r3, r3, #2048	; 0x800
 8004188:	4298      	cmp	r0, r3
 800418a:	d00b      	beq.n	80041a4 <TIM_TimeBaseInit+0x80>
 800418c:	f503 6340 	add.w	r3, r3, #3072	; 0xc00
 8004190:	4298      	cmp	r0, r3
 8004192:	d007      	beq.n	80041a4 <TIM_TimeBaseInit+0x80>
 8004194:	f503 6380 	add.w	r3, r3, #1024	; 0x400
 8004198:	4298      	cmp	r0, r3
 800419a:	d003      	beq.n	80041a4 <TIM_TimeBaseInit+0x80>
 800419c:	f503 6380 	add.w	r3, r3, #1024	; 0x400
 80041a0:	4298      	cmp	r0, r3
 80041a2:	d101      	bne.n	80041a8 <TIM_TimeBaseInit+0x84>
 80041a4:	7a0b      	ldrb	r3, [r1, #8]
 80041a6:	8603      	strh	r3, [r0, #48]	; 0x30
 80041a8:	2301      	movs	r3, #1
 80041aa:	8283      	strh	r3, [r0, #20]
 80041ac:	4770      	bx	lr
 80041ae:	bf00      	nop
 80041b0:	40012c00 	.word	0x40012c00
 80041b4:	40001000 	.word	0x40001000

080041b8 <TIM_TimeBaseStructInit>:
 80041b8:	f64f 73ff 	movw	r3, #65535	; 0xffff
 80041bc:	8083      	strh	r3, [r0, #4]
 80041be:	2300      	movs	r3, #0
 80041c0:	8003      	strh	r3, [r0, #0]
 80041c2:	80c3      	strh	r3, [r0, #6]
 80041c4:	8043      	strh	r3, [r0, #2]
 80041c6:	7203      	strb	r3, [r0, #8]
 80041c8:	4770      	bx	lr

080041ca <TIM_Cmd>:
 80041ca:	8803      	ldrh	r3, [r0, #0]
 80041cc:	b119      	cbz	r1, 80041d6 <TIM_Cmd+0xc>
 80041ce:	b29b      	uxth	r3, r3
 80041d0:	f043 0301 	orr.w	r3, r3, #1
 80041d4:	e003      	b.n	80041de <TIM_Cmd+0x14>
 80041d6:	f023 0301 	bic.w	r3, r3, #1
 80041da:	041b      	lsls	r3, r3, #16
 80041dc:	0c1b      	lsrs	r3, r3, #16
 80041de:	8003      	strh	r3, [r0, #0]
 80041e0:	4770      	bx	lr

080041e2 <TIM_ITConfig>:
 80041e2:	8983      	ldrh	r3, [r0, #12]
 80041e4:	b29b      	uxth	r3, r3
 80041e6:	b10a      	cbz	r2, 80041ec <TIM_ITConfig+0xa>
 80041e8:	4319      	orrs	r1, r3
 80041ea:	e001      	b.n	80041f0 <TIM_ITConfig+0xe>
 80041ec:	ea23 0101 	bic.w	r1, r3, r1
 80041f0:	8181      	strh	r1, [r0, #12]
 80041f2:	4770      	bx	lr

080041f4 <TIM_SelectOutputTrigger>:
 80041f4:	8883      	ldrh	r3, [r0, #4]
 80041f6:	f023 0370 	bic.w	r3, r3, #112	; 0x70
 80041fa:	041b      	lsls	r3, r3, #16
 80041fc:	0c1b      	lsrs	r3, r3, #16
 80041fe:	8083      	strh	r3, [r0, #4]
 8004200:	8883      	ldrh	r3, [r0, #4]
 8004202:	b29b      	uxth	r3, r3
 8004204:	4319      	orrs	r1, r3
 8004206:	8081      	strh	r1, [r0, #4]
 8004208:	4770      	bx	lr

0800420a <TIM_ClearITPendingBit>:
 800420a:	43c9      	mvns	r1, r1
 800420c:	b289      	uxth	r1, r1
 800420e:	8201      	strh	r1, [r0, #16]
 8004210:	4770      	bx	lr
	...

08004214 <Default_Reset_Handler>:
 8004214:	b508      	push	{r3, lr}
 8004216:	4a0c      	ldr	r2, [pc, #48]	; (8004248 <zero_loop+0x16>)
 8004218:	4b0c      	ldr	r3, [pc, #48]	; (800424c <zero_loop+0x1a>)
 800421a:	490d      	ldr	r1, [pc, #52]	; (8004250 <zero_loop+0x1e>)
 800421c:	e003      	b.n	8004226 <Default_Reset_Handler+0x12>
 800421e:	f852 0b04 	ldr.w	r0, [r2], #4
 8004222:	f843 0b04 	str.w	r0, [r3], #4
 8004226:	428b      	cmp	r3, r1
 8004228:	d3f9      	bcc.n	800421e <Default_Reset_Handler+0xa>
 800422a:	480a      	ldr	r0, [pc, #40]	; (8004254 <zero_loop+0x22>)
 800422c:	490a      	ldr	r1, [pc, #40]	; (8004258 <zero_loop+0x26>)
 800422e:	f04f 0200 	mov.w	r2, #0

08004232 <zero_loop>:
 8004232:	4288      	cmp	r0, r1
 8004234:	bfb8      	it	lt
 8004236:	f840 2b04 	strlt.w	r2, [r0], #4
 800423a:	dbfa      	blt.n	8004232 <zero_loop>
 800423c:	f000 f816 	bl	800426c <SystemInit>
 8004240:	e8bd 4008 	ldmia.w	sp!, {r3, lr}
 8004244:	f000 b9e4 	b.w	8004610 <main>
 8004248:	08018bf4 	.word	0x08018bf4
 800424c:	20000000 	.word	0x20000000
 8004250:	20000890 	.word	0x20000890
 8004254:	20000890 	.word	0x20000890
 8004258:	20000df4 	.word	0x20000df4

0800425c <ADC1_IRQHandler>:
 800425c:	e7fe      	b.n	800425c <ADC1_IRQHandler>

0800425e <__get_PRIMASK>:
 800425e:	f3ef 8010 	mrs	r0, PRIMASK
 8004262:	4770      	bx	lr

08004264 <__set_PRIMASK>:
 8004264:	f380 8810 	msr	PRIMASK, r0
 8004268:	4770      	bx	lr
	...

0800426c <SystemInit>:
 800426c:	4b31      	ldr	r3, [pc, #196]	; (8004334 <SystemInit+0xc8>)
 800426e:	b082      	sub	sp, #8
 8004270:	681a      	ldr	r2, [r3, #0]
 8004272:	f042 0201 	orr.w	r2, r2, #1
 8004276:	601a      	str	r2, [r3, #0]
 8004278:	6859      	ldr	r1, [r3, #4]
 800427a:	4a2f      	ldr	r2, [pc, #188]	; (8004338 <SystemInit+0xcc>)
 800427c:	400a      	ands	r2, r1
 800427e:	605a      	str	r2, [r3, #4]
 8004280:	681a      	ldr	r2, [r3, #0]
 8004282:	f022 7284 	bic.w	r2, r2, #17301504	; 0x1080000
 8004286:	f422 3280 	bic.w	r2, r2, #65536	; 0x10000
 800428a:	601a      	str	r2, [r3, #0]
 800428c:	681a      	ldr	r2, [r3, #0]
 800428e:	f422 2280 	bic.w	r2, r2, #262144	; 0x40000
 8004292:	601a      	str	r2, [r3, #0]
 8004294:	685a      	ldr	r2, [r3, #4]
 8004296:	f422 02fe 	bic.w	r2, r2, #8323072	; 0x7f0000
 800429a:	605a      	str	r2, [r3, #4]
 800429c:	f44f 021f 	mov.w	r2, #10420224	; 0x9f0000
 80042a0:	609a      	str	r2, [r3, #8]
 80042a2:	2200      	movs	r2, #0
 80042a4:	62da      	str	r2, [r3, #44]	; 0x2c
 80042a6:	9200      	str	r2, [sp, #0]
 80042a8:	9201      	str	r2, [sp, #4]
 80042aa:	681a      	ldr	r2, [r3, #0]
 80042ac:	f442 3280 	orr.w	r2, r2, #65536	; 0x10000
 80042b0:	601a      	str	r2, [r3, #0]
 80042b2:	681a      	ldr	r2, [r3, #0]
 80042b4:	f402 3200 	and.w	r2, r2, #131072	; 0x20000
 80042b8:	9201      	str	r2, [sp, #4]
 80042ba:	9a00      	ldr	r2, [sp, #0]
 80042bc:	3201      	adds	r2, #1
 80042be:	9200      	str	r2, [sp, #0]
 80042c0:	9a01      	ldr	r2, [sp, #4]
 80042c2:	b91a      	cbnz	r2, 80042cc <SystemInit+0x60>
 80042c4:	9a00      	ldr	r2, [sp, #0]
 80042c6:	f5b2 6fa0 	cmp.w	r2, #1280	; 0x500
 80042ca:	d1f2      	bne.n	80042b2 <SystemInit+0x46>
 80042cc:	4b19      	ldr	r3, [pc, #100]	; (8004334 <SystemInit+0xc8>)
 80042ce:	681b      	ldr	r3, [r3, #0]
 80042d0:	f413 3300 	ands.w	r3, r3, #131072	; 0x20000
 80042d4:	bf18      	it	ne
 80042d6:	2301      	movne	r3, #1
 80042d8:	9301      	str	r3, [sp, #4]
 80042da:	9b01      	ldr	r3, [sp, #4]
 80042dc:	2b01      	cmp	r3, #1
 80042de:	d123      	bne.n	8004328 <SystemInit+0xbc>
 80042e0:	4b14      	ldr	r3, [pc, #80]	; (8004334 <SystemInit+0xc8>)
 80042e2:	685a      	ldr	r2, [r3, #4]
 80042e4:	605a      	str	r2, [r3, #4]
 80042e6:	685a      	ldr	r2, [r3, #4]
 80042e8:	605a      	str	r2, [r3, #4]
 80042ea:	685a      	ldr	r2, [r3, #4]
 80042ec:	605a      	str	r2, [r3, #4]
 80042ee:	685a      	ldr	r2, [r3, #4]
 80042f0:	f422 127c 	bic.w	r2, r2, #4128768	; 0x3f0000
 80042f4:	605a      	str	r2, [r3, #4]
 80042f6:	685a      	ldr	r2, [r3, #4]
 80042f8:	f442 1298 	orr.w	r2, r2, #1245184	; 0x130000
 80042fc:	605a      	str	r2, [r3, #4]
 80042fe:	681a      	ldr	r2, [r3, #0]
 8004300:	f042 7280 	orr.w	r2, r2, #16777216	; 0x1000000
 8004304:	601a      	str	r2, [r3, #0]
 8004306:	6819      	ldr	r1, [r3, #0]
 8004308:	4a0a      	ldr	r2, [pc, #40]	; (8004334 <SystemInit+0xc8>)
 800430a:	0189      	lsls	r1, r1, #6
 800430c:	d5fb      	bpl.n	8004306 <SystemInit+0x9a>
 800430e:	6853      	ldr	r3, [r2, #4]
 8004310:	f023 0303 	bic.w	r3, r3, #3
 8004314:	6053      	str	r3, [r2, #4]
 8004316:	6853      	ldr	r3, [r2, #4]
 8004318:	f043 0302 	orr.w	r3, r3, #2
 800431c:	6053      	str	r3, [r2, #4]
 800431e:	6853      	ldr	r3, [r2, #4]
 8004320:	f003 030c 	and.w	r3, r3, #12
 8004324:	2b08      	cmp	r3, #8
 8004326:	d1fa      	bne.n	800431e <SystemInit+0xb2>
 8004328:	4b04      	ldr	r3, [pc, #16]	; (800433c <SystemInit+0xd0>)
 800432a:	f04f 6200 	mov.w	r2, #134217728	; 0x8000000
 800432e:	609a      	str	r2, [r3, #8]
 8004330:	b002      	add	sp, #8
 8004332:	4770      	bx	lr
 8004334:	40021000 	.word	0x40021000
 8004338:	f8ff0000 	.word	0xf8ff0000
 800433c:	e000ed00 	.word	0xe000ed00

08004340 <uart1_isrtx_enable>:
 8004340:	4802      	ldr	r0, [pc, #8]	; (800434c <uart1_isrtx_enable+0xc>)
 8004342:	f240 7127 	movw	r1, #1831	; 0x727
 8004346:	2201      	movs	r2, #1
 8004348:	f000 bb3d 	b.w	80049c6 <USART_ITConfig>
 800434c:	40013800 	.word	0x40013800

08004350 <USART1_IRQHandler>:
 8004350:	2120      	movs	r1, #32
 8004352:	b510      	push	{r4, lr}
 8004354:	4830      	ldr	r0, [pc, #192]	; (8004418 <USART1_IRQHandler+0xc8>)
 8004356:	f000 fb57 	bl	8004a08 <USART_GetFlagStatus>
 800435a:	2801      	cmp	r0, #1
 800435c:	d124      	bne.n	80043a8 <USART1_IRQHandler+0x58>
 800435e:	482e      	ldr	r0, [pc, #184]	; (8004418 <USART1_IRQHandler+0xc8>)
 8004360:	f000 fb4e 	bl	8004a00 <USART_ReceiveData>
 8004364:	4a2d      	ldr	r2, [pc, #180]	; (800441c <USART1_IRQHandler+0xcc>)
 8004366:	6813      	ldr	r3, [r2, #0]
 8004368:	b1f3      	cbz	r3, 80043a8 <USART1_IRQHandler+0x58>
 800436a:	7a59      	ldrb	r1, [r3, #9]
 800436c:	b9e1      	cbnz	r1, 80043a8 <USART1_IRQHandler+0x58>
 800436e:	68db      	ldr	r3, [r3, #12]
 8004370:	7018      	strb	r0, [r3, #0]
 8004372:	6813      	ldr	r3, [r2, #0]
 8004374:	68da      	ldr	r2, [r3, #12]
 8004376:	3201      	adds	r2, #1
 8004378:	60da      	str	r2, [r3, #12]
 800437a:	68d9      	ldr	r1, [r3, #12]
 800437c:	699a      	ldr	r2, [r3, #24]
 800437e:	4291      	cmp	r1, r2
 8004380:	bf04      	itt	eq
 8004382:	695a      	ldreq	r2, [r3, #20]
 8004384:	60da      	streq	r2, [r3, #12]
 8004386:	681a      	ldr	r2, [r3, #0]
 8004388:	3a01      	subs	r2, #1
 800438a:	601a      	str	r2, [r3, #0]
 800438c:	685a      	ldr	r2, [r3, #4]
 800438e:	3201      	adds	r2, #1
 8004390:	605a      	str	r2, [r3, #4]
 8004392:	681a      	ldr	r2, [r3, #0]
 8004394:	b90a      	cbnz	r2, 800439a <USART1_IRQHandler+0x4a>
 8004396:	2201      	movs	r2, #1
 8004398:	725a      	strb	r2, [r3, #9]
 800439a:	685a      	ldr	r2, [r3, #4]
 800439c:	b10a      	cbz	r2, 80043a2 <USART1_IRQHandler+0x52>
 800439e:	2200      	movs	r2, #0
 80043a0:	721a      	strb	r2, [r3, #8]
 80043a2:	69db      	ldr	r3, [r3, #28]
 80043a4:	b103      	cbz	r3, 80043a8 <USART1_IRQHandler+0x58>
 80043a6:	4798      	blx	r3
 80043a8:	4c1b      	ldr	r4, [pc, #108]	; (8004418 <USART1_IRQHandler+0xc8>)
 80043aa:	89a3      	ldrh	r3, [r4, #12]
 80043ac:	061b      	lsls	r3, r3, #24
 80043ae:	d531      	bpl.n	8004414 <USART1_IRQHandler+0xc4>
 80043b0:	2180      	movs	r1, #128	; 0x80
 80043b2:	4620      	mov	r0, r4
 80043b4:	f000 fb28 	bl	8004a08 <USART_GetFlagStatus>
 80043b8:	2801      	cmp	r0, #1
 80043ba:	d12b      	bne.n	8004414 <USART1_IRQHandler+0xc4>
 80043bc:	4b18      	ldr	r3, [pc, #96]	; (8004420 <USART1_IRQHandler+0xd0>)
 80043be:	7a1a      	ldrb	r2, [r3, #8]
 80043c0:	2a00      	cmp	r2, #0
 80043c2:	d11f      	bne.n	8004404 <USART1_IRQHandler+0xb4>
 80043c4:	691a      	ldr	r2, [r3, #16]
 80043c6:	7811      	ldrb	r1, [r2, #0]
 80043c8:	691a      	ldr	r2, [r3, #16]
 80043ca:	3201      	adds	r2, #1
 80043cc:	611a      	str	r2, [r3, #16]
 80043ce:	6918      	ldr	r0, [r3, #16]
 80043d0:	699a      	ldr	r2, [r3, #24]
 80043d2:	4290      	cmp	r0, r2
 80043d4:	bf04      	itt	eq
 80043d6:	695a      	ldreq	r2, [r3, #20]
 80043d8:	611a      	streq	r2, [r3, #16]
 80043da:	4b11      	ldr	r3, [pc, #68]	; (8004420 <USART1_IRQHandler+0xd0>)
 80043dc:	681a      	ldr	r2, [r3, #0]
 80043de:	3201      	adds	r2, #1
 80043e0:	601a      	str	r2, [r3, #0]
 80043e2:	685a      	ldr	r2, [r3, #4]
 80043e4:	3a01      	subs	r2, #1
 80043e6:	605a      	str	r2, [r3, #4]
 80043e8:	685a      	ldr	r2, [r3, #4]
 80043ea:	b90a      	cbnz	r2, 80043f0 <USART1_IRQHandler+0xa0>
 80043ec:	2201      	movs	r2, #1
 80043ee:	721a      	strb	r2, [r3, #8]
 80043f0:	681b      	ldr	r3, [r3, #0]
 80043f2:	b113      	cbz	r3, 80043fa <USART1_IRQHandler+0xaa>
 80043f4:	4b0a      	ldr	r3, [pc, #40]	; (8004420 <USART1_IRQHandler+0xd0>)
 80043f6:	2200      	movs	r2, #0
 80043f8:	725a      	strb	r2, [r3, #9]
 80043fa:	4807      	ldr	r0, [pc, #28]	; (8004418 <USART1_IRQHandler+0xc8>)
 80043fc:	e8bd 4010 	ldmia.w	sp!, {r4, lr}
 8004400:	f000 bafa 	b.w	80049f8 <USART_SendData>
 8004404:	4620      	mov	r0, r4
 8004406:	f240 7127 	movw	r1, #1831	; 0x727
 800440a:	2200      	movs	r2, #0
 800440c:	e8bd 4010 	ldmia.w	sp!, {r4, lr}
 8004410:	f000 bad9 	b.w	80049c6 <USART_ITConfig>
 8004414:	bd10      	pop	{r4, pc}
 8004416:	bf00      	nop
 8004418:	40013800 	.word	0x40013800
 800441c:	20000890 	.word	0x20000890
 8004420:	20000d88 	.word	0x20000d88

08004424 <uart1_init>:
 8004424:	b530      	push	{r4, r5, lr}
 8004426:	4615      	mov	r5, r2
 8004428:	b089      	sub	sp, #36	; 0x24
 800442a:	4a25      	ldr	r2, [pc, #148]	; (80044c0 <uart1_init+0x9c>)
 800442c:	4604      	mov	r4, r0
 800442e:	9300      	str	r3, [sp, #0]
 8004430:	4824      	ldr	r0, [pc, #144]	; (80044c4 <uart1_init+0xa0>)
 8004432:	462b      	mov	r3, r5
 8004434:	f000 fb08 	bl	8004a48 <fifo_init>
 8004438:	2101      	movs	r1, #1
 800443a:	f44f 4080 	mov.w	r0, #16384	; 0x4000
 800443e:	f000 f9a3 	bl	8004788 <RCC_APB2PeriphClockCmd>
 8004442:	2004      	movs	r0, #4
 8004444:	2101      	movs	r1, #1
 8004446:	f000 f99f 	bl	8004788 <RCC_APB2PeriphClockCmd>
 800444a:	4d1f      	ldr	r5, [pc, #124]	; (80044c8 <uart1_init+0xa4>)
 800444c:	f44f 7300 	mov.w	r3, #512	; 0x200
 8004450:	f8ad 301c 	strh.w	r3, [sp, #28]
 8004454:	2303      	movs	r3, #3
 8004456:	f88d 301e 	strb.w	r3, [sp, #30]
 800445a:	4628      	mov	r0, r5
 800445c:	2318      	movs	r3, #24
 800445e:	a907      	add	r1, sp, #28
 8004460:	f88d 301f 	strb.w	r3, [sp, #31]
 8004464:	f000 f836 	bl	80044d4 <GPIO_Init>
 8004468:	f44f 6380 	mov.w	r3, #1024	; 0x400
 800446c:	a907      	add	r1, sp, #28
 800446e:	f8ad 301c 	strh.w	r3, [sp, #28]
 8004472:	4628      	mov	r0, r5
 8004474:	2304      	movs	r3, #4
 8004476:	f88d 301f 	strb.w	r3, [sp, #31]
 800447a:	f000 f82b 	bl	80044d4 <GPIO_Init>
 800447e:	a803      	add	r0, sp, #12
 8004480:	f000 fa8a 	bl	8004998 <USART_StructInit>
 8004484:	9403      	str	r4, [sp, #12]
 8004486:	4c11      	ldr	r4, [pc, #68]	; (80044cc <uart1_init+0xa8>)
 8004488:	a903      	add	r1, sp, #12
 800448a:	4620      	mov	r0, r4
 800448c:	f000 fa2c 	bl	80048e8 <USART_Init>
 8004490:	4620      	mov	r0, r4
 8004492:	2200      	movs	r2, #0
 8004494:	f240 7127 	movw	r1, #1831	; 0x727
 8004498:	f000 fa95 	bl	80049c6 <USART_ITConfig>
 800449c:	4620      	mov	r0, r4
 800449e:	2201      	movs	r2, #1
 80044a0:	f240 5125 	movw	r1, #1317	; 0x525
 80044a4:	f000 fa8f 	bl	80049c6 <USART_ITConfig>
 80044a8:	4b09      	ldr	r3, [pc, #36]	; (80044d0 <uart1_init+0xac>)
 80044aa:	22f0      	movs	r2, #240	; 0xf0
 80044ac:	f883 2325 	strb.w	r2, [r3, #805]	; 0x325
 80044b0:	2220      	movs	r2, #32
 80044b2:	605a      	str	r2, [r3, #4]
 80044b4:	4620      	mov	r0, r4
 80044b6:	2101      	movs	r1, #1
 80044b8:	f000 fa79 	bl	80049ae <USART_Cmd>
 80044bc:	b009      	add	sp, #36	; 0x24
 80044be:	bd30      	pop	{r4, r5, pc}
 80044c0:	08004341 	.word	0x08004341
 80044c4:	20000d88 	.word	0x20000d88
 80044c8:	40010800 	.word	0x40010800
 80044cc:	40013800 	.word	0x40013800
 80044d0:	e000e100 	.word	0xe000e100

080044d4 <GPIO_Init>:
 80044d4:	78cb      	ldrb	r3, [r1, #3]
 80044d6:	e92d 43f0 	stmdb	sp!, {r4, r5, r6, r7, r8, r9, lr}
 80044da:	f003 020f 	and.w	r2, r3, #15
 80044de:	06db      	lsls	r3, r3, #27
 80044e0:	bf48      	it	mi
 80044e2:	788b      	ldrbmi	r3, [r1, #2]
 80044e4:	880e      	ldrh	r6, [r1, #0]
 80044e6:	bf48      	it	mi
 80044e8:	431a      	orrmi	r2, r3
 80044ea:	f016 0fff 	tst.w	r6, #255	; 0xff
 80044ee:	d01f      	beq.n	8004530 <GPIO_Init+0x5c>
 80044f0:	6804      	ldr	r4, [r0, #0]
 80044f2:	2300      	movs	r3, #0
 80044f4:	f04f 0801 	mov.w	r8, #1
 80044f8:	f04f 0c0f 	mov.w	ip, #15
 80044fc:	fa08 f703 	lsl.w	r7, r8, r3
 8004500:	ea07 0506 	and.w	r5, r7, r6
 8004504:	42bd      	cmp	r5, r7
 8004506:	d10f      	bne.n	8004528 <GPIO_Init+0x54>
 8004508:	009f      	lsls	r7, r3, #2
 800450a:	fa0c f907 	lsl.w	r9, ip, r7
 800450e:	fa12 f707 	lsls.w	r7, r2, r7
 8004512:	ea24 0409 	bic.w	r4, r4, r9
 8004516:	433c      	orrs	r4, r7
 8004518:	78cf      	ldrb	r7, [r1, #3]
 800451a:	2f28      	cmp	r7, #40	; 0x28
 800451c:	d101      	bne.n	8004522 <GPIO_Init+0x4e>
 800451e:	6145      	str	r5, [r0, #20]
 8004520:	e002      	b.n	8004528 <GPIO_Init+0x54>
 8004522:	2f48      	cmp	r7, #72	; 0x48
 8004524:	bf08      	it	eq
 8004526:	6105      	streq	r5, [r0, #16]
 8004528:	3301      	adds	r3, #1
 800452a:	2b08      	cmp	r3, #8
 800452c:	d1e6      	bne.n	80044fc <GPIO_Init+0x28>
 800452e:	6004      	str	r4, [r0, #0]
 8004530:	880e      	ldrh	r6, [r1, #0]
 8004532:	2eff      	cmp	r6, #255	; 0xff
 8004534:	d921      	bls.n	800457a <GPIO_Init+0xa6>
 8004536:	6844      	ldr	r4, [r0, #4]
 8004538:	2300      	movs	r3, #0
 800453a:	f04f 0801 	mov.w	r8, #1
 800453e:	f04f 0c0f 	mov.w	ip, #15
 8004542:	f103 0708 	add.w	r7, r3, #8
 8004546:	fa08 f707 	lsl.w	r7, r8, r7
 800454a:	ea07 0506 	and.w	r5, r7, r6
 800454e:	42bd      	cmp	r5, r7
 8004550:	d10f      	bne.n	8004572 <GPIO_Init+0x9e>
 8004552:	009f      	lsls	r7, r3, #2
 8004554:	fa0c f907 	lsl.w	r9, ip, r7
 8004558:	fa12 f707 	lsls.w	r7, r2, r7
 800455c:	ea24 0409 	bic.w	r4, r4, r9
 8004560:	433c      	orrs	r4, r7
 8004562:	78cf      	ldrb	r7, [r1, #3]
 8004564:	2f28      	cmp	r7, #40	; 0x28
 8004566:	d101      	bne.n	800456c <GPIO_Init+0x98>
 8004568:	6145      	str	r5, [r0, #20]
 800456a:	e002      	b.n	8004572 <GPIO_Init+0x9e>
 800456c:	2f48      	cmp	r7, #72	; 0x48
 800456e:	bf08      	it	eq
 8004570:	6105      	streq	r5, [r0, #16]
 8004572:	3301      	adds	r3, #1
 8004574:	2b08      	cmp	r3, #8
 8004576:	d1e4      	bne.n	8004542 <GPIO_Init+0x6e>
 8004578:	6044      	str	r4, [r0, #4]
 800457a:	e8bd 83f0 	ldmia.w	sp!, {r4, r5, r6, r7, r8, r9, pc}

0800457e <GPIO_ReadInputData>:
 800457e:	6880      	ldr	r0, [r0, #8]
 8004580:	b280      	uxth	r0, r0
 8004582:	4770      	bx	lr

08004584 <GPIO_SetBits>:
 8004584:	6101      	str	r1, [r0, #16]
 8004586:	4770      	bx	lr

08004588 <GPIO_ResetBits>:
 8004588:	6141      	str	r1, [r0, #20]
 800458a:	4770      	bx	lr

0800458c <DAC_Init>:
 800458c:	f640 72fe 	movw	r2, #4094	; 0xffe
 8004590:	4082      	lsls	r2, r0
 8004592:	b530      	push	{r4, r5, lr}
 8004594:	4b08      	ldr	r3, [pc, #32]	; (80045b8 <DAC_Init+0x2c>)
 8004596:	681c      	ldr	r4, [r3, #0]
 8004598:	ea24 0202 	bic.w	r2, r4, r2
 800459c:	e891 0030 	ldmia.w	r1, {r4, r5}
 80045a0:	4325      	orrs	r5, r4
 80045a2:	688c      	ldr	r4, [r1, #8]
 80045a4:	4325      	orrs	r5, r4
 80045a6:	68cc      	ldr	r4, [r1, #12]
 80045a8:	ea45 0104 	orr.w	r1, r5, r4
 80045ac:	fa11 f000 	lsls.w	r0, r1, r0
 80045b0:	4310      	orrs	r0, r2
 80045b2:	6018      	str	r0, [r3, #0]
 80045b4:	bd30      	pop	{r4, r5, pc}
 80045b6:	bf00      	nop
 80045b8:	40007400 	.word	0x40007400

080045bc <DAC_StructInit>:
 80045bc:	2300      	movs	r3, #0
 80045be:	6003      	str	r3, [r0, #0]
 80045c0:	6043      	str	r3, [r0, #4]
 80045c2:	6083      	str	r3, [r0, #8]
 80045c4:	60c3      	str	r3, [r0, #12]
 80045c6:	4770      	bx	lr

080045c8 <DAC_Cmd>:
 80045c8:	4b06      	ldr	r3, [pc, #24]	; (80045e4 <DAC_Cmd+0x1c>)
 80045ca:	2201      	movs	r2, #1
 80045cc:	b119      	cbz	r1, 80045d6 <DAC_Cmd+0xe>
 80045ce:	4082      	lsls	r2, r0
 80045d0:	6819      	ldr	r1, [r3, #0]
 80045d2:	430a      	orrs	r2, r1
 80045d4:	e003      	b.n	80045de <DAC_Cmd+0x16>
 80045d6:	4082      	lsls	r2, r0
 80045d8:	6819      	ldr	r1, [r3, #0]
 80045da:	ea21 0202 	bic.w	r2, r1, r2
 80045de:	601a      	str	r2, [r3, #0]
 80045e0:	4770      	bx	lr
 80045e2:	bf00      	nop
 80045e4:	40007400 	.word	0x40007400

080045e8 <main_fly>:
 80045e8:	b508      	push	{r3, lr}
 80045ea:	f000 ffab 	bl	8005544 <sheppard_process>
 80045ee:	e8bd 4008 	ldmia.w	sp!, {r3, lr}
 80045f2:	f000 baf3 	b.w	8004bdc <interface_process>
	...

080045f8 <SysTick_Handler>:
 80045f8:	b508      	push	{r3, lr}
 80045fa:	4b04      	ldr	r3, [pc, #16]	; (800460c <SysTick_Handler+0x14>)
 80045fc:	2201      	movs	r2, #1
 80045fe:	701a      	strb	r2, [r3, #0]
 8004600:	f000 fa48 	bl	8004a94 <console_timer>
 8004604:	e8bd 4008 	ldmia.w	sp!, {r3, lr}
 8004608:	f000 ba5a 	b.w	8004ac0 <interface_timer>
 800460c:	20000894 	.word	0x20000894

08004610 <main>:
 8004610:	b573      	push	{r0, r1, r4, r5, r6, lr}
 8004612:	b672      	cpsid	i
 8004614:	4c2c      	ldr	r4, [pc, #176]	; (80046c8 <main+0xb8>)
 8004616:	4b2d      	ldr	r3, [pc, #180]	; (80046cc <main+0xbc>)
 8004618:	60a3      	str	r3, [r4, #8]
 800461a:	b662      	cpsie	i
 800461c:	4a2c      	ldr	r2, [pc, #176]	; (80046d0 <main+0xc0>)
 800461e:	2300      	movs	r3, #0
 8004620:	2110      	movs	r1, #16
 8004622:	f44f 4016 	mov.w	r0, #38400	; 0x9600
 8004626:	f7ff fefd 	bl	8004424 <uart1_init>
 800462a:	2010      	movs	r0, #16
 800462c:	2101      	movs	r1, #1
 800462e:	f000 f8ab 	bl	8004788 <RCC_APB2PeriphClockCmd>
 8004632:	f44f 7340 	mov.w	r3, #768	; 0x300
 8004636:	f8ad 3004 	strh.w	r3, [sp, #4]
 800463a:	2303      	movs	r3, #3
 800463c:	4825      	ldr	r0, [pc, #148]	; (80046d4 <main+0xc4>)
 800463e:	a901      	add	r1, sp, #4
 8004640:	f88d 3006 	strb.w	r3, [sp, #6]
 8004644:	2310      	movs	r3, #16
 8004646:	f88d 3007 	strb.w	r3, [sp, #7]
 800464a:	f7ff ff43 	bl	80044d4 <GPIO_Init>
 800464e:	f000 fa2b 	bl	8004aa8 <console_init>
 8004652:	f000 ffb9 	bl	80055c8 <sheppard_init>
 8004656:	f000 fa3b 	bl	8004ad0 <interface_init>
 800465a:	4b1f      	ldr	r3, [pc, #124]	; (80046d8 <main+0xc8>)
 800465c:	6818      	ldr	r0, [r3, #0]
 800465e:	f001 fb7f 	bl	8005d60 <__aeabi_ui2d>
 8004662:	a317      	add	r3, pc, #92	; (adr r3, 80046c0 <main+0xb0>)
 8004664:	e9d3 2300 	ldrd	r2, r3, [r3]
 8004668:	f001 fbf0 	bl	8005e4c <__aeabi_dmul>
 800466c:	f001 feb0 	bl	80063d0 <__aeabi_d2uiz>
 8004670:	f1b0 7f80 	cmp.w	r0, #16777216	; 0x1000000
 8004674:	d209      	bcs.n	800468a <main+0x7a>
 8004676:	4b19      	ldr	r3, [pc, #100]	; (80046dc <main+0xcc>)
 8004678:	22f0      	movs	r2, #240	; 0xf0
 800467a:	3801      	subs	r0, #1
 800467c:	6058      	str	r0, [r3, #4]
 800467e:	f884 2023 	strb.w	r2, [r4, #35]	; 0x23
 8004682:	2200      	movs	r2, #0
 8004684:	609a      	str	r2, [r3, #8]
 8004686:	2207      	movs	r2, #7
 8004688:	601a      	str	r2, [r3, #0]
 800468a:	4d15      	ldr	r5, [pc, #84]	; (80046e0 <main+0xd0>)
 800468c:	4c15      	ldr	r4, [pc, #84]	; (80046e4 <main+0xd4>)
 800468e:	2600      	movs	r6, #0
 8004690:	782b      	ldrb	r3, [r5, #0]
 8004692:	b17b      	cbz	r3, 80046b4 <main+0xa4>
 8004694:	7b23      	ldrb	r3, [r4, #12]
 8004696:	702e      	strb	r6, [r5, #0]
 8004698:	b133      	cbz	r3, 80046a8 <main+0x98>
 800469a:	68a0      	ldr	r0, [r4, #8]
 800469c:	f001 fb70 	bl	8005d80 <__aeabi_i2d>
 80046a0:	4602      	mov	r2, r0
 80046a2:	460b      	mov	r3, r1
 80046a4:	6860      	ldr	r0, [r4, #4]
 80046a6:	e003      	b.n	80046b0 <main+0xa0>
 80046a8:	f04f 30ff 	mov.w	r0, #4294967295
 80046ac:	2200      	movs	r2, #0
 80046ae:	2300      	movs	r3, #0
 80046b0:	f000 fede 	bl	8005470 <sheppard_envelopeset>
 80046b4:	f7ff ff98 	bl	80045e8 <main_fly>
 80046b8:	e7ea      	b.n	8004690 <main+0x80>
 80046ba:	bf00      	nop
 80046bc:	f3af 8000 	nop.w
 80046c0:	47ae147b 	.word	0x47ae147b
 80046c4:	3f847ae1 	.word	0x3f847ae1
 80046c8:	e000ed00 	.word	0xe000ed00
 80046cc:	08004000 	.word	0x08004000
 80046d0:	080045e9 	.word	0x080045e9
 80046d4:	40011000 	.word	0x40011000
 80046d8:	20000000 	.word	0x20000000
 80046dc:	e000e010 	.word	0xe000e010
 80046e0:	20000dd0 	.word	0x20000dd0
 80046e4:	20000028 	.word	0x20000028

080046e8 <RCC_ADCCLKConfig>:
 80046e8:	4b03      	ldr	r3, [pc, #12]	; (80046f8 <RCC_ADCCLKConfig+0x10>)
 80046ea:	685a      	ldr	r2, [r3, #4]
 80046ec:	f422 4240 	bic.w	r2, r2, #49152	; 0xc000
 80046f0:	4310      	orrs	r0, r2
 80046f2:	6058      	str	r0, [r3, #4]
 80046f4:	4770      	bx	lr
 80046f6:	bf00      	nop
 80046f8:	40021000 	.word	0x40021000

080046fc <RCC_GetClocksFreq>:
 80046fc:	b510      	push	{r4, lr}
 80046fe:	4b1e      	ldr	r3, [pc, #120]	; (8004778 <RCC_GetClocksFreq+0x7c>)
 8004700:	685a      	ldr	r2, [r3, #4]
 8004702:	f002 020c 	and.w	r2, r2, #12
 8004706:	2a04      	cmp	r2, #4
 8004708:	d001      	beq.n	800470e <RCC_GetClocksFreq+0x12>
 800470a:	2a08      	cmp	r2, #8
 800470c:	d002      	beq.n	8004714 <RCC_GetClocksFreq+0x18>
 800470e:	4b1b      	ldr	r3, [pc, #108]	; (800477c <RCC_GetClocksFreq+0x80>)
 8004710:	6003      	str	r3, [r0, #0]
 8004712:	e011      	b.n	8004738 <RCC_GetClocksFreq+0x3c>
 8004714:	685a      	ldr	r2, [r3, #4]
 8004716:	6859      	ldr	r1, [r3, #4]
 8004718:	f3c2 4283 	ubfx	r2, r2, #18, #4
 800471c:	3202      	adds	r2, #2
 800471e:	03c9      	lsls	r1, r1, #15
 8004720:	d401      	bmi.n	8004726 <RCC_GetClocksFreq+0x2a>
 8004722:	4b17      	ldr	r3, [pc, #92]	; (8004780 <RCC_GetClocksFreq+0x84>)
 8004724:	e006      	b.n	8004734 <RCC_GetClocksFreq+0x38>
 8004726:	6adb      	ldr	r3, [r3, #44]	; 0x2c
 8004728:	4914      	ldr	r1, [pc, #80]	; (800477c <RCC_GetClocksFreq+0x80>)
 800472a:	f003 030f 	and.w	r3, r3, #15
 800472e:	3301      	adds	r3, #1
 8004730:	fbb1 f3f3 	udiv	r3, r1, r3
 8004734:	435a      	muls	r2, r3
 8004736:	6002      	str	r2, [r0, #0]
 8004738:	4a0f      	ldr	r2, [pc, #60]	; (8004778 <RCC_GetClocksFreq+0x7c>)
 800473a:	4b12      	ldr	r3, [pc, #72]	; (8004784 <RCC_GetClocksFreq+0x88>)
 800473c:	6851      	ldr	r1, [r2, #4]
 800473e:	6804      	ldr	r4, [r0, #0]
 8004740:	f3c1 1103 	ubfx	r1, r1, #4, #4
 8004744:	5c59      	ldrb	r1, [r3, r1]
 8004746:	fa34 f101 	lsrs.w	r1, r4, r1
 800474a:	6041      	str	r1, [r0, #4]
 800474c:	6854      	ldr	r4, [r2, #4]
 800474e:	f3c4 2402 	ubfx	r4, r4, #8, #3
 8004752:	5d1c      	ldrb	r4, [r3, r4]
 8004754:	fa31 f404 	lsrs.w	r4, r1, r4
 8004758:	6084      	str	r4, [r0, #8]
 800475a:	6854      	ldr	r4, [r2, #4]
 800475c:	f3c4 24c2 	ubfx	r4, r4, #11, #3
 8004760:	5d1c      	ldrb	r4, [r3, r4]
 8004762:	40e1      	lsrs	r1, r4
 8004764:	60c1      	str	r1, [r0, #12]
 8004766:	6852      	ldr	r2, [r2, #4]
 8004768:	f3c2 3281 	ubfx	r2, r2, #14, #2
 800476c:	189b      	adds	r3, r3, r2
 800476e:	7c1b      	ldrb	r3, [r3, #16]
 8004770:	fbb1 f1f3 	udiv	r1, r1, r3
 8004774:	6101      	str	r1, [r0, #16]
 8004776:	bd10      	pop	{r4, pc}
 8004778:	40021000 	.word	0x40021000
 800477c:	007a1200 	.word	0x007a1200
 8004780:	003d0900 	.word	0x003d0900
 8004784:	20000014 	.word	0x20000014

08004788 <RCC_APB2PeriphClockCmd>:
 8004788:	4b04      	ldr	r3, [pc, #16]	; (800479c <RCC_APB2PeriphClockCmd+0x14>)
 800478a:	699a      	ldr	r2, [r3, #24]
 800478c:	b109      	cbz	r1, 8004792 <RCC_APB2PeriphClockCmd+0xa>
 800478e:	4310      	orrs	r0, r2
 8004790:	e001      	b.n	8004796 <RCC_APB2PeriphClockCmd+0xe>
 8004792:	ea22 0000 	bic.w	r0, r2, r0
 8004796:	6198      	str	r0, [r3, #24]
 8004798:	4770      	bx	lr
 800479a:	bf00      	nop
 800479c:	40021000 	.word	0x40021000

080047a0 <RCC_APB1PeriphClockCmd>:
 80047a0:	4b04      	ldr	r3, [pc, #16]	; (80047b4 <RCC_APB1PeriphClockCmd+0x14>)
 80047a2:	69da      	ldr	r2, [r3, #28]
 80047a4:	b109      	cbz	r1, 80047aa <RCC_APB1PeriphClockCmd+0xa>
 80047a6:	4310      	orrs	r0, r2
 80047a8:	e001      	b.n	80047ae <RCC_APB1PeriphClockCmd+0xe>
 80047aa:	ea22 0000 	bic.w	r0, r2, r0
 80047ae:	61d8      	str	r0, [r3, #28]
 80047b0:	4770      	bx	lr
 80047b2:	bf00      	nop
 80047b4:	40021000 	.word	0x40021000

080047b8 <ADC_Init>:
 80047b8:	6843      	ldr	r3, [r0, #4]
 80047ba:	680a      	ldr	r2, [r1, #0]
 80047bc:	f423 2370 	bic.w	r3, r3, #983040	; 0xf0000
 80047c0:	f423 7380 	bic.w	r3, r3, #256	; 0x100
 80047c4:	4313      	orrs	r3, r2
 80047c6:	790a      	ldrb	r2, [r1, #4]
 80047c8:	b510      	push	{r4, lr}
 80047ca:	ea43 2302 	orr.w	r3, r3, r2, lsl #8
 80047ce:	6043      	str	r3, [r0, #4]
 80047d0:	688a      	ldr	r2, [r1, #8]
 80047d2:	68cb      	ldr	r3, [r1, #12]
 80047d4:	6884      	ldr	r4, [r0, #8]
 80047d6:	431a      	orrs	r2, r3
 80047d8:	4b08      	ldr	r3, [pc, #32]	; (80047fc <ADC_Init+0x44>)
 80047da:	4023      	ands	r3, r4
 80047dc:	4313      	orrs	r3, r2
 80047de:	794a      	ldrb	r2, [r1, #5]
 80047e0:	ea43 0342 	orr.w	r3, r3, r2, lsl #1
 80047e4:	6083      	str	r3, [r0, #8]
 80047e6:	7c0b      	ldrb	r3, [r1, #16]
 80047e8:	6ac2      	ldr	r2, [r0, #44]	; 0x2c
 80047ea:	3b01      	subs	r3, #1
 80047ec:	f422 0270 	bic.w	r2, r2, #15728640	; 0xf00000
 80047f0:	b2db      	uxtb	r3, r3
 80047f2:	ea42 5303 	orr.w	r3, r2, r3, lsl #20
 80047f6:	62c3      	str	r3, [r0, #44]	; 0x2c
 80047f8:	bd10      	pop	{r4, pc}
 80047fa:	bf00      	nop
 80047fc:	fff1f7fd 	.word	0xfff1f7fd

08004800 <ADC_Cmd>:
 8004800:	6883      	ldr	r3, [r0, #8]
 8004802:	b111      	cbz	r1, 800480a <ADC_Cmd+0xa>
 8004804:	f043 0301 	orr.w	r3, r3, #1
 8004808:	e001      	b.n	800480e <ADC_Cmd+0xe>
 800480a:	f023 0301 	bic.w	r3, r3, #1
 800480e:	6083      	str	r3, [r0, #8]
 8004810:	4770      	bx	lr

08004812 <ADC_ResetCalibration>:
 8004812:	6883      	ldr	r3, [r0, #8]
 8004814:	f043 0308 	orr.w	r3, r3, #8
 8004818:	6083      	str	r3, [r0, #8]
 800481a:	4770      	bx	lr

0800481c <ADC_GetResetCalibrationStatus>:
 800481c:	6880      	ldr	r0, [r0, #8]
 800481e:	f3c0 00c0 	ubfx	r0, r0, #3, #1
 8004822:	4770      	bx	lr

08004824 <ADC_StartCalibration>:
 8004824:	6883      	ldr	r3, [r0, #8]
 8004826:	f043 0304 	orr.w	r3, r3, #4
 800482a:	6083      	str	r3, [r0, #8]
 800482c:	4770      	bx	lr

0800482e <ADC_GetCalibrationStatus>:
 800482e:	6880      	ldr	r0, [r0, #8]
 8004830:	f3c0 0080 	ubfx	r0, r0, #2, #1
 8004834:	4770      	bx	lr

08004836 <ADC_SoftwareStartConvCmd>:
 8004836:	6883      	ldr	r3, [r0, #8]
 8004838:	b111      	cbz	r1, 8004840 <ADC_SoftwareStartConvCmd+0xa>
 800483a:	f443 03a0 	orr.w	r3, r3, #5242880	; 0x500000
 800483e:	e001      	b.n	8004844 <ADC_SoftwareStartConvCmd+0xe>
 8004840:	f423 03a0 	bic.w	r3, r3, #5242880	; 0x500000
 8004844:	6083      	str	r3, [r0, #8]
 8004846:	4770      	bx	lr

08004848 <ADC_RegularChannelConfig>:
 8004848:	2909      	cmp	r1, #9
 800484a:	b570      	push	{r4, r5, r6, lr}
 800484c:	f04f 0403 	mov.w	r4, #3
 8004850:	d90b      	bls.n	800486a <ADC_RegularChannelConfig+0x22>
 8004852:	434c      	muls	r4, r1
 8004854:	2507      	movs	r5, #7
 8004856:	3c1e      	subs	r4, #30
 8004858:	40a5      	lsls	r5, r4
 800485a:	40a3      	lsls	r3, r4
 800485c:	68c6      	ldr	r6, [r0, #12]
 800485e:	ea26 0505 	bic.w	r5, r6, r5
 8004862:	ea45 0403 	orr.w	r4, r5, r3
 8004866:	60c4      	str	r4, [r0, #12]
 8004868:	e00a      	b.n	8004880 <ADC_RegularChannelConfig+0x38>
 800486a:	434c      	muls	r4, r1
 800486c:	2507      	movs	r5, #7
 800486e:	40a5      	lsls	r5, r4
 8004870:	fa13 f404 	lsls.w	r4, r3, r4
 8004874:	6906      	ldr	r6, [r0, #16]
 8004876:	ea26 0505 	bic.w	r5, r6, r5
 800487a:	ea45 0304 	orr.w	r3, r5, r4
 800487e:	6103      	str	r3, [r0, #16]
 8004880:	2a06      	cmp	r2, #6
 8004882:	f04f 0305 	mov.w	r3, #5
 8004886:	d80b      	bhi.n	80048a0 <ADC_RegularChannelConfig+0x58>
 8004888:	3a01      	subs	r2, #1
 800488a:	4353      	muls	r3, r2
 800488c:	221f      	movs	r2, #31
 800488e:	409a      	lsls	r2, r3
 8004890:	fa11 f303 	lsls.w	r3, r1, r3
 8004894:	6b44      	ldr	r4, [r0, #52]	; 0x34
 8004896:	ea24 0202 	bic.w	r2, r4, r2
 800489a:	4313      	orrs	r3, r2
 800489c:	6343      	str	r3, [r0, #52]	; 0x34
 800489e:	bd70      	pop	{r4, r5, r6, pc}
 80048a0:	2a0c      	cmp	r2, #12
 80048a2:	d80b      	bhi.n	80048bc <ADC_RegularChannelConfig+0x74>
 80048a4:	4353      	muls	r3, r2
 80048a6:	221f      	movs	r2, #31
 80048a8:	3b23      	subs	r3, #35	; 0x23
 80048aa:	409a      	lsls	r2, r3
 80048ac:	4099      	lsls	r1, r3
 80048ae:	6b04      	ldr	r4, [r0, #48]	; 0x30
 80048b0:	ea24 0202 	bic.w	r2, r4, r2
 80048b4:	ea42 0301 	orr.w	r3, r2, r1
 80048b8:	6303      	str	r3, [r0, #48]	; 0x30
 80048ba:	bd70      	pop	{r4, r5, r6, pc}
 80048bc:	4353      	muls	r3, r2
 80048be:	221f      	movs	r2, #31
 80048c0:	3b41      	subs	r3, #65	; 0x41
 80048c2:	409a      	lsls	r2, r3
 80048c4:	4099      	lsls	r1, r3
 80048c6:	6ac4      	ldr	r4, [r0, #44]	; 0x2c
 80048c8:	ea24 0202 	bic.w	r2, r4, r2
 80048cc:	ea42 0301 	orr.w	r3, r2, r1
 80048d0:	62c3      	str	r3, [r0, #44]	; 0x2c
 80048d2:	bd70      	pop	{r4, r5, r6, pc}

080048d4 <ADC_GetConversionValue>:
 80048d4:	6cc0      	ldr	r0, [r0, #76]	; 0x4c
 80048d6:	b280      	uxth	r0, r0
 80048d8:	4770      	bx	lr

080048da <ADC_GetFlagStatus>:
 80048da:	6803      	ldr	r3, [r0, #0]
 80048dc:	4219      	tst	r1, r3
 80048de:	bf0c      	ite	eq
 80048e0:	2000      	moveq	r0, #0
 80048e2:	2001      	movne	r0, #1
 80048e4:	4770      	bx	lr
	...

080048e8 <USART_Init>:
 80048e8:	b530      	push	{r4, r5, lr}
 80048ea:	8a03      	ldrh	r3, [r0, #16]
 80048ec:	88ca      	ldrh	r2, [r1, #6]
 80048ee:	f423 5340 	bic.w	r3, r3, #12288	; 0x3000
 80048f2:	041b      	lsls	r3, r3, #16
 80048f4:	0c1b      	lsrs	r3, r3, #16
 80048f6:	4313      	orrs	r3, r2
 80048f8:	8203      	strh	r3, [r0, #16]
 80048fa:	460d      	mov	r5, r1
 80048fc:	8983      	ldrh	r3, [r0, #12]
 80048fe:	8909      	ldrh	r1, [r1, #8]
 8004900:	88aa      	ldrh	r2, [r5, #4]
 8004902:	f423 53b0 	bic.w	r3, r3, #5632	; 0x1600
 8004906:	430a      	orrs	r2, r1
 8004908:	8969      	ldrh	r1, [r5, #10]
 800490a:	f023 030c 	bic.w	r3, r3, #12
 800490e:	430a      	orrs	r2, r1
 8004910:	041b      	lsls	r3, r3, #16
 8004912:	0c1b      	lsrs	r3, r3, #16
 8004914:	b292      	uxth	r2, r2
 8004916:	4313      	orrs	r3, r2
 8004918:	8183      	strh	r3, [r0, #12]
 800491a:	8a83      	ldrh	r3, [r0, #20]
 800491c:	89aa      	ldrh	r2, [r5, #12]
 800491e:	f423 7340 	bic.w	r3, r3, #768	; 0x300
 8004922:	041b      	lsls	r3, r3, #16
 8004924:	0c1b      	lsrs	r3, r3, #16
 8004926:	b087      	sub	sp, #28
 8004928:	4313      	orrs	r3, r2
 800492a:	4604      	mov	r4, r0
 800492c:	8283      	strh	r3, [r0, #20]
 800492e:	a801      	add	r0, sp, #4
 8004930:	f7ff fee4 	bl	80046fc <RCC_GetClocksFreq>
 8004934:	4b17      	ldr	r3, [pc, #92]	; (8004994 <USART_Init+0xac>)
 8004936:	89a2      	ldrh	r2, [r4, #12]
 8004938:	429c      	cmp	r4, r3
 800493a:	bf0c      	ite	eq
 800493c:	9b04      	ldreq	r3, [sp, #16]
 800493e:	9b03      	ldrne	r3, [sp, #12]
 8004940:	b212      	sxth	r2, r2
 8004942:	2a00      	cmp	r2, #0
 8004944:	f04f 0119 	mov.w	r1, #25
 8004948:	682a      	ldr	r2, [r5, #0]
 800494a:	fb01 f103 	mul.w	r1, r1, r3
 800494e:	da01      	bge.n	8004954 <USART_Init+0x6c>
 8004950:	0052      	lsls	r2, r2, #1
 8004952:	e000      	b.n	8004956 <USART_Init+0x6e>
 8004954:	0092      	lsls	r2, r2, #2
 8004956:	2364      	movs	r3, #100	; 0x64
 8004958:	fbb1 f1f2 	udiv	r1, r1, r2
 800495c:	fbb1 f2f3 	udiv	r2, r1, r3
 8004960:	0112      	lsls	r2, r2, #4
 8004962:	0910      	lsrs	r0, r2, #4
 8004964:	fb03 1110 	mls	r1, r3, r0, r1
 8004968:	89a0      	ldrh	r0, [r4, #12]
 800496a:	b200      	sxth	r0, r0
 800496c:	2800      	cmp	r0, #0
 800496e:	da06      	bge.n	800497e <USART_Init+0x96>
 8004970:	00c9      	lsls	r1, r1, #3
 8004972:	3132      	adds	r1, #50	; 0x32
 8004974:	fbb1 f3f3 	udiv	r3, r1, r3
 8004978:	f003 0307 	and.w	r3, r3, #7
 800497c:	e005      	b.n	800498a <USART_Init+0xa2>
 800497e:	0109      	lsls	r1, r1, #4
 8004980:	3132      	adds	r1, #50	; 0x32
 8004982:	fbb1 f3f3 	udiv	r3, r1, r3
 8004986:	f003 030f 	and.w	r3, r3, #15
 800498a:	431a      	orrs	r2, r3
 800498c:	b292      	uxth	r2, r2
 800498e:	8122      	strh	r2, [r4, #8]
 8004990:	b007      	add	sp, #28
 8004992:	bd30      	pop	{r4, r5, pc}
 8004994:	40013800 	.word	0x40013800

08004998 <USART_StructInit>:
 8004998:	f44f 5316 	mov.w	r3, #9600	; 0x2580
 800499c:	6003      	str	r3, [r0, #0]
 800499e:	220c      	movs	r2, #12
 80049a0:	2300      	movs	r3, #0
 80049a2:	8083      	strh	r3, [r0, #4]
 80049a4:	80c3      	strh	r3, [r0, #6]
 80049a6:	8103      	strh	r3, [r0, #8]
 80049a8:	8142      	strh	r2, [r0, #10]
 80049aa:	8183      	strh	r3, [r0, #12]
 80049ac:	4770      	bx	lr

080049ae <USART_Cmd>:
 80049ae:	8983      	ldrh	r3, [r0, #12]
 80049b0:	b119      	cbz	r1, 80049ba <USART_Cmd+0xc>
 80049b2:	b29b      	uxth	r3, r3
 80049b4:	f443 5300 	orr.w	r3, r3, #8192	; 0x2000
 80049b8:	e003      	b.n	80049c2 <USART_Cmd+0x14>
 80049ba:	f423 5300 	bic.w	r3, r3, #8192	; 0x2000
 80049be:	041b      	lsls	r3, r3, #16
 80049c0:	0c1b      	lsrs	r3, r3, #16
 80049c2:	8183      	strh	r3, [r0, #12]
 80049c4:	4770      	bx	lr

080049c6 <USART_ITConfig>:
 80049c6:	f3c1 1342 	ubfx	r3, r1, #5, #3
 80049ca:	b510      	push	{r4, lr}
 80049cc:	f001 011f 	and.w	r1, r1, #31
 80049d0:	2401      	movs	r4, #1
 80049d2:	fa14 f101 	lsls.w	r1, r4, r1
 80049d6:	42a3      	cmp	r3, r4
 80049d8:	d101      	bne.n	80049de <USART_ITConfig+0x18>
 80049da:	300c      	adds	r0, #12
 80049dc:	e004      	b.n	80049e8 <USART_ITConfig+0x22>
 80049de:	2b02      	cmp	r3, #2
 80049e0:	d101      	bne.n	80049e6 <USART_ITConfig+0x20>
 80049e2:	3010      	adds	r0, #16
 80049e4:	e000      	b.n	80049e8 <USART_ITConfig+0x22>
 80049e6:	3014      	adds	r0, #20
 80049e8:	6803      	ldr	r3, [r0, #0]
 80049ea:	b10a      	cbz	r2, 80049f0 <USART_ITConfig+0x2a>
 80049ec:	4319      	orrs	r1, r3
 80049ee:	e001      	b.n	80049f4 <USART_ITConfig+0x2e>
 80049f0:	ea23 0101 	bic.w	r1, r3, r1
 80049f4:	6001      	str	r1, [r0, #0]
 80049f6:	bd10      	pop	{r4, pc}

080049f8 <USART_SendData>:
 80049f8:	05c9      	lsls	r1, r1, #23
 80049fa:	0dc9      	lsrs	r1, r1, #23
 80049fc:	8081      	strh	r1, [r0, #4]
 80049fe:	4770      	bx	lr

08004a00 <USART_ReceiveData>:
 8004a00:	8880      	ldrh	r0, [r0, #4]
 8004a02:	05c0      	lsls	r0, r0, #23
 8004a04:	0dc0      	lsrs	r0, r0, #23
 8004a06:	4770      	bx	lr

08004a08 <USART_GetFlagStatus>:
 8004a08:	8803      	ldrh	r3, [r0, #0]
 8004a0a:	4219      	tst	r1, r3
 8004a0c:	bf0c      	ite	eq
 8004a0e:	2000      	moveq	r0, #0
 8004a10:	2001      	movne	r0, #1
 8004a12:	4770      	bx	lr

08004a14 <atomic_enter>:
 8004a14:	b508      	push	{r3, lr}
 8004a16:	f7ff fc22 	bl	800425e <__get_PRIMASK>
 8004a1a:	b672      	cpsid	i
 8004a1c:	bd08      	pop	{r3, pc}

08004a1e <fifo_flush>:
 8004a1e:	b510      	push	{r4, lr}
 8004a20:	4604      	mov	r4, r0
 8004a22:	f7ff fff7 	bl	8004a14 <atomic_enter>
 8004a26:	6963      	ldr	r3, [r4, #20]
 8004a28:	6123      	str	r3, [r4, #16]
 8004a2a:	6963      	ldr	r3, [r4, #20]
 8004a2c:	60e3      	str	r3, [r4, #12]
 8004a2e:	69a2      	ldr	r2, [r4, #24]
 8004a30:	6963      	ldr	r3, [r4, #20]
 8004a32:	1ad3      	subs	r3, r2, r3
 8004a34:	6023      	str	r3, [r4, #0]
 8004a36:	2201      	movs	r2, #1
 8004a38:	2300      	movs	r3, #0
 8004a3a:	6063      	str	r3, [r4, #4]
 8004a3c:	7222      	strb	r2, [r4, #8]
 8004a3e:	7263      	strb	r3, [r4, #9]
 8004a40:	e8bd 4010 	ldmia.w	sp!, {r4, lr}
 8004a44:	f7ff bc0e 	b.w	8004264 <__set_PRIMASK>

08004a48 <fifo_init>:
 8004a48:	b5f8      	push	{r3, r4, r5, r6, r7, lr}
 8004a4a:	461f      	mov	r7, r3
 8004a4c:	9b06      	ldr	r3, [sp, #24]
 8004a4e:	4604      	mov	r4, r0
 8004a50:	460d      	mov	r5, r1
 8004a52:	4616      	mov	r6, r2
 8004a54:	b92b      	cbnz	r3, 8004a62 <fifo_init+0x1a>
 8004a56:	4608      	mov	r0, r1
 8004a58:	f001 fce0 	bl	800641c <malloc>
 8004a5c:	6160      	str	r0, [r4, #20]
 8004a5e:	b908      	cbnz	r0, 8004a64 <fifo_init+0x1c>
 8004a60:	e7fe      	b.n	8004a60 <fifo_init+0x18>
 8004a62:	6143      	str	r3, [r0, #20]
 8004a64:	6963      	ldr	r3, [r4, #20]
 8004a66:	4620      	mov	r0, r4
 8004a68:	195d      	adds	r5, r3, r5
 8004a6a:	61a5      	str	r5, [r4, #24]
 8004a6c:	61e6      	str	r6, [r4, #28]
 8004a6e:	6227      	str	r7, [r4, #32]
 8004a70:	e8bd 40f8 	ldmia.w	sp!, {r3, r4, r5, r6, r7, lr}
 8004a74:	f7ff bfd3 	b.w	8004a1e <fifo_flush>

08004a78 <_sbrk>:
 8004a78:	4b04      	ldr	r3, [pc, #16]	; (8004a8c <_sbrk+0x14>)
 8004a7a:	681a      	ldr	r2, [r3, #0]
 8004a7c:	b90a      	cbnz	r2, 8004a82 <_sbrk+0xa>
 8004a7e:	4a04      	ldr	r2, [pc, #16]	; (8004a90 <_sbrk+0x18>)
 8004a80:	601a      	str	r2, [r3, #0]
 8004a82:	681a      	ldr	r2, [r3, #0]
 8004a84:	1810      	adds	r0, r2, r0
 8004a86:	6018      	str	r0, [r3, #0]
 8004a88:	4610      	mov	r0, r2
 8004a8a:	4770      	bx	lr
 8004a8c:	20000898 	.word	0x20000898
 8004a90:	200011f8 	.word	0x200011f8

08004a94 <console_timer>:
 8004a94:	4b03      	ldr	r3, [pc, #12]	; (8004aa4 <console_timer+0x10>)
 8004a96:	681a      	ldr	r2, [r3, #0]
 8004a98:	b112      	cbz	r2, 8004aa0 <console_timer+0xc>
 8004a9a:	681a      	ldr	r2, [r3, #0]
 8004a9c:	3a01      	subs	r2, #1
 8004a9e:	601a      	str	r2, [r3, #0]
 8004aa0:	4770      	bx	lr
 8004aa2:	bf00      	nop
 8004aa4:	2000089c 	.word	0x2000089c

08004aa8 <console_init>:
 8004aa8:	b507      	push	{r0, r1, r2, lr}
 8004aaa:	2200      	movs	r2, #0
 8004aac:	4803      	ldr	r0, [pc, #12]	; (8004abc <console_init+0x14>)
 8004aae:	2110      	movs	r1, #16
 8004ab0:	4613      	mov	r3, r2
 8004ab2:	9200      	str	r2, [sp, #0]
 8004ab4:	f7ff ffc8 	bl	8004a48 <fifo_init>
 8004ab8:	bd0e      	pop	{r1, r2, r3, pc}
 8004aba:	bf00      	nop
 8004abc:	20000dac 	.word	0x20000dac

08004ac0 <interface_timer>:
 8004ac0:	4b02      	ldr	r3, [pc, #8]	; (8004acc <interface_timer+0xc>)
 8004ac2:	681a      	ldr	r2, [r3, #0]
 8004ac4:	b10a      	cbz	r2, 8004aca <interface_timer+0xa>
 8004ac6:	3a01      	subs	r2, #1
 8004ac8:	601a      	str	r2, [r3, #0]
 8004aca:	4770      	bx	lr
 8004acc:	200008ac 	.word	0x200008ac

08004ad0 <interface_init>:
 8004ad0:	b570      	push	{r4, r5, r6, lr}
 8004ad2:	2004      	movs	r0, #4
 8004ad4:	b086      	sub	sp, #24
 8004ad6:	2101      	movs	r1, #1
 8004ad8:	f7ff fe56 	bl	8004788 <RCC_APB2PeriphClockCmd>
 8004adc:	2010      	movs	r0, #16
 8004ade:	2101      	movs	r1, #1
 8004ae0:	f7ff fe52 	bl	8004788 <RCC_APB2PeriphClockCmd>
 8004ae4:	f44f 7000 	mov.w	r0, #512	; 0x200
 8004ae8:	2101      	movs	r1, #1
 8004aea:	f7ff fe4d 	bl	8004788 <RCC_APB2PeriphClockCmd>
 8004aee:	2303      	movs	r3, #3
 8004af0:	f88d 3016 	strb.w	r3, [sp, #22]
 8004af4:	2310      	movs	r3, #16
 8004af6:	ac06      	add	r4, sp, #24
 8004af8:	f88d 3017 	strb.w	r3, [sp, #23]
 8004afc:	2340      	movs	r3, #64	; 0x40
 8004afe:	f824 3d04 	strh.w	r3, [r4, #-4]!
 8004b02:	4621      	mov	r1, r4
 8004b04:	4824      	ldr	r0, [pc, #144]	; (8004b98 <interface_init+0xc8>)
 8004b06:	f7ff fce5 	bl	80044d4 <GPIO_Init>
 8004b0a:	2348      	movs	r3, #72	; 0x48
 8004b0c:	4621      	mov	r1, r4
 8004b0e:	f88d 3017 	strb.w	r3, [sp, #23]
 8004b12:	4821      	ldr	r0, [pc, #132]	; (8004b98 <interface_init+0xc8>)
 8004b14:	230f      	movs	r3, #15
 8004b16:	f8ad 3014 	strh.w	r3, [sp, #20]
 8004b1a:	2600      	movs	r6, #0
 8004b1c:	f7ff fcda 	bl	80044d4 <GPIO_Init>
 8004b20:	2507      	movs	r5, #7
 8004b22:	4621      	mov	r1, r4
 8004b24:	481d      	ldr	r0, [pc, #116]	; (8004b9c <interface_init+0xcc>)
 8004b26:	f88d 6017 	strb.w	r6, [sp, #23]
 8004b2a:	f8ad 5014 	strh.w	r5, [sp, #20]
 8004b2e:	f7ff fcd1 	bl	80044d4 <GPIO_Init>
 8004b32:	f44f 4000 	mov.w	r0, #32768	; 0x8000
 8004b36:	f7ff fdd7 	bl	80046e8 <RCC_ADCCLKConfig>
 8004b3a:	f44f 2360 	mov.w	r3, #917504	; 0xe0000
 8004b3e:	2401      	movs	r4, #1
 8004b40:	9302      	str	r3, [sp, #8]
 8004b42:	4817      	ldr	r0, [pc, #92]	; (8004ba0 <interface_init+0xd0>)
 8004b44:	f44f 6300 	mov.w	r3, #2048	; 0x800
 8004b48:	4669      	mov	r1, sp
 8004b4a:	9303      	str	r3, [sp, #12]
 8004b4c:	9600      	str	r6, [sp, #0]
 8004b4e:	f88d 6004 	strb.w	r6, [sp, #4]
 8004b52:	f88d 6005 	strb.w	r6, [sp, #5]
 8004b56:	f88d 4010 	strb.w	r4, [sp, #16]
 8004b5a:	f7ff fe2d 	bl	80047b8 <ADC_Init>
 8004b5e:	4810      	ldr	r0, [pc, #64]	; (8004ba0 <interface_init+0xd0>)
 8004b60:	210a      	movs	r1, #10
 8004b62:	4622      	mov	r2, r4
 8004b64:	462b      	mov	r3, r5
 8004b66:	f7ff fe6f 	bl	8004848 <ADC_RegularChannelConfig>
 8004b6a:	480d      	ldr	r0, [pc, #52]	; (8004ba0 <interface_init+0xd0>)
 8004b6c:	4621      	mov	r1, r4
 8004b6e:	f7ff fe47 	bl	8004800 <ADC_Cmd>
 8004b72:	480b      	ldr	r0, [pc, #44]	; (8004ba0 <interface_init+0xd0>)
 8004b74:	f7ff fe4d 	bl	8004812 <ADC_ResetCalibration>
 8004b78:	4809      	ldr	r0, [pc, #36]	; (8004ba0 <interface_init+0xd0>)
 8004b7a:	f7ff fe4f 	bl	800481c <ADC_GetResetCalibrationStatus>
 8004b7e:	2800      	cmp	r0, #0
 8004b80:	d1fa      	bne.n	8004b78 <interface_init+0xa8>
 8004b82:	4807      	ldr	r0, [pc, #28]	; (8004ba0 <interface_init+0xd0>)
 8004b84:	f7ff fe4e 	bl	8004824 <ADC_StartCalibration>
 8004b88:	4805      	ldr	r0, [pc, #20]	; (8004ba0 <interface_init+0xd0>)
 8004b8a:	f7ff fe50 	bl	800482e <ADC_GetCalibrationStatus>
 8004b8e:	2800      	cmp	r0, #0
 8004b90:	d1fa      	bne.n	8004b88 <interface_init+0xb8>
 8004b92:	b006      	add	sp, #24
 8004b94:	bd70      	pop	{r4, r5, r6, pc}
 8004b96:	bf00      	nop
 8004b98:	40010800 	.word	0x40010800
 8004b9c:	40011000 	.word	0x40011000
 8004ba0:	40012400 	.word	0x40012400

08004ba4 <pot_process>:
 8004ba4:	b510      	push	{r4, lr}
 8004ba6:	4604      	mov	r4, r0
 8004ba8:	480b      	ldr	r0, [pc, #44]	; (8004bd8 <pot_process+0x34>)
 8004baa:	f7ff fe93 	bl	80048d4 <ADC_GetConversionValue>
 8004bae:	6823      	ldr	r3, [r4, #0]
 8004bb0:	0100      	lsls	r0, r0, #4
 8004bb2:	1ac0      	subs	r0, r0, r3
 8004bb4:	eb03 10a0 	add.w	r0, r3, r0, asr #6
 8004bb8:	6863      	ldr	r3, [r4, #4]
 8004bba:	6020      	str	r0, [r4, #0]
 8004bbc:	33c8      	adds	r3, #200	; 0xc8
 8004bbe:	4298      	cmp	r0, r3
 8004bc0:	bf84      	itt	hi
 8004bc2:	f1a0 03c8 	subhi.w	r3, r0, #200	; 0xc8
 8004bc6:	6063      	strhi	r3, [r4, #4]
 8004bc8:	6863      	ldr	r3, [r4, #4]
 8004bca:	3bc8      	subs	r3, #200	; 0xc8
 8004bcc:	4298      	cmp	r0, r3
 8004bce:	d201      	bcs.n	8004bd4 <pot_process+0x30>
 8004bd0:	30c8      	adds	r0, #200	; 0xc8
 8004bd2:	6060      	str	r0, [r4, #4]
 8004bd4:	bd10      	pop	{r4, pc}
 8004bd6:	bf00      	nop
 8004bd8:	40012400 	.word	0x40012400

08004bdc <interface_process>:
 8004bdc:	b570      	push	{r4, r5, r6, lr}
 8004bde:	4c6e      	ldr	r4, [pc, #440]	; (8004d98 <interface_process+0x1bc>)
 8004be0:	7923      	ldrb	r3, [r4, #4]
 8004be2:	2b06      	cmp	r3, #6
 8004be4:	f200 80d7 	bhi.w	8004d96 <interface_process+0x1ba>
 8004be8:	e8df f013 	tbh	[pc, r3, lsl #1]
 8004bec:	000a0007 	.word	0x000a0007
 8004bf0:	00520043 	.word	0x00520043
 8004bf4:	006e006b 	.word	0x006e006b
 8004bf8:	009c      	.short	0x009c
 8004bfa:	4868      	ldr	r0, [pc, #416]	; (8004d9c <interface_process+0x1c0>)
 8004bfc:	210a      	movs	r1, #10
 8004bfe:	e03a      	b.n	8004c76 <interface_process+0x9a>
 8004c00:	2102      	movs	r1, #2
 8004c02:	4866      	ldr	r0, [pc, #408]	; (8004d9c <interface_process+0x1c0>)
 8004c04:	f7ff fe69 	bl	80048da <ADC_GetFlagStatus>
 8004c08:	2801      	cmp	r0, #1
 8004c0a:	f040 80c4 	bne.w	8004d96 <interface_process+0x1ba>
 8004c0e:	7923      	ldrb	r3, [r4, #4]
 8004c10:	3301      	adds	r3, #1
 8004c12:	7123      	strb	r3, [r4, #4]
 8004c14:	4c62      	ldr	r4, [pc, #392]	; (8004da0 <interface_process+0x1c4>)
 8004c16:	4620      	mov	r0, r4
 8004c18:	f7ff ffc4 	bl	8004ba4 <pot_process>
 8004c1c:	6864      	ldr	r4, [r4, #4]
 8004c1e:	4b61      	ldr	r3, [pc, #388]	; (8004da4 <interface_process+0x1c8>)
 8004c20:	f644 621e 	movw	r2, #19998	; 0x4e1e
 8004c24:	18e3      	adds	r3, r4, r3
 8004c26:	2140      	movs	r1, #64	; 0x40
 8004c28:	4293      	cmp	r3, r2
 8004c2a:	485f      	ldr	r0, [pc, #380]	; (8004da8 <interface_process+0x1cc>)
 8004c2c:	d803      	bhi.n	8004c36 <interface_process+0x5a>
 8004c2e:	f7ff fca9 	bl	8004584 <GPIO_SetBits>
 8004c32:	2000      	movs	r0, #0
 8004c34:	e010      	b.n	8004c58 <interface_process+0x7c>
 8004c36:	f7ff fca7 	bl	8004588 <GPIO_ResetBits>
 8004c3a:	f5b4 2f00 	cmp.w	r4, #524288	; 0x80000
 8004c3e:	bfcb      	itete	gt
 8004c40:	f5a4 2402 	subgt.w	r4, r4, #532480	; 0x82000
 8004c44:	f5a4 24fa 	suble.w	r4, r4, #512000	; 0x7d000
 8004c48:	f5a4 64e2 	subgt.w	r4, r4, #1808	; 0x710
 8004c4c:	f5a4 640f 	suble.w	r4, r4, #2288	; 0x8f0
 8004c50:	f241 407a 	movw	r0, #5242	; 0x147a
 8004c54:	fb94 f0f0 	sdiv	r0, r4, r0
 8004c58:	4b54      	ldr	r3, [pc, #336]	; (8004dac <interface_process+0x1d0>)
 8004c5a:	681a      	ldr	r2, [r3, #0]
 8004c5c:	4290      	cmp	r0, r2
 8004c5e:	f000 809a 	beq.w	8004d96 <interface_process+0x1ba>
 8004c62:	6018      	str	r0, [r3, #0]
 8004c64:	4b52      	ldr	r3, [pc, #328]	; (8004db0 <interface_process+0x1d4>)
 8004c66:	2201      	movs	r2, #1
 8004c68:	701a      	strb	r2, [r3, #0]
 8004c6a:	e8bd 4070 	ldmia.w	sp!, {r4, r5, r6, lr}
 8004c6e:	f000 bc5b 	b.w	8005528 <sheppard_speedset>
 8004c72:	484a      	ldr	r0, [pc, #296]	; (8004d9c <interface_process+0x1c0>)
 8004c74:	210b      	movs	r1, #11
 8004c76:	2201      	movs	r2, #1
 8004c78:	2307      	movs	r3, #7
 8004c7a:	f7ff fde5 	bl	8004848 <ADC_RegularChannelConfig>
 8004c7e:	4847      	ldr	r0, [pc, #284]	; (8004d9c <interface_process+0x1c0>)
 8004c80:	2101      	movs	r1, #1
 8004c82:	f7ff fdd8 	bl	8004836 <ADC_SoftwareStartConvCmd>
 8004c86:	4b44      	ldr	r3, [pc, #272]	; (8004d98 <interface_process+0x1bc>)
 8004c88:	791a      	ldrb	r2, [r3, #4]
 8004c8a:	3201      	adds	r2, #1
 8004c8c:	711a      	strb	r2, [r3, #4]
 8004c8e:	bd70      	pop	{r4, r5, r6, pc}
 8004c90:	2102      	movs	r1, #2
 8004c92:	4842      	ldr	r0, [pc, #264]	; (8004d9c <interface_process+0x1c0>)
 8004c94:	f7ff fe21 	bl	80048da <ADC_GetFlagStatus>
 8004c98:	2801      	cmp	r0, #1
 8004c9a:	4605      	mov	r5, r0
 8004c9c:	d17b      	bne.n	8004d96 <interface_process+0x1ba>
 8004c9e:	7923      	ldrb	r3, [r4, #4]
 8004ca0:	3301      	adds	r3, #1
 8004ca2:	7123      	strb	r3, [r4, #4]
 8004ca4:	4c43      	ldr	r4, [pc, #268]	; (8004db4 <interface_process+0x1d8>)
 8004ca6:	4620      	mov	r0, r4
 8004ca8:	f7ff ff7c 	bl	8004ba4 <pot_process>
 8004cac:	4b3f      	ldr	r3, [pc, #252]	; (8004dac <interface_process+0x1d0>)
 8004cae:	6862      	ldr	r2, [r4, #4]
 8004cb0:	6859      	ldr	r1, [r3, #4]
 8004cb2:	0b12      	lsrs	r2, r2, #12
 8004cb4:	428a      	cmp	r2, r1
 8004cb6:	d06e      	beq.n	8004d96 <interface_process+0x1ba>
 8004cb8:	605a      	str	r2, [r3, #4]
 8004cba:	7b1b      	ldrb	r3, [r3, #12]
 8004cbc:	2b00      	cmp	r3, #0
 8004cbe:	d06a      	beq.n	8004d96 <interface_process+0x1ba>
 8004cc0:	e01a      	b.n	8004cf8 <interface_process+0x11c>
 8004cc2:	4836      	ldr	r0, [pc, #216]	; (8004d9c <interface_process+0x1c0>)
 8004cc4:	210c      	movs	r1, #12
 8004cc6:	e7d6      	b.n	8004c76 <interface_process+0x9a>
 8004cc8:	2102      	movs	r1, #2
 8004cca:	4834      	ldr	r0, [pc, #208]	; (8004d9c <interface_process+0x1c0>)
 8004ccc:	f7ff fe05 	bl	80048da <ADC_GetFlagStatus>
 8004cd0:	2801      	cmp	r0, #1
 8004cd2:	4605      	mov	r5, r0
 8004cd4:	d15f      	bne.n	8004d96 <interface_process+0x1ba>
 8004cd6:	7923      	ldrb	r3, [r4, #4]
 8004cd8:	3301      	adds	r3, #1
 8004cda:	7123      	strb	r3, [r4, #4]
 8004cdc:	4c36      	ldr	r4, [pc, #216]	; (8004db8 <interface_process+0x1dc>)
 8004cde:	4620      	mov	r0, r4
 8004ce0:	f7ff ff60 	bl	8004ba4 <pot_process>
 8004ce4:	4b35      	ldr	r3, [pc, #212]	; (8004dbc <interface_process+0x1e0>)
 8004ce6:	6862      	ldr	r2, [r4, #4]
 8004ce8:	429a      	cmp	r2, r3
 8004cea:	4b30      	ldr	r3, [pc, #192]	; (8004dac <interface_process+0x1d0>)
 8004cec:	dd07      	ble.n	8004cfe <interface_process+0x122>
 8004cee:	7b1a      	ldrb	r2, [r3, #12]
 8004cf0:	2a00      	cmp	r2, #0
 8004cf2:	d050      	beq.n	8004d96 <interface_process+0x1ba>
 8004cf4:	2200      	movs	r2, #0
 8004cf6:	731a      	strb	r2, [r3, #12]
 8004cf8:	4b31      	ldr	r3, [pc, #196]	; (8004dc0 <interface_process+0x1e4>)
 8004cfa:	701d      	strb	r5, [r3, #0]
 8004cfc:	bd70      	pop	{r4, r5, r6, pc}
 8004cfe:	7b19      	ldrb	r1, [r3, #12]
 8004d00:	b911      	cbnz	r1, 8004d08 <interface_process+0x12c>
 8004d02:	731d      	strb	r5, [r3, #12]
 8004d04:	4b2e      	ldr	r3, [pc, #184]	; (8004dc0 <interface_process+0x1e4>)
 8004d06:	701d      	strb	r5, [r3, #0]
 8004d08:	4b2e      	ldr	r3, [pc, #184]	; (8004dc4 <interface_process+0x1e8>)
 8004d0a:	0292      	lsls	r2, r2, #10
 8004d0c:	fbb2 f2f3 	udiv	r2, r2, r3
 8004d10:	4b26      	ldr	r3, [pc, #152]	; (8004dac <interface_process+0x1d0>)
 8004d12:	3205      	adds	r2, #5
 8004d14:	6899      	ldr	r1, [r3, #8]
 8004d16:	428a      	cmp	r2, r1
 8004d18:	d03d      	beq.n	8004d96 <interface_process+0x1ba>
 8004d1a:	609a      	str	r2, [r3, #8]
 8004d1c:	4b28      	ldr	r3, [pc, #160]	; (8004dc0 <interface_process+0x1e4>)
 8004d1e:	2201      	movs	r2, #1
 8004d20:	701a      	strb	r2, [r3, #0]
 8004d22:	bd70      	pop	{r4, r5, r6, pc}
 8004d24:	2600      	movs	r6, #0
 8004d26:	7126      	strb	r6, [r4, #4]
 8004d28:	481f      	ldr	r0, [pc, #124]	; (8004da8 <interface_process+0x1cc>)
 8004d2a:	88e4      	ldrh	r4, [r4, #6]
 8004d2c:	f7ff fc27 	bl	800457e <GPIO_ReadInputData>
 8004d30:	f000 000f 	and.w	r0, r0, #15
 8004d34:	4284      	cmp	r4, r0
 8004d36:	4d18      	ldr	r5, [pc, #96]	; (8004d98 <interface_process+0x1bc>)
 8004d38:	d103      	bne.n	8004d42 <interface_process+0x166>
 8004d3a:	892b      	ldrh	r3, [r5, #8]
 8004d3c:	3301      	adds	r3, #1
 8004d3e:	812b      	strh	r3, [r5, #8]
 8004d40:	e006      	b.n	8004d50 <interface_process+0x174>
 8004d42:	4819      	ldr	r0, [pc, #100]	; (8004da8 <interface_process+0x1cc>)
 8004d44:	f7ff fc1b 	bl	800457e <GPIO_ReadInputData>
 8004d48:	f000 000f 	and.w	r0, r0, #15
 8004d4c:	80e8      	strh	r0, [r5, #6]
 8004d4e:	812e      	strh	r6, [r5, #8]
 8004d50:	4c11      	ldr	r4, [pc, #68]	; (8004d98 <interface_process+0x1bc>)
 8004d52:	8923      	ldrh	r3, [r4, #8]
 8004d54:	2bc8      	cmp	r3, #200	; 0xc8
 8004d56:	d118      	bne.n	8004d8a <interface_process+0x1ae>
 8004d58:	88e3      	ldrh	r3, [r4, #6]
 8004d5a:	0759      	lsls	r1, r3, #29
 8004d5c:	d502      	bpl.n	8004d64 <interface_process+0x188>
 8004d5e:	f000 f853 	bl	8004e08 <sheppard_enter>
 8004d62:	e001      	b.n	8004d68 <interface_process+0x18c>
 8004d64:	f000 f856 	bl	8004e14 <sheppard_exit>
 8004d68:	88e3      	ldrh	r3, [r4, #6]
 8004d6a:	f013 0001 	ands.w	r0, r3, #1
 8004d6e:	d004      	beq.n	8004d7a <interface_process+0x19e>
 8004d70:	079a      	lsls	r2, r3, #30
 8004d72:	d401      	bmi.n	8004d78 <interface_process+0x19c>
 8004d74:	2002      	movs	r0, #2
 8004d76:	e000      	b.n	8004d7a <interface_process+0x19e>
 8004d78:	2001      	movs	r0, #1
 8004d7a:	f000 f825 	bl	8004dc8 <sheppard_styleset>
 8004d7e:	4b06      	ldr	r3, [pc, #24]	; (8004d98 <interface_process+0x1bc>)
 8004d80:	88db      	ldrh	r3, [r3, #6]
 8004d82:	071b      	lsls	r3, r3, #28
 8004d84:	d401      	bmi.n	8004d8a <interface_process+0x1ae>
 8004d86:	f000 f825 	bl	8004dd4 <sheppard_finalize>
 8004d8a:	4b03      	ldr	r3, [pc, #12]	; (8004d98 <interface_process+0x1bc>)
 8004d8c:	891a      	ldrh	r2, [r3, #8]
 8004d8e:	2ac9      	cmp	r2, #201	; 0xc9
 8004d90:	d901      	bls.n	8004d96 <interface_process+0x1ba>
 8004d92:	22c9      	movs	r2, #201	; 0xc9
 8004d94:	811a      	strh	r2, [r3, #8]
 8004d96:	bd70      	pop	{r4, r5, r6, pc}
 8004d98:	200008ac 	.word	0x200008ac
 8004d9c:	40012400 	.word	0x40012400
 8004da0:	20000ddc 	.word	0x20000ddc
 8004da4:	fff8270f 	.word	0xfff8270f
 8004da8:	40010800 	.word	0x40010800
 8004dac:	20000028 	.word	0x20000028
 8004db0:	20000dec 	.word	0x20000dec
 8004db4:	20000de4 	.word	0x20000de4
 8004db8:	20000dd4 	.word	0x20000dd4
 8004dbc:	000f3a70 	.word	0x000f3a70
 8004dc0:	20000dd0 	.word	0x20000dd0
 8004dc4:	0054053c 	.word	0x0054053c

08004dc8 <sheppard_styleset>:
 8004dc8:	4b01      	ldr	r3, [pc, #4]	; (8004dd0 <sheppard_styleset+0x8>)
 8004dca:	7018      	strb	r0, [r3, #0]
 8004dcc:	4770      	bx	lr
 8004dce:	bf00      	nop
 8004dd0:	20000038 	.word	0x20000038

08004dd4 <sheppard_finalize>:
 8004dd4:	4b0a      	ldr	r3, [pc, #40]	; (8004e00 <sheppard_finalize+0x2c>)
 8004dd6:	785a      	ldrb	r2, [r3, #1]
 8004dd8:	4b0a      	ldr	r3, [pc, #40]	; (8004e04 <sheppard_finalize+0x30>)
 8004dda:	b102      	cbz	r2, 8004dde <sheppard_finalize+0xa>
 8004ddc:	2201      	movs	r2, #1
 8004dde:	731a      	strb	r2, [r3, #12]
 8004de0:	771a      	strb	r2, [r3, #28]
 8004de2:	f883 202c 	strb.w	r2, [r3, #44]	; 0x2c
 8004de6:	f883 203c 	strb.w	r2, [r3, #60]	; 0x3c
 8004dea:	f883 204c 	strb.w	r2, [r3, #76]	; 0x4c
 8004dee:	f883 205c 	strb.w	r2, [r3, #92]	; 0x5c
 8004df2:	f883 206c 	strb.w	r2, [r3, #108]	; 0x6c
 8004df6:	f883 207c 	strb.w	r2, [r3, #124]	; 0x7c
 8004dfa:	f883 208c 	strb.w	r2, [r3, #140]	; 0x8c
 8004dfe:	4770      	bx	lr
 8004e00:	20000038 	.word	0x20000038
 8004e04:	200008b8 	.word	0x200008b8

08004e08 <sheppard_enter>:
 8004e08:	4b01      	ldr	r3, [pc, #4]	; (8004e10 <sheppard_enter+0x8>)
 8004e0a:	2201      	movs	r2, #1
 8004e0c:	705a      	strb	r2, [r3, #1]
 8004e0e:	4770      	bx	lr
 8004e10:	20000038 	.word	0x20000038

08004e14 <sheppard_exit>:
 8004e14:	4b01      	ldr	r3, [pc, #4]	; (8004e1c <sheppard_exit+0x8>)
 8004e16:	2200      	movs	r2, #0
 8004e18:	705a      	strb	r2, [r3, #1]
 8004e1a:	4770      	bx	lr
 8004e1c:	20000038 	.word	0x20000038

08004e20 <TIM6_DAC_IRQHandler>:
 8004e20:	e92d 4ff7 	stmdb	sp!, {r0, r1, r2, r4, r5, r6, r7, r8, r9, sl, fp, lr}
 8004e24:	48ac      	ldr	r0, [pc, #688]	; (80050d8 <TIM6_DAC_IRQHandler+0x2b8>)
 8004e26:	f44f 7180 	mov.w	r1, #256	; 0x100
 8004e2a:	f7ff fbab 	bl	8004584 <GPIO_SetBits>
 8004e2e:	2101      	movs	r1, #1
 8004e30:	48aa      	ldr	r0, [pc, #680]	; (80050dc <TIM6_DAC_IRQHandler+0x2bc>)
 8004e32:	f7ff f9ea 	bl	800420a <TIM_ClearITPendingBit>
 8004e36:	4baa      	ldr	r3, [pc, #680]	; (80050e0 <TIM6_DAC_IRQHandler+0x2c0>)
 8004e38:	f8b3 2090 	ldrh.w	r2, [r3, #144]	; 0x90
 8004e3c:	3201      	adds	r2, #1
 8004e3e:	b292      	uxth	r2, r2
 8004e40:	f5b2 7fa5 	cmp.w	r2, #330	; 0x14a
 8004e44:	f8a3 2090 	strh.w	r2, [r3, #144]	; 0x90
 8004e48:	d13f      	bne.n	8004eca <TIM6_DAC_IRQHandler+0xaa>
 8004e4a:	f893 0092 	ldrb.w	r0, [r3, #146]	; 0x92
 8004e4e:	2200      	movs	r2, #0
 8004e50:	4611      	mov	r1, r2
 8004e52:	f8a3 2090 	strh.w	r2, [r3, #144]	; 0x90
 8004e56:	4aa3      	ldr	r2, [pc, #652]	; (80050e4 <TIM6_DAC_IRQHandler+0x2c4>)
 8004e58:	b1a0      	cbz	r0, 8004e84 <TIM6_DAC_IRQHandler+0x64>
 8004e5a:	f883 1092 	strb.w	r1, [r3, #146]	; 0x92
 8004e5e:	7852      	ldrb	r2, [r2, #1]
 8004e60:	f893 1093 	ldrb.w	r1, [r3, #147]	; 0x93
 8004e64:	eb03 1301 	add.w	r3, r3, r1, lsl #4
 8004e68:	b102      	cbz	r2, 8004e6c <TIM6_DAC_IRQHandler+0x4c>
 8004e6a:	2201      	movs	r2, #1
 8004e6c:	731a      	strb	r2, [r3, #12]
 8004e6e:	4b9c      	ldr	r3, [pc, #624]	; (80050e0 <TIM6_DAC_IRQHandler+0x2c0>)
 8004e70:	f893 2093 	ldrb.w	r2, [r3, #147]	; 0x93
 8004e74:	3201      	adds	r2, #1
 8004e76:	b2d2      	uxtb	r2, r2
 8004e78:	2a09      	cmp	r2, #9
 8004e7a:	f883 2093 	strb.w	r2, [r3, #147]	; 0x93
 8004e7e:	d117      	bne.n	8004eb0 <TIM6_DAC_IRQHandler+0x90>
 8004e80:	2200      	movs	r2, #0
 8004e82:	e013      	b.n	8004eac <TIM6_DAC_IRQHandler+0x8c>
 8004e84:	f893 0094 	ldrb.w	r0, [r3, #148]	; 0x94
 8004e88:	b190      	cbz	r0, 8004eb0 <TIM6_DAC_IRQHandler+0x90>
 8004e8a:	f883 1094 	strb.w	r1, [r3, #148]	; 0x94
 8004e8e:	7852      	ldrb	r2, [r2, #1]
 8004e90:	f893 1093 	ldrb.w	r1, [r3, #147]	; 0x93
 8004e94:	eb03 1301 	add.w	r3, r3, r1, lsl #4
 8004e98:	b102      	cbz	r2, 8004e9c <TIM6_DAC_IRQHandler+0x7c>
 8004e9a:	2201      	movs	r2, #1
 8004e9c:	731a      	strb	r2, [r3, #12]
 8004e9e:	4b90      	ldr	r3, [pc, #576]	; (80050e0 <TIM6_DAC_IRQHandler+0x2c0>)
 8004ea0:	f893 2093 	ldrb.w	r2, [r3, #147]	; 0x93
 8004ea4:	b10a      	cbz	r2, 8004eaa <TIM6_DAC_IRQHandler+0x8a>
 8004ea6:	3a01      	subs	r2, #1
 8004ea8:	e000      	b.n	8004eac <TIM6_DAC_IRQHandler+0x8c>
 8004eaa:	2208      	movs	r2, #8
 8004eac:	f883 2093 	strb.w	r2, [r3, #147]	; 0x93
 8004eb0:	4b8b      	ldr	r3, [pc, #556]	; (80050e0 <TIM6_DAC_IRQHandler+0x2c0>)
 8004eb2:	498c      	ldr	r1, [pc, #560]	; (80050e4 <TIM6_DAC_IRQHandler+0x2c4>)
 8004eb4:	f893 2093 	ldrb.w	r2, [r3, #147]	; 0x93
 8004eb8:	6848      	ldr	r0, [r1, #4]
 8004eba:	6889      	ldr	r1, [r1, #8]
 8004ebc:	eb03 1202 	add.w	r2, r3, r2, lsl #4
 8004ec0:	6050      	str	r0, [r2, #4]
 8004ec2:	6091      	str	r1, [r2, #8]
 8004ec4:	2200      	movs	r2, #0
 8004ec6:	f883 2095 	strb.w	r2, [r3, #149]	; 0x95
 8004eca:	4985      	ldr	r1, [pc, #532]	; (80050e0 <TIM6_DAC_IRQHandler+0x2c0>)
 8004ecc:	f891 3093 	ldrb.w	r3, [r1, #147]	; 0x93
 8004ed0:	460e      	mov	r6, r1
 8004ed2:	eb01 1203 	add.w	r2, r1, r3, lsl #4
 8004ed6:	6854      	ldr	r4, [r2, #4]
 8004ed8:	6890      	ldr	r0, [r2, #8]
 8004eda:	2209      	movs	r2, #9
 8004edc:	e00b      	b.n	8004ef6 <TIM6_DAC_IRQHandler+0xd6>
 8004ede:	2b09      	cmp	r3, #9
 8004ee0:	bf08      	it	eq
 8004ee2:	2300      	moveq	r3, #0
 8004ee4:	f500 4030 	add.w	r0, r0, #45056	; 0xb000
 8004ee8:	eb06 1103 	add.w	r1, r6, r3, lsl #4
 8004eec:	0064      	lsls	r4, r4, #1
 8004eee:	f500 70b9 	add.w	r0, r0, #370	; 0x172
 8004ef2:	604c      	str	r4, [r1, #4]
 8004ef4:	6088      	str	r0, [r1, #8]
 8004ef6:	3a01      	subs	r2, #1
 8004ef8:	3301      	adds	r3, #1
 8004efa:	b2d2      	uxtb	r2, r2
 8004efc:	4978      	ldr	r1, [pc, #480]	; (80050e0 <TIM6_DAC_IRQHandler+0x2c0>)
 8004efe:	b2db      	uxtb	r3, r3
 8004f00:	2a00      	cmp	r2, #0
 8004f02:	d1ec      	bne.n	8004ede <TIM6_DAC_IRQHandler+0xbe>
 8004f04:	2b09      	cmp	r3, #9
 8004f06:	f881 3093 	strb.w	r3, [r1, #147]	; 0x93
 8004f0a:	6848      	ldr	r0, [r1, #4]
 8004f0c:	bf08      	it	eq
 8004f0e:	f881 2093 	strbeq.w	r2, [r1, #147]	; 0x93
 8004f12:	680a      	ldr	r2, [r1, #0]
 8004f14:	694c      	ldr	r4, [r1, #20]
 8004f16:	1882      	adds	r2, r0, r2
 8004f18:	6908      	ldr	r0, [r1, #16]
 8004f1a:	6c4f      	ldr	r7, [r1, #68]	; 0x44
 8004f1c:	eb04 0900 	add.w	r9, r4, r0
 8004f20:	6a08      	ldr	r0, [r1, #32]
 8004f22:	6a4c      	ldr	r4, [r1, #36]	; 0x24
 8004f24:	6d4e      	ldr	r6, [r1, #84]	; 0x54
 8004f26:	eb04 0800 	add.w	r8, r4, r0
 8004f2a:	6b08      	ldr	r0, [r1, #48]	; 0x30
 8004f2c:	6b4c      	ldr	r4, [r1, #52]	; 0x34
 8004f2e:	6e4d      	ldr	r5, [r1, #100]	; 0x64
 8004f30:	eb04 0c00 	add.w	ip, r4, r0
 8004f34:	6c08      	ldr	r0, [r1, #64]	; 0x40
 8004f36:	6f4c      	ldr	r4, [r1, #116]	; 0x74
 8004f38:	183f      	adds	r7, r7, r0
 8004f3a:	6d08      	ldr	r0, [r1, #80]	; 0x50
 8004f3c:	f8d1 a084 	ldr.w	sl, [r1, #132]	; 0x84
 8004f40:	1836      	adds	r6, r6, r0
 8004f42:	6e08      	ldr	r0, [r1, #96]	; 0x60
 8004f44:	600a      	str	r2, [r1, #0]
 8004f46:	182d      	adds	r5, r5, r0
 8004f48:	6f08      	ldr	r0, [r1, #112]	; 0x70
 8004f4a:	f8c1 9010 	str.w	r9, [r1, #16]
 8004f4e:	1824      	adds	r4, r4, r0
 8004f50:	f8d1 0080 	ldr.w	r0, [r1, #128]	; 0x80
 8004f54:	f8c1 8020 	str.w	r8, [r1, #32]
 8004f58:	4450      	add	r0, sl
 8004f5a:	f8c1 c030 	str.w	ip, [r1, #48]	; 0x30
 8004f5e:	640f      	str	r7, [r1, #64]	; 0x40
 8004f60:	650e      	str	r6, [r1, #80]	; 0x50
 8004f62:	660d      	str	r5, [r1, #96]	; 0x60
 8004f64:	670c      	str	r4, [r1, #112]	; 0x70
 8004f66:	f8c1 0080 	str.w	r0, [r1, #128]	; 0x80
 8004f6a:	495e      	ldr	r1, [pc, #376]	; (80050e4 <TIM6_DAC_IRQHandler+0x2c4>)
 8004f6c:	4b5c      	ldr	r3, [pc, #368]	; (80050e0 <TIM6_DAC_IRQHandler+0x2c0>)
 8004f6e:	7809      	ldrb	r1, [r1, #0]
 8004f70:	2901      	cmp	r1, #1
 8004f72:	f040 80bb 	bne.w	80050ec <TIM6_DAC_IRQHandler+0x2cc>
 8004f76:	495c      	ldr	r1, [pc, #368]	; (80050e8 <TIM6_DAC_IRQHandler+0x2c8>)
 8004f78:	0c92      	lsrs	r2, r2, #18
 8004f7a:	f931 b012 	ldrsh.w	fp, [r1, r2, lsl #1]
 8004f7e:	f893 a00c 	ldrb.w	sl, [r3, #12]
 8004f82:	689a      	ldr	r2, [r3, #8]
 8004f84:	fb0b fb0a 	mul.w	fp, fp, sl
 8004f88:	f5a2 2a3c 	sub.w	sl, r2, #770048	; 0xbc000
 8004f8c:	f5aa 6ac6 	sub.w	sl, sl, #1584	; 0x630
 8004f90:	f240 6244 	movw	r2, #1604	; 0x644
 8004f94:	fbba faf2 	udiv	sl, sl, r2
 8004f98:	eb03 0a4a 	add.w	sl, r3, sl, lsl #1
 8004f9c:	ea4f 4999 	mov.w	r9, r9, lsr #18
 8004fa0:	f8cd b004 	str.w	fp, [sp, #4]
 8004fa4:	f931 9019 	ldrsh.w	r9, [r1, r9, lsl #1]
 8004fa8:	f8ba b096 	ldrh.w	fp, [sl, #150]	; 0x96
 8004fac:	f893 a01c 	ldrb.w	sl, [r3, #28]
 8004fb0:	ea4f 4898 	mov.w	r8, r8, lsr #18
 8004fb4:	fb09 f90a 	mul.w	r9, r9, sl
 8004fb8:	f8d3 a018 	ldr.w	sl, [r3, #24]
 8004fbc:	ea4f 4c9c 	mov.w	ip, ip, lsr #18
 8004fc0:	f5aa 2a3c 	sub.w	sl, sl, #770048	; 0xbc000
 8004fc4:	f5aa 6ac6 	sub.w	sl, sl, #1584	; 0x630
 8004fc8:	fbba faf2 	udiv	sl, sl, r2
 8004fcc:	eb03 0a4a 	add.w	sl, r3, sl, lsl #1
 8004fd0:	f8ba a096 	ldrh.w	sl, [sl, #150]	; 0x96
 8004fd4:	0cbf      	lsrs	r7, r7, #18
 8004fd6:	fb0a f909 	mul.w	r9, sl, r9
 8004fda:	f8dd a004 	ldr.w	sl, [sp, #4]
 8004fde:	0cb6      	lsrs	r6, r6, #18
 8004fe0:	fb0b 990a 	mla	r9, fp, sl, r9
 8004fe4:	f931 b018 	ldrsh.w	fp, [r1, r8, lsl #1]
 8004fe8:	f8d3 8028 	ldr.w	r8, [r3, #40]	; 0x28
 8004fec:	f893 a02c 	ldrb.w	sl, [r3, #44]	; 0x2c
 8004ff0:	f5a8 283c 	sub.w	r8, r8, #770048	; 0xbc000
 8004ff4:	f5a8 68c6 	sub.w	r8, r8, #1584	; 0x630
 8004ff8:	fb0b fa0a 	mul.w	sl, fp, sl
 8004ffc:	fbb8 f8f2 	udiv	r8, r8, r2
 8005000:	eb03 0848 	add.w	r8, r3, r8, lsl #1
 8005004:	f8b8 b096 	ldrh.w	fp, [r8, #150]	; 0x96
 8005008:	f893 803c 	ldrb.w	r8, [r3, #60]	; 0x3c
 800500c:	fb0b 9a0a 	mla	sl, fp, sl, r9
 8005010:	f931 b01c 	ldrsh.w	fp, [r1, ip, lsl #1]
 8005014:	f8d3 c038 	ldr.w	ip, [r3, #56]	; 0x38
 8005018:	fb0b fb08 	mul.w	fp, fp, r8
 800501c:	f5ac 2c3c 	sub.w	ip, ip, #770048	; 0xbc000
 8005020:	f5ac 6cc6 	sub.w	ip, ip, #1584	; 0x630
 8005024:	fbbc fcf2 	udiv	ip, ip, r2
 8005028:	eb03 0c4c 	add.w	ip, r3, ip, lsl #1
 800502c:	f8bc 9096 	ldrh.w	r9, [ip, #150]	; 0x96
 8005030:	f893 c04c 	ldrb.w	ip, [r3, #76]	; 0x4c
 8005034:	fb09 ab0b 	mla	fp, r9, fp, sl
 8005038:	f931 9017 	ldrsh.w	r9, [r1, r7, lsl #1]
 800503c:	6c9f      	ldr	r7, [r3, #72]	; 0x48
 800503e:	fb09 f90c 	mul.w	r9, r9, ip
 8005042:	f5a7 273c 	sub.w	r7, r7, #770048	; 0xbc000
 8005046:	f5a7 67c6 	sub.w	r7, r7, #1584	; 0x630
 800504a:	fbb7 f7f2 	udiv	r7, r7, r2
 800504e:	eb03 0747 	add.w	r7, r3, r7, lsl #1
 8005052:	f8b7 7096 	ldrh.w	r7, [r7, #150]	; 0x96
 8005056:	f931 6016 	ldrsh.w	r6, [r1, r6, lsl #1]
 800505a:	fb07 b909 	mla	r9, r7, r9, fp
 800505e:	f893 705c 	ldrb.w	r7, [r3, #92]	; 0x5c
 8005062:	0cad      	lsrs	r5, r5, #18
 8005064:	437e      	muls	r6, r7
 8005066:	6d9f      	ldr	r7, [r3, #88]	; 0x58
 8005068:	f931 5015 	ldrsh.w	r5, [r1, r5, lsl #1]
 800506c:	f5a7 273c 	sub.w	r7, r7, #770048	; 0xbc000
 8005070:	f5a7 67c6 	sub.w	r7, r7, #1584	; 0x630
 8005074:	fbb7 f7f2 	udiv	r7, r7, r2
 8005078:	eb03 0747 	add.w	r7, r3, r7, lsl #1
 800507c:	f8b7 7096 	ldrh.w	r7, [r7, #150]	; 0x96
 8005080:	0ca4      	lsrs	r4, r4, #18
 8005082:	fb07 9606 	mla	r6, r7, r6, r9
 8005086:	f893 706c 	ldrb.w	r7, [r3, #108]	; 0x6c
 800508a:	f931 4014 	ldrsh.w	r4, [r1, r4, lsl #1]
 800508e:	437d      	muls	r5, r7
 8005090:	6e9f      	ldr	r7, [r3, #104]	; 0x68
 8005092:	0c80      	lsrs	r0, r0, #18
 8005094:	f5a7 273c 	sub.w	r7, r7, #770048	; 0xbc000
 8005098:	f5a7 67c6 	sub.w	r7, r7, #1584	; 0x630
 800509c:	fbb7 f7f2 	udiv	r7, r7, r2
 80050a0:	eb03 0747 	add.w	r7, r3, r7, lsl #1
 80050a4:	f8b7 7096 	ldrh.w	r7, [r7, #150]	; 0x96
 80050a8:	f931 1010 	ldrsh.w	r1, [r1, r0, lsl #1]
 80050ac:	fb07 6505 	mla	r5, r7, r5, r6
 80050b0:	f893 607c 	ldrb.w	r6, [r3, #124]	; 0x7c
 80050b4:	4374      	muls	r4, r6
 80050b6:	6f9e      	ldr	r6, [r3, #120]	; 0x78
 80050b8:	f5a6 263c 	sub.w	r6, r6, #770048	; 0xbc000
 80050bc:	f5a6 66c6 	sub.w	r6, r6, #1584	; 0x630
 80050c0:	fbb6 f6f2 	udiv	r6, r6, r2
 80050c4:	eb03 0646 	add.w	r6, r3, r6, lsl #1
 80050c8:	f8b6 6096 	ldrh.w	r6, [r6, #150]	; 0x96
 80050cc:	fb06 5404 	mla	r4, r6, r4, r5
 80050d0:	f893 508c 	ldrb.w	r5, [r3, #140]	; 0x8c
 80050d4:	e199      	b.n	800540a <TIM6_DAC_IRQHandler+0x5ea>
 80050d6:	bf00      	nop
 80050d8:	40011000 	.word	0x40011000
 80050dc:	40001000 	.word	0x40001000
 80050e0:	200008b8 	.word	0x200008b8
 80050e4:	20000038 	.word	0x20000038
 80050e8:	08006bb8 	.word	0x08006bb8
 80050ec:	2900      	cmp	r1, #0
 80050ee:	f040 80c2 	bne.w	8005276 <TIM6_DAC_IRQHandler+0x456>
 80050f2:	49d9      	ldr	r1, [pc, #868]	; (8005458 <TIM6_DAC_IRQHandler+0x638>)
 80050f4:	0c92      	lsrs	r2, r2, #18
 80050f6:	eb01 0242 	add.w	r2, r1, r2, lsl #1
 80050fa:	f893 a00c 	ldrb.w	sl, [r3, #12]
 80050fe:	f9b2 b938 	ldrsh.w	fp, [r2, #2360]	; 0x938
 8005102:	689a      	ldr	r2, [r3, #8]
 8005104:	fb0b fb0a 	mul.w	fp, fp, sl
 8005108:	f5a2 2a3c 	sub.w	sl, r2, #770048	; 0xbc000
 800510c:	f5aa 6ac6 	sub.w	sl, sl, #1584	; 0x630
 8005110:	f240 6244 	movw	r2, #1604	; 0x644
 8005114:	fbba faf2 	udiv	sl, sl, r2
 8005118:	ea4f 4999 	mov.w	r9, r9, lsr #18
 800511c:	eb03 0a4a 	add.w	sl, r3, sl, lsl #1
 8005120:	eb01 0949 	add.w	r9, r1, r9, lsl #1
 8005124:	f8cd b004 	str.w	fp, [sp, #4]
 8005128:	f9b9 9938 	ldrsh.w	r9, [r9, #2360]	; 0x938
 800512c:	f8ba b096 	ldrh.w	fp, [sl, #150]	; 0x96
 8005130:	f893 a01c 	ldrb.w	sl, [r3, #28]
 8005134:	ea4f 4898 	mov.w	r8, r8, lsr #18
 8005138:	fb09 f90a 	mul.w	r9, r9, sl
 800513c:	f8d3 a018 	ldr.w	sl, [r3, #24]
 8005140:	eb01 0848 	add.w	r8, r1, r8, lsl #1
 8005144:	f5aa 2a3c 	sub.w	sl, sl, #770048	; 0xbc000
 8005148:	f5aa 6ac6 	sub.w	sl, sl, #1584	; 0x630
 800514c:	fbba faf2 	udiv	sl, sl, r2
 8005150:	eb03 0a4a 	add.w	sl, r3, sl, lsl #1
 8005154:	f8ba a096 	ldrh.w	sl, [sl, #150]	; 0x96
 8005158:	ea4f 4c9c 	mov.w	ip, ip, lsr #18
 800515c:	fb0a f909 	mul.w	r9, sl, r9
 8005160:	f8dd a004 	ldr.w	sl, [sp, #4]
 8005164:	eb01 0c4c 	add.w	ip, r1, ip, lsl #1
 8005168:	fb0b 990a 	mla	r9, fp, sl, r9
 800516c:	f9b8 b938 	ldrsh.w	fp, [r8, #2360]	; 0x938
 8005170:	f8d3 8028 	ldr.w	r8, [r3, #40]	; 0x28
 8005174:	f893 a02c 	ldrb.w	sl, [r3, #44]	; 0x2c
 8005178:	f5a8 283c 	sub.w	r8, r8, #770048	; 0xbc000
 800517c:	f5a8 68c6 	sub.w	r8, r8, #1584	; 0x630
 8005180:	fb0b fa0a 	mul.w	sl, fp, sl
 8005184:	fbb8 f8f2 	udiv	r8, r8, r2
 8005188:	eb03 0848 	add.w	r8, r3, r8, lsl #1
 800518c:	f8b8 b096 	ldrh.w	fp, [r8, #150]	; 0x96
 8005190:	f893 803c 	ldrb.w	r8, [r3, #60]	; 0x3c
 8005194:	fb0b 9a0a 	mla	sl, fp, sl, r9
 8005198:	f9bc b938 	ldrsh.w	fp, [ip, #2360]	; 0x938
 800519c:	f8d3 c038 	ldr.w	ip, [r3, #56]	; 0x38
 80051a0:	fb0b fb08 	mul.w	fp, fp, r8
 80051a4:	f5ac 2c3c 	sub.w	ip, ip, #770048	; 0xbc000
 80051a8:	f5ac 6cc6 	sub.w	ip, ip, #1584	; 0x630
 80051ac:	fbbc fcf2 	udiv	ip, ip, r2
 80051b0:	eb03 0c4c 	add.w	ip, r3, ip, lsl #1
 80051b4:	f8bc 9096 	ldrh.w	r9, [ip, #150]	; 0x96
 80051b8:	0cbf      	lsrs	r7, r7, #18
 80051ba:	eb01 0747 	add.w	r7, r1, r7, lsl #1
 80051be:	fb09 ab0b 	mla	fp, r9, fp, sl
 80051c2:	f9b7 9938 	ldrsh.w	r9, [r7, #2360]	; 0x938
 80051c6:	6c9f      	ldr	r7, [r3, #72]	; 0x48
 80051c8:	f893 c04c 	ldrb.w	ip, [r3, #76]	; 0x4c
 80051cc:	f5a7 273c 	sub.w	r7, r7, #770048	; 0xbc000
 80051d0:	f5a7 67c6 	sub.w	r7, r7, #1584	; 0x630
 80051d4:	fb09 f90c 	mul.w	r9, r9, ip
 80051d8:	fbb7 f7f2 	udiv	r7, r7, r2
 80051dc:	eb03 0747 	add.w	r7, r3, r7, lsl #1
 80051e0:	f8b7 7096 	ldrh.w	r7, [r7, #150]	; 0x96
 80051e4:	0cb6      	lsrs	r6, r6, #18
 80051e6:	eb01 0646 	add.w	r6, r1, r6, lsl #1
 80051ea:	fb07 b909 	mla	r9, r7, r9, fp
 80051ee:	f9b6 6938 	ldrsh.w	r6, [r6, #2360]	; 0x938
 80051f2:	f893 705c 	ldrb.w	r7, [r3, #92]	; 0x5c
 80051f6:	0cad      	lsrs	r5, r5, #18
 80051f8:	437e      	muls	r6, r7
 80051fa:	6d9f      	ldr	r7, [r3, #88]	; 0x58
 80051fc:	eb01 0545 	add.w	r5, r1, r5, lsl #1
 8005200:	f5a7 273c 	sub.w	r7, r7, #770048	; 0xbc000
 8005204:	f5a7 67c6 	sub.w	r7, r7, #1584	; 0x630
 8005208:	fbb7 f7f2 	udiv	r7, r7, r2
 800520c:	eb03 0747 	add.w	r7, r3, r7, lsl #1
 8005210:	f8b7 7096 	ldrh.w	r7, [r7, #150]	; 0x96
 8005214:	f9b5 5938 	ldrsh.w	r5, [r5, #2360]	; 0x938
 8005218:	fb07 9606 	mla	r6, r7, r6, r9
 800521c:	f893 706c 	ldrb.w	r7, [r3, #108]	; 0x6c
 8005220:	0ca4      	lsrs	r4, r4, #18
 8005222:	437d      	muls	r5, r7
 8005224:	6e9f      	ldr	r7, [r3, #104]	; 0x68
 8005226:	eb01 0444 	add.w	r4, r1, r4, lsl #1
 800522a:	f5a7 273c 	sub.w	r7, r7, #770048	; 0xbc000
 800522e:	f5a7 67c6 	sub.w	r7, r7, #1584	; 0x630
 8005232:	fbb7 f7f2 	udiv	r7, r7, r2
 8005236:	eb03 0747 	add.w	r7, r3, r7, lsl #1
 800523a:	f8b7 7096 	ldrh.w	r7, [r7, #150]	; 0x96
 800523e:	f9b4 4938 	ldrsh.w	r4, [r4, #2360]	; 0x938
 8005242:	fb07 6505 	mla	r5, r7, r5, r6
 8005246:	f893 607c 	ldrb.w	r6, [r3, #124]	; 0x7c
 800524a:	0c80      	lsrs	r0, r0, #18
 800524c:	4374      	muls	r4, r6
 800524e:	6f9e      	ldr	r6, [r3, #120]	; 0x78
 8005250:	eb01 0140 	add.w	r1, r1, r0, lsl #1
 8005254:	f5a6 263c 	sub.w	r6, r6, #770048	; 0xbc000
 8005258:	f5a6 66c6 	sub.w	r6, r6, #1584	; 0x630
 800525c:	fbb6 f6f2 	udiv	r6, r6, r2
 8005260:	eb03 0646 	add.w	r6, r3, r6, lsl #1
 8005264:	f8b6 6096 	ldrh.w	r6, [r6, #150]	; 0x96
 8005268:	f9b1 1938 	ldrsh.w	r1, [r1, #2360]	; 0x938
 800526c:	fb06 5404 	mla	r4, r6, r4, r5
 8005270:	f893 508c 	ldrb.w	r5, [r3, #140]	; 0x8c
 8005274:	e0c9      	b.n	800540a <TIM6_DAC_IRQHandler+0x5ea>
 8005276:	2902      	cmp	r1, #2
 8005278:	f040 80d7 	bne.w	800542a <TIM6_DAC_IRQHandler+0x60a>
 800527c:	4977      	ldr	r1, [pc, #476]	; (800545c <TIM6_DAC_IRQHandler+0x63c>)
 800527e:	f3c2 428b 	ubfx	r2, r2, #18, #12
 8005282:	eb01 0242 	add.w	r2, r1, r2, lsl #1
 8005286:	f893 a00c 	ldrb.w	sl, [r3, #12]
 800528a:	f9b2 b178 	ldrsh.w	fp, [r2, #376]	; 0x178
 800528e:	689a      	ldr	r2, [r3, #8]
 8005290:	fb0b fb0a 	mul.w	fp, fp, sl
 8005294:	f5a2 2a3c 	sub.w	sl, r2, #770048	; 0xbc000
 8005298:	f5aa 6ac6 	sub.w	sl, sl, #1584	; 0x630
 800529c:	f240 6244 	movw	r2, #1604	; 0x644
 80052a0:	fbba faf2 	udiv	sl, sl, r2
 80052a4:	f3c9 498b 	ubfx	r9, r9, #18, #12
 80052a8:	eb03 0a4a 	add.w	sl, r3, sl, lsl #1
 80052ac:	eb01 0949 	add.w	r9, r1, r9, lsl #1
 80052b0:	f8cd b004 	str.w	fp, [sp, #4]
 80052b4:	f9b9 9178 	ldrsh.w	r9, [r9, #376]	; 0x178
 80052b8:	f8ba b096 	ldrh.w	fp, [sl, #150]	; 0x96
 80052bc:	f893 a01c 	ldrb.w	sl, [r3, #28]
 80052c0:	f3c8 488b 	ubfx	r8, r8, #18, #12
 80052c4:	fb09 f90a 	mul.w	r9, r9, sl
 80052c8:	f8d3 a018 	ldr.w	sl, [r3, #24]
 80052cc:	eb01 0848 	add.w	r8, r1, r8, lsl #1
 80052d0:	f5aa 2a3c 	sub.w	sl, sl, #770048	; 0xbc000
 80052d4:	f5aa 6ac6 	sub.w	sl, sl, #1584	; 0x630
 80052d8:	fbba faf2 	udiv	sl, sl, r2
 80052dc:	eb03 0a4a 	add.w	sl, r3, sl, lsl #1
 80052e0:	f8ba a096 	ldrh.w	sl, [sl, #150]	; 0x96
 80052e4:	f3cc 4c8b 	ubfx	ip, ip, #18, #12
 80052e8:	fb0a f909 	mul.w	r9, sl, r9
 80052ec:	f8dd a004 	ldr.w	sl, [sp, #4]
 80052f0:	eb01 0c4c 	add.w	ip, r1, ip, lsl #1
 80052f4:	fb0b 990a 	mla	r9, fp, sl, r9
 80052f8:	f9b8 b178 	ldrsh.w	fp, [r8, #376]	; 0x178
 80052fc:	f8d3 8028 	ldr.w	r8, [r3, #40]	; 0x28
 8005300:	f893 a02c 	ldrb.w	sl, [r3, #44]	; 0x2c
 8005304:	f5a8 283c 	sub.w	r8, r8, #770048	; 0xbc000
 8005308:	f5a8 68c6 	sub.w	r8, r8, #1584	; 0x630
 800530c:	fb0b fa0a 	mul.w	sl, fp, sl
 8005310:	fbb8 f8f2 	udiv	r8, r8, r2
 8005314:	eb03 0848 	add.w	r8, r3, r8, lsl #1
 8005318:	f8b8 b096 	ldrh.w	fp, [r8, #150]	; 0x96
 800531c:	f893 803c 	ldrb.w	r8, [r3, #60]	; 0x3c
 8005320:	fb0b 9a0a 	mla	sl, fp, sl, r9
 8005324:	f9bc b178 	ldrsh.w	fp, [ip, #376]	; 0x178
 8005328:	f8d3 c038 	ldr.w	ip, [r3, #56]	; 0x38
 800532c:	fb0b fb08 	mul.w	fp, fp, r8
 8005330:	f5ac 2c3c 	sub.w	ip, ip, #770048	; 0xbc000
 8005334:	f5ac 6cc6 	sub.w	ip, ip, #1584	; 0x630
 8005338:	fbbc fcf2 	udiv	ip, ip, r2
 800533c:	eb03 0c4c 	add.w	ip, r3, ip, lsl #1
 8005340:	f8bc 9096 	ldrh.w	r9, [ip, #150]	; 0x96
 8005344:	f3c7 478b 	ubfx	r7, r7, #18, #12
 8005348:	eb01 0747 	add.w	r7, r1, r7, lsl #1
 800534c:	fb09 ab0b 	mla	fp, r9, fp, sl
 8005350:	f9b7 9178 	ldrsh.w	r9, [r7, #376]	; 0x178
 8005354:	6c9f      	ldr	r7, [r3, #72]	; 0x48
 8005356:	f893 c04c 	ldrb.w	ip, [r3, #76]	; 0x4c
 800535a:	f5a7 273c 	sub.w	r7, r7, #770048	; 0xbc000
 800535e:	f5a7 67c6 	sub.w	r7, r7, #1584	; 0x630
 8005362:	fb09 f90c 	mul.w	r9, r9, ip
 8005366:	fbb7 f7f2 	udiv	r7, r7, r2
 800536a:	eb03 0747 	add.w	r7, r3, r7, lsl #1
 800536e:	f8b7 7096 	ldrh.w	r7, [r7, #150]	; 0x96
 8005372:	f3c6 468b 	ubfx	r6, r6, #18, #12
 8005376:	eb01 0646 	add.w	r6, r1, r6, lsl #1
 800537a:	fb07 b909 	mla	r9, r7, r9, fp
 800537e:	f9b6 6178 	ldrsh.w	r6, [r6, #376]	; 0x178
 8005382:	f893 705c 	ldrb.w	r7, [r3, #92]	; 0x5c
 8005386:	f3c5 458b 	ubfx	r5, r5, #18, #12
 800538a:	437e      	muls	r6, r7
 800538c:	6d9f      	ldr	r7, [r3, #88]	; 0x58
 800538e:	eb01 0545 	add.w	r5, r1, r5, lsl #1
 8005392:	f5a7 273c 	sub.w	r7, r7, #770048	; 0xbc000
 8005396:	f5a7 67c6 	sub.w	r7, r7, #1584	; 0x630
 800539a:	fbb7 f7f2 	udiv	r7, r7, r2
 800539e:	eb03 0747 	add.w	r7, r3, r7, lsl #1
 80053a2:	f8b7 7096 	ldrh.w	r7, [r7, #150]	; 0x96
 80053a6:	f9b5 5178 	ldrsh.w	r5, [r5, #376]	; 0x178
 80053aa:	fb07 9606 	mla	r6, r7, r6, r9
 80053ae:	f893 706c 	ldrb.w	r7, [r3, #108]	; 0x6c
 80053b2:	f3c4 448b 	ubfx	r4, r4, #18, #12
 80053b6:	437d      	muls	r5, r7
 80053b8:	6e9f      	ldr	r7, [r3, #104]	; 0x68
 80053ba:	eb01 0444 	add.w	r4, r1, r4, lsl #1
 80053be:	f5a7 273c 	sub.w	r7, r7, #770048	; 0xbc000
 80053c2:	f5a7 67c6 	sub.w	r7, r7, #1584	; 0x630
 80053c6:	fbb7 f7f2 	udiv	r7, r7, r2
 80053ca:	eb03 0747 	add.w	r7, r3, r7, lsl #1
 80053ce:	f8b7 7096 	ldrh.w	r7, [r7, #150]	; 0x96
 80053d2:	f9b4 4178 	ldrsh.w	r4, [r4, #376]	; 0x178
 80053d6:	fb07 6505 	mla	r5, r7, r5, r6
 80053da:	f893 607c 	ldrb.w	r6, [r3, #124]	; 0x7c
 80053de:	f3c0 408b 	ubfx	r0, r0, #18, #12
 80053e2:	4374      	muls	r4, r6
 80053e4:	6f9e      	ldr	r6, [r3, #120]	; 0x78
 80053e6:	eb01 0140 	add.w	r1, r1, r0, lsl #1
 80053ea:	f5a6 263c 	sub.w	r6, r6, #770048	; 0xbc000
 80053ee:	f5a6 66c6 	sub.w	r6, r6, #1584	; 0x630
 80053f2:	fbb6 f6f2 	udiv	r6, r6, r2
 80053f6:	eb03 0646 	add.w	r6, r3, r6, lsl #1
 80053fa:	f8b6 6096 	ldrh.w	r6, [r6, #150]	; 0x96
 80053fe:	f9b1 1178 	ldrsh.w	r1, [r1, #376]	; 0x178
 8005402:	fb06 5404 	mla	r4, r6, r4, r5
 8005406:	f893 508c 	ldrb.w	r5, [r3, #140]	; 0x8c
 800540a:	f8d3 0088 	ldr.w	r0, [r3, #136]	; 0x88
 800540e:	4369      	muls	r1, r5
 8005410:	f5a0 203c 	sub.w	r0, r0, #770048	; 0xbc000
 8005414:	f5a0 60c6 	sub.w	r0, r0, #1584	; 0x630
 8005418:	fbb0 f2f2 	udiv	r2, r0, r2
 800541c:	eb03 0342 	add.w	r3, r3, r2, lsl #1
 8005420:	f8b3 3096 	ldrh.w	r3, [r3, #150]	; 0x96
 8005424:	fb03 4301 	mla	r3, r3, r1, r4
 8005428:	e000      	b.n	800542c <TIM6_DAC_IRQHandler+0x60c>
 800542a:	2300      	movs	r3, #0
 800542c:	4a0c      	ldr	r2, [pc, #48]	; (8005460 <TIM6_DAC_IRQHandler+0x640>)
 800542e:	480d      	ldr	r0, [pc, #52]	; (8005464 <TIM6_DAC_IRQHandler+0x644>)
 8005430:	68d2      	ldr	r2, [r2, #12]
 8005432:	fb93 f3f2 	sdiv	r3, r3, r2
 8005436:	2213      	movs	r2, #19
 8005438:	fb93 f3f2 	sdiv	r3, r3, r2
 800543c:	4a0a      	ldr	r2, [pc, #40]	; (8005468 <TIM6_DAC_IRQHandler+0x648>)
 800543e:	f503 6100 	add.w	r1, r3, #2048	; 0x800
 8005442:	6091      	str	r1, [r2, #8]
 8005444:	f5c3 6300 	rsb	r3, r3, #2048	; 0x800
 8005448:	f44f 7180 	mov.w	r1, #256	; 0x100
 800544c:	6153      	str	r3, [r2, #20]
 800544e:	b003      	add	sp, #12
 8005450:	e8bd 4ff0 	ldmia.w	sp!, {r4, r5, r6, r7, r8, r9, sl, fp, lr}
 8005454:	f7ff b898 	b.w	8004588 <GPIO_ResetBits>
 8005458:	0800e280 	.word	0x0800e280
 800545c:	08016a40 	.word	0x08016a40
 8005460:	20000038 	.word	0x20000038
 8005464:	40011000 	.word	0x40011000
 8005468:	40007400 	.word	0x40007400
 800546c:	00000000 	.word	0x00000000

08005470 <sheppard_envelopeset>:
 8005470:	28ff      	cmp	r0, #255	; 0xff
 8005472:	e92d 43f8 	stmdb	sp!, {r3, r4, r5, r6, r7, r8, r9, lr}
 8005476:	4604      	mov	r4, r0
 8005478:	4616      	mov	r6, r2
 800547a:	461f      	mov	r7, r3
 800547c:	d826      	bhi.n	80054cc <sheppard_envelopeset+0x5c>
 800547e:	4610      	mov	r0, r2
 8005480:	4619      	mov	r1, r3
 8005482:	f000 fb31 	bl	8005ae8 <__adddf3>
 8005486:	4632      	mov	r2, r6
 8005488:	463b      	mov	r3, r7
 800548a:	f000 fcdf 	bl	8005e4c <__aeabi_dmul>
 800548e:	4e22      	ldr	r6, [pc, #136]	; (8005518 <sheppard_envelopeset+0xa8>)
 8005490:	4680      	mov	r8, r0
 8005492:	4689      	mov	r9, r1
 8005494:	2500      	movs	r5, #0
 8005496:	1b2b      	subs	r3, r5, r4
 8005498:	1b60      	subs	r0, r4, r5
 800549a:	4358      	muls	r0, r3
 800549c:	f000 fc70 	bl	8005d80 <__aeabi_i2d>
 80054a0:	4642      	mov	r2, r8
 80054a2:	464b      	mov	r3, r9
 80054a4:	f000 fdfc 	bl	80060a0 <__aeabi_ddiv>
 80054a8:	f000 f906 	bl	80056b8 <exp>
 80054ac:	a318      	add	r3, pc, #96	; (adr r3, 8005510 <sheppard_envelopeset+0xa0>)
 80054ae:	e9d3 2300 	ldrd	r2, r3, [r3]
 80054b2:	f000 fccb 	bl	8005e4c <__aeabi_dmul>
 80054b6:	f000 ff8b 	bl	80063d0 <__aeabi_d2uiz>
 80054ba:	3501      	adds	r5, #1
 80054bc:	f826 0f02 	strh.w	r0, [r6, #2]!
 80054c0:	f7ff f892 	bl	80045e8 <main_fly>
 80054c4:	f5b5 7f80 	cmp.w	r5, #256	; 0x100
 80054c8:	d1e5      	bne.n	8005496 <sheppard_envelopeset+0x26>
 80054ca:	e00a      	b.n	80054e2 <sheppard_envelopeset+0x72>
 80054cc:	4913      	ldr	r1, [pc, #76]	; (800551c <sheppard_envelopeset+0xac>)
 80054ce:	2300      	movs	r3, #0
 80054d0:	f640 72ff 	movw	r2, #4095	; 0xfff
 80054d4:	525a      	strh	r2, [r3, r1]
 80054d6:	3302      	adds	r3, #2
 80054d8:	f5b3 7f00 	cmp.w	r3, #512	; 0x200
 80054dc:	d1fa      	bne.n	80054d4 <sheppard_envelopeset+0x64>
 80054de:	e000      	b.n	80054e2 <sheppard_envelopeset+0x72>
 80054e0:	3c1c      	subs	r4, #28
 80054e2:	2c00      	cmp	r4, #0
 80054e4:	dcfc      	bgt.n	80054e0 <sheppard_envelopeset+0x70>
 80054e6:	480d      	ldr	r0, [pc, #52]	; (800551c <sheppard_envelopeset+0xac>)
 80054e8:	2300      	movs	r3, #0
 80054ea:	f104 011c 	add.w	r1, r4, #28
 80054ee:	461a      	mov	r2, r3
 80054f0:	eb00 0444 	add.w	r4, r0, r4, lsl #1
 80054f4:	18e0      	adds	r0, r4, r3
 80054f6:	8f00      	ldrh	r0, [r0, #56]	; 0x38
 80054f8:	311c      	adds	r1, #28
 80054fa:	3338      	adds	r3, #56	; 0x38
 80054fc:	29ff      	cmp	r1, #255	; 0xff
 80054fe:	4402      	add	r2, r0
 8005500:	ddf8      	ble.n	80054f4 <sheppard_envelopeset+0x84>
 8005502:	4b07      	ldr	r3, [pc, #28]	; (8005520 <sheppard_envelopeset+0xb0>)
 8005504:	60da      	str	r2, [r3, #12]
 8005506:	e8bd 83f8 	ldmia.w	sp!, {r3, r4, r5, r6, r7, r8, r9, pc}
 800550a:	bf00      	nop
 800550c:	f3af 8000 	nop.w
 8005510:	00000000 	.word	0x00000000
 8005514:	40affe00 	.word	0x40affe00
 8005518:	2000094c 	.word	0x2000094c
 800551c:	2000094e 	.word	0x2000094e
 8005520:	20000038 	.word	0x20000038
 8005524:	f3af 8000 	nop.w

08005528 <sheppard_speedset>:
 8005528:	f24b 1371 	movw	r3, #45425	; 0xb171
 800552c:	4a03      	ldr	r2, [pc, #12]	; (800553c <sheppard_speedset+0x14>)
 800552e:	18c3      	adds	r3, r0, r3
 8005530:	4293      	cmp	r3, r2
 8005532:	bf9c      	itt	ls
 8005534:	4b02      	ldrls	r3, [pc, #8]	; (8005540 <sheppard_speedset+0x18>)
 8005536:	f8c3 0298 	strls.w	r0, [r3, #664]	; 0x298
 800553a:	4770      	bx	lr
 800553c:	000162e2 	.word	0x000162e2
 8005540:	200008b8 	.word	0x200008b8

08005544 <sheppard_process>:
 8005544:	b510      	push	{r4, lr}
 8005546:	4b1b      	ldr	r3, [pc, #108]	; (80055b4 <sheppard_process+0x70>)
 8005548:	f893 2095 	ldrb.w	r2, [r3, #149]	; 0x95
 800554c:	2a00      	cmp	r2, #0
 800554e:	d12f      	bne.n	80055b0 <sheppard_process+0x6c>
 8005550:	4919      	ldr	r1, [pc, #100]	; (80055b8 <sheppard_process+0x74>)
 8005552:	f8d3 0298 	ldr.w	r0, [r3, #664]	; 0x298
 8005556:	688a      	ldr	r2, [r1, #8]
 8005558:	1882      	adds	r2, r0, r2
 800555a:	4818      	ldr	r0, [pc, #96]	; (80055bc <sheppard_process+0x78>)
 800555c:	608a      	str	r2, [r1, #8]
 800555e:	4282      	cmp	r2, r0
 8005560:	d807      	bhi.n	8005572 <sheppard_process+0x2e>
 8005562:	f502 4230 	add.w	r2, r2, #45056	; 0xb000
 8005566:	f502 72b9 	add.w	r2, r2, #370	; 0x172
 800556a:	608a      	str	r2, [r1, #8]
 800556c:	2201      	movs	r2, #1
 800556e:	f883 2092 	strb.w	r2, [r3, #146]	; 0x92
 8005572:	688b      	ldr	r3, [r1, #8]
 8005574:	4a12      	ldr	r2, [pc, #72]	; (80055c0 <sheppard_process+0x7c>)
 8005576:	4293      	cmp	r3, r2
 8005578:	d909      	bls.n	800558e <sheppard_process+0x4a>
 800557a:	4a0f      	ldr	r2, [pc, #60]	; (80055b8 <sheppard_process+0x74>)
 800557c:	f5a3 4330 	sub.w	r3, r3, #45056	; 0xb000
 8005580:	f5a3 73b9 	sub.w	r3, r3, #370	; 0x172
 8005584:	6093      	str	r3, [r2, #8]
 8005586:	4b0b      	ldr	r3, [pc, #44]	; (80055b4 <sheppard_process+0x70>)
 8005588:	2201      	movs	r2, #1
 800558a:	f883 2094 	strb.w	r2, [r3, #148]	; 0x94
 800558e:	4c0a      	ldr	r4, [pc, #40]	; (80055b8 <sheppard_process+0x74>)
 8005590:	68a0      	ldr	r0, [r4, #8]
 8005592:	f000 fbe5 	bl	8005d60 <__aeabi_ui2d>
 8005596:	2200      	movs	r2, #0
 8005598:	4b0a      	ldr	r3, [pc, #40]	; (80055c4 <sheppard_process+0x80>)
 800559a:	f000 fc57 	bl	8005e4c <__aeabi_dmul>
 800559e:	f000 f88b 	bl	80056b8 <exp>
 80055a2:	f000 ff15 	bl	80063d0 <__aeabi_d2uiz>
 80055a6:	4b03      	ldr	r3, [pc, #12]	; (80055b4 <sheppard_process+0x70>)
 80055a8:	2201      	movs	r2, #1
 80055aa:	6060      	str	r0, [r4, #4]
 80055ac:	f883 2095 	strb.w	r2, [r3, #149]	; 0x95
 80055b0:	bd10      	pop	{r4, pc}
 80055b2:	bf00      	nop
 80055b4:	200008b8 	.word	0x200008b8
 80055b8:	20000038 	.word	0x20000038
 80055bc:	000bc62f 	.word	0x000bc62f
 80055c0:	000c77a1 	.word	0x000c77a1
 80055c4:	3ef00000 	.word	0x3ef00000

080055c8 <sheppard_init>:
 80055c8:	b510      	push	{r4, lr}
 80055ca:	4833      	ldr	r0, [pc, #204]	; (8005698 <sheppard_init+0xd0>)
 80055cc:	4c33      	ldr	r4, [pc, #204]	; (800569c <sheppard_init+0xd4>)
 80055ce:	b088      	sub	sp, #32
 80055d0:	2300      	movs	r3, #0
 80055d2:	f640 71ff 	movw	r1, #4095	; 0xfff
 80055d6:	5319      	strh	r1, [r3, r4]
 80055d8:	5219      	strh	r1, [r3, r0]
 80055da:	3302      	adds	r3, #2
 80055dc:	f5b3 7f00 	cmp.w	r3, #512	; 0x200
 80055e0:	4a2f      	ldr	r2, [pc, #188]	; (80056a0 <sheppard_init+0xd8>)
 80055e2:	d1f8      	bne.n	80055d6 <sheppard_init+0xe>
 80055e4:	4613      	mov	r3, r2
 80055e6:	f102 0090 	add.w	r0, r2, #144	; 0x90
 80055ea:	2101      	movs	r1, #1
 80055ec:	7319      	strb	r1, [r3, #12]
 80055ee:	3310      	adds	r3, #16
 80055f0:	4283      	cmp	r3, r0
 80055f2:	d1fb      	bne.n	80055ec <sheppard_init+0x24>
 80055f4:	4b2b      	ldr	r3, [pc, #172]	; (80056a4 <sheppard_init+0xdc>)
 80055f6:	f04f 5000 	mov.w	r0, #536870912	; 0x20000000
 80055fa:	6053      	str	r3, [r2, #4]
 80055fc:	4b2a      	ldr	r3, [pc, #168]	; (80056a8 <sheppard_init+0xe0>)
 80055fe:	2101      	movs	r1, #1
 8005600:	6093      	str	r3, [r2, #8]
 8005602:	f7ff f8cd 	bl	80047a0 <RCC_APB1PeriphClockCmd>
 8005606:	2004      	movs	r0, #4
 8005608:	2101      	movs	r1, #1
 800560a:	f7ff f8bd 	bl	8004788 <RCC_APB2PeriphClockCmd>
 800560e:	2010      	movs	r0, #16
 8005610:	2101      	movs	r1, #1
 8005612:	f7ff f8c5 	bl	80047a0 <RCC_APB1PeriphClockCmd>
 8005616:	2400      	movs	r4, #0
 8005618:	2330      	movs	r3, #48	; 0x30
 800561a:	a907      	add	r1, sp, #28
 800561c:	4823      	ldr	r0, [pc, #140]	; (80056ac <sheppard_init+0xe4>)
 800561e:	f8ad 301c 	strh.w	r3, [sp, #28]
 8005622:	f88d 401f 	strb.w	r4, [sp, #31]
 8005626:	f7fe ff55 	bl	80044d4 <GPIO_Init>
 800562a:	4668      	mov	r0, sp
 800562c:	f7fe ffc6 	bl	80045bc <DAC_StructInit>
 8005630:	2304      	movs	r3, #4
 8005632:	4620      	mov	r0, r4
 8005634:	4669      	mov	r1, sp
 8005636:	9300      	str	r3, [sp, #0]
 8005638:	f7fe ffa8 	bl	800458c <DAC_Init>
 800563c:	4669      	mov	r1, sp
 800563e:	2010      	movs	r0, #16
 8005640:	f7fe ffa4 	bl	800458c <DAC_Init>
 8005644:	a804      	add	r0, sp, #16
 8005646:	f7fe fdb7 	bl	80041b8 <TIM_TimeBaseStructInit>
 800564a:	f240 23d5 	movw	r3, #725	; 0x2d5
 800564e:	4818      	ldr	r0, [pc, #96]	; (80056b0 <sheppard_init+0xe8>)
 8005650:	a904      	add	r1, sp, #16
 8005652:	f8ad 3014 	strh.w	r3, [sp, #20]
 8005656:	f7fe fd65 	bl	8004124 <TIM_TimeBaseInit>
 800565a:	4815      	ldr	r0, [pc, #84]	; (80056b0 <sheppard_init+0xe8>)
 800565c:	2120      	movs	r1, #32
 800565e:	f7fe fdc9 	bl	80041f4 <TIM_SelectOutputTrigger>
 8005662:	2101      	movs	r1, #1
 8005664:	460a      	mov	r2, r1
 8005666:	4812      	ldr	r0, [pc, #72]	; (80056b0 <sheppard_init+0xe8>)
 8005668:	f7fe fdbb 	bl	80041e2 <TIM_ITConfig>
 800566c:	4620      	mov	r0, r4
 800566e:	2101      	movs	r1, #1
 8005670:	f7fe ffaa 	bl	80045c8 <DAC_Cmd>
 8005674:	2010      	movs	r0, #16
 8005676:	2101      	movs	r1, #1
 8005678:	f7fe ffa6 	bl	80045c8 <DAC_Cmd>
 800567c:	480c      	ldr	r0, [pc, #48]	; (80056b0 <sheppard_init+0xe8>)
 800567e:	2101      	movs	r1, #1
 8005680:	f7fe fda3 	bl	80041ca <TIM_Cmd>
 8005684:	4b0b      	ldr	r3, [pc, #44]	; (80056b4 <sheppard_init+0xec>)
 8005686:	22f0      	movs	r2, #240	; 0xf0
 8005688:	f883 2336 	strb.w	r2, [r3, #822]	; 0x336
 800568c:	f44f 0280 	mov.w	r2, #4194304	; 0x400000
 8005690:	605a      	str	r2, [r3, #4]
 8005692:	b008      	add	sp, #32
 8005694:	bd10      	pop	{r4, pc}
 8005696:	bf00      	nop
 8005698:	2000094e 	.word	0x2000094e
 800569c:	20000b54 	.word	0x20000b54
 80056a0:	200008b8 	.word	0x200008b8
 80056a4:	0001fb3f 	.word	0x0001fb3f
 80056a8:	000bc630 	.word	0x000bc630
 80056ac:	40010800 	.word	0x40010800
 80056b0:	40001000 	.word	0x40001000
 80056b4:	e000e100 	.word	0xe000e100

080056b8 <exp>:
 80056b8:	e92d 43d0 	stmdb	sp!, {r4, r6, r7, r8, r9, lr}
 80056bc:	b08a      	sub	sp, #40	; 0x28
 80056be:	4606      	mov	r6, r0
 80056c0:	460f      	mov	r7, r1
 80056c2:	f000 f871 	bl	80057a8 <__ieee754_exp>
 80056c6:	4c36      	ldr	r4, [pc, #216]	; (80057a0 <exp+0xe8>)
 80056c8:	4680      	mov	r8, r0
 80056ca:	f994 3000 	ldrsb.w	r3, [r4]
 80056ce:	4689      	mov	r9, r1
 80056d0:	3301      	adds	r3, #1
 80056d2:	d035      	beq.n	8005740 <exp+0x88>
 80056d4:	4630      	mov	r0, r6
 80056d6:	4639      	mov	r1, r7
 80056d8:	f000 f9f6 	bl	8005ac8 <finite>
 80056dc:	2800      	cmp	r0, #0
 80056de:	d02f      	beq.n	8005740 <exp+0x88>
 80056e0:	4630      	mov	r0, r6
 80056e2:	4639      	mov	r1, r7
 80056e4:	a32a      	add	r3, pc, #168	; (adr r3, 8005790 <exp+0xd8>)
 80056e6:	e9d3 2300 	ldrd	r2, r3, [r3]
 80056ea:	f000 fe3f 	bl	800636c <__aeabi_dcmpgt>
 80056ee:	2800      	cmp	r0, #0
 80056f0:	d12b      	bne.n	800574a <exp+0x92>
 80056f2:	4630      	mov	r0, r6
 80056f4:	4639      	mov	r1, r7
 80056f6:	a328      	add	r3, pc, #160	; (adr r3, 8005798 <exp+0xe0>)
 80056f8:	e9d3 2300 	ldrd	r2, r3, [r3]
 80056fc:	f000 fe18 	bl	8006330 <__aeabi_dcmplt>
 8005700:	b1f0      	cbz	r0, 8005740 <exp+0x88>
 8005702:	2304      	movs	r3, #4
 8005704:	9300      	str	r3, [sp, #0]
 8005706:	4b27      	ldr	r3, [pc, #156]	; (80057a4 <exp+0xec>)
 8005708:	f994 1000 	ldrsb.w	r1, [r4]
 800570c:	9301      	str	r3, [sp, #4]
 800570e:	2300      	movs	r3, #0
 8005710:	2200      	movs	r2, #0
 8005712:	9308      	str	r3, [sp, #32]
 8005714:	2300      	movs	r3, #0
 8005716:	2902      	cmp	r1, #2
 8005718:	e9cd 6704 	strd	r6, r7, [sp, #16]
 800571c:	e9cd 6702 	strd	r6, r7, [sp, #8]
 8005720:	e9cd 2306 	strd	r2, r3, [sp, #24]
 8005724:	d02e      	beq.n	8005784 <exp+0xcc>
 8005726:	4668      	mov	r0, sp
 8005728:	f000 f9d6 	bl	8005ad8 <matherr>
 800572c:	2800      	cmp	r0, #0
 800572e:	d029      	beq.n	8005784 <exp+0xcc>
 8005730:	9b08      	ldr	r3, [sp, #32]
 8005732:	b11b      	cbz	r3, 800573c <exp+0x84>
 8005734:	f000 fe6c 	bl	8006410 <__errno>
 8005738:	9b08      	ldr	r3, [sp, #32]
 800573a:	6003      	str	r3, [r0, #0]
 800573c:	e9dd 8906 	ldrd	r8, r9, [sp, #24]
 8005740:	4640      	mov	r0, r8
 8005742:	4649      	mov	r1, r9
 8005744:	b00a      	add	sp, #40	; 0x28
 8005746:	e8bd 83d0 	ldmia.w	sp!, {r4, r6, r7, r8, r9, pc}
 800574a:	2303      	movs	r3, #3
 800574c:	9300      	str	r3, [sp, #0]
 800574e:	4b15      	ldr	r3, [pc, #84]	; (80057a4 <exp+0xec>)
 8005750:	7821      	ldrb	r1, [r4, #0]
 8005752:	9301      	str	r3, [sp, #4]
 8005754:	2300      	movs	r3, #0
 8005756:	9308      	str	r3, [sp, #32]
 8005758:	e9cd 6704 	strd	r6, r7, [sp, #16]
 800575c:	e9cd 6702 	strd	r6, r7, [sp, #8]
 8005760:	b941      	cbnz	r1, 8005774 <exp+0xbc>
 8005762:	f64f 73ff 	movw	r3, #65535	; 0xffff
 8005766:	f04f 4260 	mov.w	r2, #3758096384	; 0xe0000000
 800576a:	f2c4 73ef 	movt	r3, #18415	; 0x47ef
 800576e:	e9cd 2306 	strd	r2, r3, [sp, #24]
 8005772:	e7d8      	b.n	8005726 <exp+0x6e>
 8005774:	2300      	movs	r3, #0
 8005776:	2200      	movs	r2, #0
 8005778:	f6c7 73f0 	movt	r3, #32752	; 0x7ff0
 800577c:	2902      	cmp	r1, #2
 800577e:	e9cd 2306 	strd	r2, r3, [sp, #24]
 8005782:	d1d0      	bne.n	8005726 <exp+0x6e>
 8005784:	f000 fe44 	bl	8006410 <__errno>
 8005788:	2322      	movs	r3, #34	; 0x22
 800578a:	6003      	str	r3, [r0, #0]
 800578c:	e7d0      	b.n	8005730 <exp+0x78>
 800578e:	bf00      	nop
 8005790:	fefa39ef 	.word	0xfefa39ef
 8005794:	40862e42 	.word	0x40862e42
 8005798:	d52d3051 	.word	0xd52d3051
 800579c:	c0874910 	.word	0xc0874910
 80057a0:	20000048 	.word	0x20000048
 80057a4:	08018bb8 	.word	0x08018bb8

080057a8 <__ieee754_exp>:
 80057a8:	e92d 4ff0 	stmdb	sp!, {r4, r5, r6, r7, r8, r9, sl, fp, lr}
 80057ac:	460f      	mov	r7, r1
 80057ae:	f642 6141 	movw	r1, #11841	; 0x2e41
 80057b2:	f027 4300 	bic.w	r3, r7, #2147483648	; 0x80000000
 80057b6:	f2c4 0186 	movt	r1, #16518	; 0x4086
 80057ba:	0ffc      	lsrs	r4, r7, #31
 80057bc:	428b      	cmp	r3, r1
 80057be:	b083      	sub	sp, #12
 80057c0:	4606      	mov	r6, r0
 80057c2:	d914      	bls.n	80057ee <__ieee754_exp+0x46>
 80057c4:	f64f 71ff 	movw	r1, #65535	; 0xffff
 80057c8:	f6c7 71ef 	movt	r1, #32751	; 0x7fef
 80057cc:	428b      	cmp	r3, r1
 80057ce:	d935      	bls.n	800583c <__ieee754_exp+0x94>
 80057d0:	f027 417f 	bic.w	r1, r7, #4278190080	; 0xff000000
 80057d4:	f421 0370 	bic.w	r3, r1, #15728640	; 0xf00000
 80057d8:	4303      	orrs	r3, r0
 80057da:	f040 8105 	bne.w	80059e8 <__ieee754_exp+0x240>
 80057de:	2c00      	cmp	r4, #0
 80057e0:	f040 813d 	bne.w	8005a5e <__ieee754_exp+0x2b6>
 80057e4:	4630      	mov	r0, r6
 80057e6:	4639      	mov	r1, r7
 80057e8:	b003      	add	sp, #12
 80057ea:	e8bd 8ff0 	ldmia.w	sp!, {r4, r5, r6, r7, r8, r9, sl, fp, pc}
 80057ee:	f642 6242 	movw	r2, #11842	; 0x2e42
 80057f2:	f6c3 72d6 	movt	r2, #16342	; 0x3fd6
 80057f6:	4293      	cmp	r3, r2
 80057f8:	f200 80d9 	bhi.w	80059ae <__ieee754_exp+0x206>
 80057fc:	f64f 72ff 	movw	r2, #65535	; 0xffff
 8005800:	f6c3 622f 	movt	r2, #15919	; 0x3e2f
 8005804:	4293      	cmp	r3, r2
 8005806:	f200 80ec 	bhi.w	80059e2 <__ieee754_exp+0x23a>
 800580a:	a397      	add	r3, pc, #604	; (adr r3, 8005a68 <__ieee754_exp+0x2c0>)
 800580c:	e9d3 2300 	ldrd	r2, r3, [r3]
 8005810:	4639      	mov	r1, r7
 8005812:	f000 f969 	bl	8005ae8 <__adddf3>
 8005816:	2300      	movs	r3, #0
 8005818:	2200      	movs	r2, #0
 800581a:	f6c3 73f0 	movt	r3, #16368	; 0x3ff0
 800581e:	f000 fda5 	bl	800636c <__aeabi_dcmpgt>
 8005822:	2800      	cmp	r0, #0
 8005824:	d050      	beq.n	80058c8 <__ieee754_exp+0x120>
 8005826:	2300      	movs	r3, #0
 8005828:	4630      	mov	r0, r6
 800582a:	4639      	mov	r1, r7
 800582c:	2200      	movs	r2, #0
 800582e:	f6c3 73f0 	movt	r3, #16368	; 0x3ff0
 8005832:	f000 f959 	bl	8005ae8 <__adddf3>
 8005836:	4606      	mov	r6, r0
 8005838:	460f      	mov	r7, r1
 800583a:	e7d3      	b.n	80057e4 <__ieee754_exp+0x3c>
 800583c:	4639      	mov	r1, r7
 800583e:	a38c      	add	r3, pc, #560	; (adr r3, 8005a70 <__ieee754_exp+0x2c8>)
 8005840:	e9d3 2300 	ldrd	r2, r3, [r3]
 8005844:	f000 fd92 	bl	800636c <__aeabi_dcmpgt>
 8005848:	2800      	cmp	r0, #0
 800584a:	f040 80d5 	bne.w	80059f8 <__ieee754_exp+0x250>
 800584e:	4630      	mov	r0, r6
 8005850:	4639      	mov	r1, r7
 8005852:	a389      	add	r3, pc, #548	; (adr r3, 8005a78 <__ieee754_exp+0x2d0>)
 8005854:	e9d3 2300 	ldrd	r2, r3, [r3]
 8005858:	f000 fd6a 	bl	8006330 <__aeabi_dcmplt>
 800585c:	2800      	cmp	r0, #0
 800585e:	f040 80fe 	bne.w	8005a5e <__ieee754_exp+0x2b6>
 8005862:	a387      	add	r3, pc, #540	; (adr r3, 8005a80 <__ieee754_exp+0x2d8>)
 8005864:	e9d3 2300 	ldrd	r2, r3, [r3]
 8005868:	4630      	mov	r0, r6
 800586a:	4639      	mov	r1, r7
 800586c:	f000 faee 	bl	8005e4c <__aeabi_dmul>
 8005870:	4b93      	ldr	r3, [pc, #588]	; (8005ac0 <__ieee754_exp+0x318>)
 8005872:	eb03 04c4 	add.w	r4, r3, r4, lsl #3
 8005876:	e9d4 2308 	ldrd	r2, r3, [r4, #32]
 800587a:	f000 f935 	bl	8005ae8 <__adddf3>
 800587e:	f000 fd7f 	bl	8006380 <__aeabi_d2iz>
 8005882:	4680      	mov	r8, r0
 8005884:	f000 fa7c 	bl	8005d80 <__aeabi_i2d>
 8005888:	a37f      	add	r3, pc, #508	; (adr r3, 8005a88 <__ieee754_exp+0x2e0>)
 800588a:	e9d3 2300 	ldrd	r2, r3, [r3]
 800588e:	4604      	mov	r4, r0
 8005890:	460d      	mov	r5, r1
 8005892:	f000 fadb 	bl	8005e4c <__aeabi_dmul>
 8005896:	4602      	mov	r2, r0
 8005898:	460b      	mov	r3, r1
 800589a:	4630      	mov	r0, r6
 800589c:	4639      	mov	r1, r7
 800589e:	f000 f921 	bl	8005ae4 <__aeabi_dsub>
 80058a2:	a37b      	add	r3, pc, #492	; (adr r3, 8005a90 <__ieee754_exp+0x2e8>)
 80058a4:	e9d3 2300 	ldrd	r2, r3, [r3]
 80058a8:	e9cd 0100 	strd	r0, r1, [sp]
 80058ac:	4620      	mov	r0, r4
 80058ae:	4629      	mov	r1, r5
 80058b0:	f000 facc 	bl	8005e4c <__aeabi_dmul>
 80058b4:	4682      	mov	sl, r0
 80058b6:	468b      	mov	fp, r1
 80058b8:	e9dd 0100 	ldrd	r0, r1, [sp]
 80058bc:	4652      	mov	r2, sl
 80058be:	465b      	mov	r3, fp
 80058c0:	f000 f910 	bl	8005ae4 <__aeabi_dsub>
 80058c4:	4606      	mov	r6, r0
 80058c6:	460f      	mov	r7, r1
 80058c8:	4632      	mov	r2, r6
 80058ca:	463b      	mov	r3, r7
 80058cc:	4630      	mov	r0, r6
 80058ce:	4639      	mov	r1, r7
 80058d0:	f000 fabc 	bl	8005e4c <__aeabi_dmul>
 80058d4:	a370      	add	r3, pc, #448	; (adr r3, 8005a98 <__ieee754_exp+0x2f0>)
 80058d6:	e9d3 2300 	ldrd	r2, r3, [r3]
 80058da:	4604      	mov	r4, r0
 80058dc:	460d      	mov	r5, r1
 80058de:	f000 fab5 	bl	8005e4c <__aeabi_dmul>
 80058e2:	a36f      	add	r3, pc, #444	; (adr r3, 8005aa0 <__ieee754_exp+0x2f8>)
 80058e4:	e9d3 2300 	ldrd	r2, r3, [r3]
 80058e8:	f000 f8fc 	bl	8005ae4 <__aeabi_dsub>
 80058ec:	4622      	mov	r2, r4
 80058ee:	462b      	mov	r3, r5
 80058f0:	f000 faac 	bl	8005e4c <__aeabi_dmul>
 80058f4:	a36c      	add	r3, pc, #432	; (adr r3, 8005aa8 <__ieee754_exp+0x300>)
 80058f6:	e9d3 2300 	ldrd	r2, r3, [r3]
 80058fa:	f000 f8f5 	bl	8005ae8 <__adddf3>
 80058fe:	4622      	mov	r2, r4
 8005900:	462b      	mov	r3, r5
 8005902:	f000 faa3 	bl	8005e4c <__aeabi_dmul>
 8005906:	a36a      	add	r3, pc, #424	; (adr r3, 8005ab0 <__ieee754_exp+0x308>)
 8005908:	e9d3 2300 	ldrd	r2, r3, [r3]
 800590c:	f000 f8ea 	bl	8005ae4 <__aeabi_dsub>
 8005910:	4622      	mov	r2, r4
 8005912:	462b      	mov	r3, r5
 8005914:	f000 fa9a 	bl	8005e4c <__aeabi_dmul>
 8005918:	a367      	add	r3, pc, #412	; (adr r3, 8005ab8 <__ieee754_exp+0x310>)
 800591a:	e9d3 2300 	ldrd	r2, r3, [r3]
 800591e:	f000 f8e3 	bl	8005ae8 <__adddf3>
 8005922:	4622      	mov	r2, r4
 8005924:	462b      	mov	r3, r5
 8005926:	f000 fa91 	bl	8005e4c <__aeabi_dmul>
 800592a:	4602      	mov	r2, r0
 800592c:	460b      	mov	r3, r1
 800592e:	4630      	mov	r0, r6
 8005930:	4639      	mov	r1, r7
 8005932:	f000 f8d7 	bl	8005ae4 <__aeabi_dsub>
 8005936:	4604      	mov	r4, r0
 8005938:	460d      	mov	r5, r1
 800593a:	f1b8 0f00 	cmp.w	r8, #0
 800593e:	d065      	beq.n	8005a0c <__ieee754_exp+0x264>
 8005940:	4602      	mov	r2, r0
 8005942:	460b      	mov	r3, r1
 8005944:	4630      	mov	r0, r6
 8005946:	4639      	mov	r1, r7
 8005948:	f000 fa80 	bl	8005e4c <__aeabi_dmul>
 800594c:	4622      	mov	r2, r4
 800594e:	4606      	mov	r6, r0
 8005950:	460f      	mov	r7, r1
 8005952:	462b      	mov	r3, r5
 8005954:	2000      	movs	r0, #0
 8005956:	f04f 4180 	mov.w	r1, #1073741824	; 0x40000000
 800595a:	f000 f8c3 	bl	8005ae4 <__aeabi_dsub>
 800595e:	4602      	mov	r2, r0
 8005960:	460b      	mov	r3, r1
 8005962:	4630      	mov	r0, r6
 8005964:	4639      	mov	r1, r7
 8005966:	f000 fb9b 	bl	80060a0 <__aeabi_ddiv>
 800596a:	4602      	mov	r2, r0
 800596c:	460b      	mov	r3, r1
 800596e:	4650      	mov	r0, sl
 8005970:	4659      	mov	r1, fp
 8005972:	f000 f8b7 	bl	8005ae4 <__aeabi_dsub>
 8005976:	e9dd 2300 	ldrd	r2, r3, [sp]
 800597a:	f000 f8b3 	bl	8005ae4 <__aeabi_dsub>
 800597e:	460b      	mov	r3, r1
 8005980:	2100      	movs	r1, #0
 8005982:	4602      	mov	r2, r0
 8005984:	f6c3 71f0 	movt	r1, #16368	; 0x3ff0
 8005988:	2000      	movs	r0, #0
 800598a:	f000 f8ab 	bl	8005ae4 <__aeabi_dsub>
 800598e:	f46f 737f 	mvn.w	r3, #1020	; 0x3fc
 8005992:	4598      	cmp	r8, r3
 8005994:	da5e      	bge.n	8005a54 <__ieee754_exp+0x2ac>
 8005996:	f508 787a 	add.w	r8, r8, #1000	; 0x3e8
 800599a:	eb01 5108 	add.w	r1, r1, r8, lsl #20
 800599e:	2200      	movs	r2, #0
 80059a0:	f04f 73b8 	mov.w	r3, #24117248	; 0x1700000
 80059a4:	f000 fa52 	bl	8005e4c <__aeabi_dmul>
 80059a8:	4606      	mov	r6, r0
 80059aa:	460f      	mov	r7, r1
 80059ac:	e71a      	b.n	80057e4 <__ieee754_exp+0x3c>
 80059ae:	f24a 22b1 	movw	r2, #41649	; 0xa2b1
 80059b2:	f6c3 72f0 	movt	r2, #16368	; 0x3ff0
 80059b6:	4293      	cmp	r3, r2
 80059b8:	f63f af53 	bhi.w	8005862 <__ieee754_exp+0xba>
 80059bc:	4d40      	ldr	r5, [pc, #256]	; (8005ac0 <__ieee754_exp+0x318>)
 80059be:	4639      	mov	r1, r7
 80059c0:	eb05 05c4 	add.w	r5, r5, r4, lsl #3
 80059c4:	e9d5 2300 	ldrd	r2, r3, [r5]
 80059c8:	f000 f88c 	bl	8005ae4 <__aeabi_dsub>
 80059cc:	e9d5 ab04 	ldrd	sl, fp, [r5, #16]
 80059d0:	f1c4 0800 	rsb	r8, r4, #0
 80059d4:	ebc4 0408 	rsb	r4, r4, r8
 80059d8:	e9cd 0100 	strd	r0, r1, [sp]
 80059dc:	f104 0801 	add.w	r8, r4, #1
 80059e0:	e76a      	b.n	80058b8 <__ieee754_exp+0x110>
 80059e2:	f04f 0800 	mov.w	r8, #0
 80059e6:	e76f      	b.n	80058c8 <__ieee754_exp+0x120>
 80059e8:	4639      	mov	r1, r7
 80059ea:	463b      	mov	r3, r7
 80059ec:	4602      	mov	r2, r0
 80059ee:	f000 f87b 	bl	8005ae8 <__adddf3>
 80059f2:	4606      	mov	r6, r0
 80059f4:	460f      	mov	r7, r1
 80059f6:	e6f5      	b.n	80057e4 <__ieee754_exp+0x3c>
 80059f8:	a11b      	add	r1, pc, #108	; (adr r1, 8005a68 <__ieee754_exp+0x2c0>)
 80059fa:	e9d1 0100 	ldrd	r0, r1, [r1]
 80059fe:	4602      	mov	r2, r0
 8005a00:	460b      	mov	r3, r1
 8005a02:	f000 fa23 	bl	8005e4c <__aeabi_dmul>
 8005a06:	4606      	mov	r6, r0
 8005a08:	460f      	mov	r7, r1
 8005a0a:	e6eb      	b.n	80057e4 <__ieee754_exp+0x3c>
 8005a0c:	4630      	mov	r0, r6
 8005a0e:	4639      	mov	r1, r7
 8005a10:	4622      	mov	r2, r4
 8005a12:	462b      	mov	r3, r5
 8005a14:	f000 fa1a 	bl	8005e4c <__aeabi_dmul>
 8005a18:	2200      	movs	r2, #0
 8005a1a:	4680      	mov	r8, r0
 8005a1c:	4689      	mov	r9, r1
 8005a1e:	f04f 4380 	mov.w	r3, #1073741824	; 0x40000000
 8005a22:	4620      	mov	r0, r4
 8005a24:	4629      	mov	r1, r5
 8005a26:	f000 f85d 	bl	8005ae4 <__aeabi_dsub>
 8005a2a:	4602      	mov	r2, r0
 8005a2c:	460b      	mov	r3, r1
 8005a2e:	4640      	mov	r0, r8
 8005a30:	4649      	mov	r1, r9
 8005a32:	f000 fb35 	bl	80060a0 <__aeabi_ddiv>
 8005a36:	4632      	mov	r2, r6
 8005a38:	463b      	mov	r3, r7
 8005a3a:	f000 f853 	bl	8005ae4 <__aeabi_dsub>
 8005a3e:	460b      	mov	r3, r1
 8005a40:	2100      	movs	r1, #0
 8005a42:	4602      	mov	r2, r0
 8005a44:	f6c3 71f0 	movt	r1, #16368	; 0x3ff0
 8005a48:	2000      	movs	r0, #0
 8005a4a:	f000 f84b 	bl	8005ae4 <__aeabi_dsub>
 8005a4e:	4606      	mov	r6, r0
 8005a50:	460f      	mov	r7, r1
 8005a52:	e6c7      	b.n	80057e4 <__ieee754_exp+0x3c>
 8005a54:	eb01 5108 	add.w	r1, r1, r8, lsl #20
 8005a58:	4606      	mov	r6, r0
 8005a5a:	460f      	mov	r7, r1
 8005a5c:	e6c2      	b.n	80057e4 <__ieee754_exp+0x3c>
 8005a5e:	2600      	movs	r6, #0
 8005a60:	2700      	movs	r7, #0
 8005a62:	e6bf      	b.n	80057e4 <__ieee754_exp+0x3c>
 8005a64:	f3af 8000 	nop.w
 8005a68:	8800759c 	.word	0x8800759c
 8005a6c:	7e37e43c 	.word	0x7e37e43c
 8005a70:	fefa39ef 	.word	0xfefa39ef
 8005a74:	40862e42 	.word	0x40862e42
 8005a78:	d52d3051 	.word	0xd52d3051
 8005a7c:	c0874910 	.word	0xc0874910
 8005a80:	652b82fe 	.word	0x652b82fe
 8005a84:	3ff71547 	.word	0x3ff71547
 8005a88:	fee00000 	.word	0xfee00000
 8005a8c:	3fe62e42 	.word	0x3fe62e42
 8005a90:	35793c76 	.word	0x35793c76
 8005a94:	3dea39ef 	.word	0x3dea39ef
 8005a98:	72bea4d0 	.word	0x72bea4d0
 8005a9c:	3e663769 	.word	0x3e663769
 8005aa0:	c5d26bf1 	.word	0xc5d26bf1
 8005aa4:	3ebbbd41 	.word	0x3ebbbd41
 8005aa8:	af25de2c 	.word	0xaf25de2c
 8005aac:	3f11566a 	.word	0x3f11566a
 8005ab0:	16bebd93 	.word	0x16bebd93
 8005ab4:	3f66c16c 	.word	0x3f66c16c
 8005ab8:	5555553e 	.word	0x5555553e
 8005abc:	3fc55555 	.word	0x3fc55555
 8005ac0:	08018bc0 	.word	0x08018bc0
 8005ac4:	f3af 8000 	nop.w

08005ac8 <finite>:
 8005ac8:	f021 4000 	bic.w	r0, r1, #2147483648	; 0x80000000
 8005acc:	f100 4000 	add.w	r0, r0, #2147483648	; 0x80000000
 8005ad0:	f500 1080 	add.w	r0, r0, #1048576	; 0x100000
 8005ad4:	0fc0      	lsrs	r0, r0, #31
 8005ad6:	4770      	bx	lr

08005ad8 <matherr>:
 8005ad8:	2000      	movs	r0, #0
 8005ada:	4770      	bx	lr

08005adc <__aeabi_drsub>:
 8005adc:	f081 4100 	eor.w	r1, r1, #2147483648	; 0x80000000
 8005ae0:	e002      	b.n	8005ae8 <__adddf3>
 8005ae2:	bf00      	nop

08005ae4 <__aeabi_dsub>:
 8005ae4:	f083 4300 	eor.w	r3, r3, #2147483648	; 0x80000000

08005ae8 <__adddf3>:
 8005ae8:	b530      	push	{r4, r5, lr}
 8005aea:	ea4f 0441 	mov.w	r4, r1, lsl #1
 8005aee:	ea4f 0543 	mov.w	r5, r3, lsl #1
 8005af2:	ea94 0f05 	teq	r4, r5
 8005af6:	bf08      	it	eq
 8005af8:	ea90 0f02 	teqeq	r0, r2
 8005afc:	bf1f      	itttt	ne
 8005afe:	ea54 0c00 	orrsne.w	ip, r4, r0
 8005b02:	ea55 0c02 	orrsne.w	ip, r5, r2
 8005b06:	ea7f 5c64 	mvnsne.w	ip, r4, asr #21
 8005b0a:	ea7f 5c65 	mvnsne.w	ip, r5, asr #21
 8005b0e:	f000 80e2 	beq.w	8005cd6 <__adddf3+0x1ee>
 8005b12:	ea4f 5454 	mov.w	r4, r4, lsr #21
 8005b16:	ebd4 5555 	rsbs	r5, r4, r5, lsr #21
 8005b1a:	bfb8      	it	lt
 8005b1c:	426d      	neglt	r5, r5
 8005b1e:	dd0c      	ble.n	8005b3a <__adddf3+0x52>
 8005b20:	442c      	add	r4, r5
 8005b22:	ea80 0202 	eor.w	r2, r0, r2
 8005b26:	ea81 0303 	eor.w	r3, r1, r3
 8005b2a:	ea82 0000 	eor.w	r0, r2, r0
 8005b2e:	ea83 0101 	eor.w	r1, r3, r1
 8005b32:	ea80 0202 	eor.w	r2, r0, r2
 8005b36:	ea81 0303 	eor.w	r3, r1, r3
 8005b3a:	2d36      	cmp	r5, #54	; 0x36
 8005b3c:	bf88      	it	hi
 8005b3e:	bd30      	pophi	{r4, r5, pc}
 8005b40:	f011 4f00 	tst.w	r1, #2147483648	; 0x80000000
 8005b44:	ea4f 3101 	mov.w	r1, r1, lsl #12
 8005b48:	f44f 1c80 	mov.w	ip, #1048576	; 0x100000
 8005b4c:	ea4c 3111 	orr.w	r1, ip, r1, lsr #12
 8005b50:	d002      	beq.n	8005b58 <__adddf3+0x70>
 8005b52:	4240      	negs	r0, r0
 8005b54:	eb61 0141 	sbc.w	r1, r1, r1, lsl #1
 8005b58:	f013 4f00 	tst.w	r3, #2147483648	; 0x80000000
 8005b5c:	ea4f 3303 	mov.w	r3, r3, lsl #12
 8005b60:	ea4c 3313 	orr.w	r3, ip, r3, lsr #12
 8005b64:	d002      	beq.n	8005b6c <__adddf3+0x84>
 8005b66:	4252      	negs	r2, r2
 8005b68:	eb63 0343 	sbc.w	r3, r3, r3, lsl #1
 8005b6c:	ea94 0f05 	teq	r4, r5
 8005b70:	f000 80a7 	beq.w	8005cc2 <__adddf3+0x1da>
 8005b74:	f1a4 0401 	sub.w	r4, r4, #1
 8005b78:	f1d5 0e20 	rsbs	lr, r5, #32
 8005b7c:	db0d      	blt.n	8005b9a <__adddf3+0xb2>
 8005b7e:	fa02 fc0e 	lsl.w	ip, r2, lr
 8005b82:	fa22 f205 	lsr.w	r2, r2, r5
 8005b86:	1880      	adds	r0, r0, r2
 8005b88:	f141 0100 	adc.w	r1, r1, #0
 8005b8c:	fa03 f20e 	lsl.w	r2, r3, lr
 8005b90:	1880      	adds	r0, r0, r2
 8005b92:	fa43 f305 	asr.w	r3, r3, r5
 8005b96:	4159      	adcs	r1, r3
 8005b98:	e00e      	b.n	8005bb8 <__adddf3+0xd0>
 8005b9a:	f1a5 0520 	sub.w	r5, r5, #32
 8005b9e:	f10e 0e20 	add.w	lr, lr, #32
 8005ba2:	2a01      	cmp	r2, #1
 8005ba4:	fa03 fc0e 	lsl.w	ip, r3, lr
 8005ba8:	bf28      	it	cs
 8005baa:	f04c 0c02 	orrcs.w	ip, ip, #2
 8005bae:	fa43 f305 	asr.w	r3, r3, r5
 8005bb2:	18c0      	adds	r0, r0, r3
 8005bb4:	eb51 71e3 	adcs.w	r1, r1, r3, asr #31
 8005bb8:	f001 4500 	and.w	r5, r1, #2147483648	; 0x80000000
 8005bbc:	d507      	bpl.n	8005bce <__adddf3+0xe6>
 8005bbe:	f04f 0e00 	mov.w	lr, #0
 8005bc2:	f1dc 0c00 	rsbs	ip, ip, #0
 8005bc6:	eb7e 0000 	sbcs.w	r0, lr, r0
 8005bca:	eb6e 0101 	sbc.w	r1, lr, r1
 8005bce:	f5b1 1f80 	cmp.w	r1, #1048576	; 0x100000
 8005bd2:	d31b      	bcc.n	8005c0c <__adddf3+0x124>
 8005bd4:	f5b1 1f00 	cmp.w	r1, #2097152	; 0x200000
 8005bd8:	d30c      	bcc.n	8005bf4 <__adddf3+0x10c>
 8005bda:	0849      	lsrs	r1, r1, #1
 8005bdc:	ea5f 0030 	movs.w	r0, r0, rrx
 8005be0:	ea4f 0c3c 	mov.w	ip, ip, rrx
 8005be4:	f104 0401 	add.w	r4, r4, #1
 8005be8:	ea4f 5244 	mov.w	r2, r4, lsl #21
 8005bec:	f512 0f80 	cmn.w	r2, #4194304	; 0x400000
 8005bf0:	f080 809a 	bcs.w	8005d28 <__adddf3+0x240>
 8005bf4:	f1bc 4f00 	cmp.w	ip, #2147483648	; 0x80000000
 8005bf8:	bf08      	it	eq
 8005bfa:	ea5f 0c50 	movseq.w	ip, r0, lsr #1
 8005bfe:	f150 0000 	adcs.w	r0, r0, #0
 8005c02:	eb41 5104 	adc.w	r1, r1, r4, lsl #20
 8005c06:	ea41 0105 	orr.w	r1, r1, r5
 8005c0a:	bd30      	pop	{r4, r5, pc}
 8005c0c:	ea5f 0c4c 	movs.w	ip, ip, lsl #1
 8005c10:	4140      	adcs	r0, r0
 8005c12:	eb41 0101 	adc.w	r1, r1, r1
 8005c16:	f411 1f80 	tst.w	r1, #1048576	; 0x100000
 8005c1a:	f1a4 0401 	sub.w	r4, r4, #1
 8005c1e:	d1e9      	bne.n	8005bf4 <__adddf3+0x10c>
 8005c20:	f091 0f00 	teq	r1, #0
 8005c24:	bf04      	itt	eq
 8005c26:	4601      	moveq	r1, r0
 8005c28:	2000      	moveq	r0, #0
 8005c2a:	fab1 f381 	clz	r3, r1
 8005c2e:	bf08      	it	eq
 8005c30:	3320      	addeq	r3, #32
 8005c32:	f1a3 030b 	sub.w	r3, r3, #11
 8005c36:	f1b3 0220 	subs.w	r2, r3, #32
 8005c3a:	da0c      	bge.n	8005c56 <__adddf3+0x16e>
 8005c3c:	320c      	adds	r2, #12
 8005c3e:	dd08      	ble.n	8005c52 <__adddf3+0x16a>
 8005c40:	f102 0c14 	add.w	ip, r2, #20
 8005c44:	f1c2 020c 	rsb	r2, r2, #12
 8005c48:	fa01 f00c 	lsl.w	r0, r1, ip
 8005c4c:	fa21 f102 	lsr.w	r1, r1, r2
 8005c50:	e00c      	b.n	8005c6c <__adddf3+0x184>
 8005c52:	f102 0214 	add.w	r2, r2, #20
 8005c56:	bfd8      	it	le
 8005c58:	f1c2 0c20 	rsble	ip, r2, #32
 8005c5c:	fa01 f102 	lsl.w	r1, r1, r2
 8005c60:	fa20 fc0c 	lsr.w	ip, r0, ip
 8005c64:	bfdc      	itt	le
 8005c66:	ea41 010c 	orrle.w	r1, r1, ip
 8005c6a:	4090      	lslle	r0, r2
 8005c6c:	1ae4      	subs	r4, r4, r3
 8005c6e:	bfa2      	ittt	ge
 8005c70:	eb01 5104 	addge.w	r1, r1, r4, lsl #20
 8005c74:	4329      	orrge	r1, r5
 8005c76:	bd30      	popge	{r4, r5, pc}
 8005c78:	ea6f 0404 	mvn.w	r4, r4
 8005c7c:	3c1f      	subs	r4, #31
 8005c7e:	da1c      	bge.n	8005cba <__adddf3+0x1d2>
 8005c80:	340c      	adds	r4, #12
 8005c82:	dc0e      	bgt.n	8005ca2 <__adddf3+0x1ba>
 8005c84:	f104 0414 	add.w	r4, r4, #20
 8005c88:	f1c4 0220 	rsb	r2, r4, #32
 8005c8c:	fa20 f004 	lsr.w	r0, r0, r4
 8005c90:	fa01 f302 	lsl.w	r3, r1, r2
 8005c94:	ea40 0003 	orr.w	r0, r0, r3
 8005c98:	fa21 f304 	lsr.w	r3, r1, r4
 8005c9c:	ea45 0103 	orr.w	r1, r5, r3
 8005ca0:	bd30      	pop	{r4, r5, pc}
 8005ca2:	f1c4 040c 	rsb	r4, r4, #12
 8005ca6:	f1c4 0220 	rsb	r2, r4, #32
 8005caa:	fa20 f002 	lsr.w	r0, r0, r2
 8005cae:	fa01 f304 	lsl.w	r3, r1, r4
 8005cb2:	ea40 0003 	orr.w	r0, r0, r3
 8005cb6:	4629      	mov	r1, r5
 8005cb8:	bd30      	pop	{r4, r5, pc}
 8005cba:	fa21 f004 	lsr.w	r0, r1, r4
 8005cbe:	4629      	mov	r1, r5
 8005cc0:	bd30      	pop	{r4, r5, pc}
 8005cc2:	f094 0f00 	teq	r4, #0
 8005cc6:	f483 1380 	eor.w	r3, r3, #1048576	; 0x100000
 8005cca:	bf06      	itte	eq
 8005ccc:	f481 1180 	eoreq.w	r1, r1, #1048576	; 0x100000
 8005cd0:	3401      	addeq	r4, #1
 8005cd2:	3d01      	subne	r5, #1
 8005cd4:	e74e      	b.n	8005b74 <__adddf3+0x8c>
 8005cd6:	ea7f 5c64 	mvns.w	ip, r4, asr #21
 8005cda:	bf18      	it	ne
 8005cdc:	ea7f 5c65 	mvnsne.w	ip, r5, asr #21
 8005ce0:	d029      	beq.n	8005d36 <__adddf3+0x24e>
 8005ce2:	ea94 0f05 	teq	r4, r5
 8005ce6:	bf08      	it	eq
 8005ce8:	ea90 0f02 	teqeq	r0, r2
 8005cec:	d005      	beq.n	8005cfa <__adddf3+0x212>
 8005cee:	ea54 0c00 	orrs.w	ip, r4, r0
 8005cf2:	bf04      	itt	eq
 8005cf4:	4619      	moveq	r1, r3
 8005cf6:	4610      	moveq	r0, r2
 8005cf8:	bd30      	pop	{r4, r5, pc}
 8005cfa:	ea91 0f03 	teq	r1, r3
 8005cfe:	bf1e      	ittt	ne
 8005d00:	2100      	movne	r1, #0
 8005d02:	2000      	movne	r0, #0
 8005d04:	bd30      	popne	{r4, r5, pc}
 8005d06:	ea5f 5c54 	movs.w	ip, r4, lsr #21
 8005d0a:	d105      	bne.n	8005d18 <__adddf3+0x230>
 8005d0c:	0040      	lsls	r0, r0, #1
 8005d0e:	4149      	adcs	r1, r1
 8005d10:	bf28      	it	cs
 8005d12:	f041 4100 	orrcs.w	r1, r1, #2147483648	; 0x80000000
 8005d16:	bd30      	pop	{r4, r5, pc}
 8005d18:	f514 0480 	adds.w	r4, r4, #4194304	; 0x400000
 8005d1c:	bf3c      	itt	cc
 8005d1e:	f501 1180 	addcc.w	r1, r1, #1048576	; 0x100000
 8005d22:	bd30      	popcc	{r4, r5, pc}
 8005d24:	f001 4500 	and.w	r5, r1, #2147483648	; 0x80000000
 8005d28:	f045 41fe 	orr.w	r1, r5, #2130706432	; 0x7f000000
 8005d2c:	f441 0170 	orr.w	r1, r1, #15728640	; 0xf00000
 8005d30:	f04f 0000 	mov.w	r0, #0
 8005d34:	bd30      	pop	{r4, r5, pc}
 8005d36:	ea7f 5c64 	mvns.w	ip, r4, asr #21
 8005d3a:	bf1a      	itte	ne
 8005d3c:	4619      	movne	r1, r3
 8005d3e:	4610      	movne	r0, r2
 8005d40:	ea7f 5c65 	mvnseq.w	ip, r5, asr #21
 8005d44:	bf1c      	itt	ne
 8005d46:	460b      	movne	r3, r1
 8005d48:	4602      	movne	r2, r0
 8005d4a:	ea50 3401 	orrs.w	r4, r0, r1, lsl #12
 8005d4e:	bf06      	itte	eq
 8005d50:	ea52 3503 	orrseq.w	r5, r2, r3, lsl #12
 8005d54:	ea91 0f03 	teqeq	r1, r3
 8005d58:	f441 2100 	orrne.w	r1, r1, #524288	; 0x80000
 8005d5c:	bd30      	pop	{r4, r5, pc}
 8005d5e:	bf00      	nop

08005d60 <__aeabi_ui2d>:
 8005d60:	f090 0f00 	teq	r0, #0
 8005d64:	bf04      	itt	eq
 8005d66:	2100      	moveq	r1, #0
 8005d68:	4770      	bxeq	lr
 8005d6a:	b530      	push	{r4, r5, lr}
 8005d6c:	f44f 6480 	mov.w	r4, #1024	; 0x400
 8005d70:	f104 0432 	add.w	r4, r4, #50	; 0x32
 8005d74:	f04f 0500 	mov.w	r5, #0
 8005d78:	f04f 0100 	mov.w	r1, #0
 8005d7c:	e750      	b.n	8005c20 <__adddf3+0x138>
 8005d7e:	bf00      	nop

08005d80 <__aeabi_i2d>:
 8005d80:	f090 0f00 	teq	r0, #0
 8005d84:	bf04      	itt	eq
 8005d86:	2100      	moveq	r1, #0
 8005d88:	4770      	bxeq	lr
 8005d8a:	b530      	push	{r4, r5, lr}
 8005d8c:	f44f 6480 	mov.w	r4, #1024	; 0x400
 8005d90:	f104 0432 	add.w	r4, r4, #50	; 0x32
 8005d94:	f010 4500 	ands.w	r5, r0, #2147483648	; 0x80000000
 8005d98:	bf48      	it	mi
 8005d9a:	4240      	negmi	r0, r0
 8005d9c:	f04f 0100 	mov.w	r1, #0
 8005da0:	e73e      	b.n	8005c20 <__adddf3+0x138>
 8005da2:	bf00      	nop

08005da4 <__aeabi_f2d>:
 8005da4:	0042      	lsls	r2, r0, #1
 8005da6:	ea4f 01e2 	mov.w	r1, r2, asr #3
 8005daa:	ea4f 0131 	mov.w	r1, r1, rrx
 8005dae:	ea4f 7002 	mov.w	r0, r2, lsl #28
 8005db2:	bf1f      	itttt	ne
 8005db4:	f012 437f 	andsne.w	r3, r2, #4278190080	; 0xff000000
 8005db8:	f093 4f7f 	teqne	r3, #4278190080	; 0xff000000
 8005dbc:	f081 5160 	eorne.w	r1, r1, #939524096	; 0x38000000
 8005dc0:	4770      	bxne	lr
 8005dc2:	f092 0f00 	teq	r2, #0
 8005dc6:	bf14      	ite	ne
 8005dc8:	f093 4f7f 	teqne	r3, #4278190080	; 0xff000000
 8005dcc:	4770      	bxeq	lr
 8005dce:	b530      	push	{r4, r5, lr}
 8005dd0:	f44f 7460 	mov.w	r4, #896	; 0x380
 8005dd4:	f001 4500 	and.w	r5, r1, #2147483648	; 0x80000000
 8005dd8:	f021 4100 	bic.w	r1, r1, #2147483648	; 0x80000000
 8005ddc:	e720      	b.n	8005c20 <__adddf3+0x138>
 8005dde:	bf00      	nop

08005de0 <__aeabi_ul2d>:
 8005de0:	ea50 0201 	orrs.w	r2, r0, r1
 8005de4:	bf08      	it	eq
 8005de6:	4770      	bxeq	lr
 8005de8:	b530      	push	{r4, r5, lr}
 8005dea:	f04f 0500 	mov.w	r5, #0
 8005dee:	e00a      	b.n	8005e06 <__aeabi_l2d+0x16>

08005df0 <__aeabi_l2d>:
 8005df0:	ea50 0201 	orrs.w	r2, r0, r1
 8005df4:	bf08      	it	eq
 8005df6:	4770      	bxeq	lr
 8005df8:	b530      	push	{r4, r5, lr}
 8005dfa:	f011 4500 	ands.w	r5, r1, #2147483648	; 0x80000000
 8005dfe:	d502      	bpl.n	8005e06 <__aeabi_l2d+0x16>
 8005e00:	4240      	negs	r0, r0
 8005e02:	eb61 0141 	sbc.w	r1, r1, r1, lsl #1
 8005e06:	f44f 6480 	mov.w	r4, #1024	; 0x400
 8005e0a:	f104 0432 	add.w	r4, r4, #50	; 0x32
 8005e0e:	ea5f 5c91 	movs.w	ip, r1, lsr #22
 8005e12:	f43f aedc 	beq.w	8005bce <__adddf3+0xe6>
 8005e16:	f04f 0203 	mov.w	r2, #3
 8005e1a:	ea5f 0cdc 	movs.w	ip, ip, lsr #3
 8005e1e:	bf18      	it	ne
 8005e20:	3203      	addne	r2, #3
 8005e22:	ea5f 0cdc 	movs.w	ip, ip, lsr #3
 8005e26:	bf18      	it	ne
 8005e28:	3203      	addne	r2, #3
 8005e2a:	eb02 02dc 	add.w	r2, r2, ip, lsr #3
 8005e2e:	f1c2 0320 	rsb	r3, r2, #32
 8005e32:	fa00 fc03 	lsl.w	ip, r0, r3
 8005e36:	fa20 f002 	lsr.w	r0, r0, r2
 8005e3a:	fa01 fe03 	lsl.w	lr, r1, r3
 8005e3e:	ea40 000e 	orr.w	r0, r0, lr
 8005e42:	fa21 f102 	lsr.w	r1, r1, r2
 8005e46:	4414      	add	r4, r2
 8005e48:	e6c1      	b.n	8005bce <__adddf3+0xe6>
 8005e4a:	bf00      	nop

08005e4c <__aeabi_dmul>:
 8005e4c:	b570      	push	{r4, r5, r6, lr}
 8005e4e:	f04f 0cff 	mov.w	ip, #255	; 0xff
 8005e52:	f44c 6ce0 	orr.w	ip, ip, #1792	; 0x700
 8005e56:	ea1c 5411 	ands.w	r4, ip, r1, lsr #20
 8005e5a:	bf1d      	ittte	ne
 8005e5c:	ea1c 5513 	andsne.w	r5, ip, r3, lsr #20
 8005e60:	ea94 0f0c 	teqne	r4, ip
 8005e64:	ea95 0f0c 	teqne	r5, ip
 8005e68:	f000 f8de 	bleq	8006028 <__aeabi_dmul+0x1dc>
 8005e6c:	442c      	add	r4, r5
 8005e6e:	ea81 0603 	eor.w	r6, r1, r3
 8005e72:	ea21 514c 	bic.w	r1, r1, ip, lsl #21
 8005e76:	ea23 534c 	bic.w	r3, r3, ip, lsl #21
 8005e7a:	ea50 3501 	orrs.w	r5, r0, r1, lsl #12
 8005e7e:	bf18      	it	ne
 8005e80:	ea52 3503 	orrsne.w	r5, r2, r3, lsl #12
 8005e84:	f441 1180 	orr.w	r1, r1, #1048576	; 0x100000
 8005e88:	f443 1380 	orr.w	r3, r3, #1048576	; 0x100000
 8005e8c:	d038      	beq.n	8005f00 <__aeabi_dmul+0xb4>
 8005e8e:	fba0 ce02 	umull	ip, lr, r0, r2
 8005e92:	f04f 0500 	mov.w	r5, #0
 8005e96:	fbe1 e502 	umlal	lr, r5, r1, r2
 8005e9a:	f006 4200 	and.w	r2, r6, #2147483648	; 0x80000000
 8005e9e:	fbe0 e503 	umlal	lr, r5, r0, r3
 8005ea2:	f04f 0600 	mov.w	r6, #0
 8005ea6:	fbe1 5603 	umlal	r5, r6, r1, r3
 8005eaa:	f09c 0f00 	teq	ip, #0
 8005eae:	bf18      	it	ne
 8005eb0:	f04e 0e01 	orrne.w	lr, lr, #1
 8005eb4:	f1a4 04ff 	sub.w	r4, r4, #255	; 0xff
 8005eb8:	f5b6 7f00 	cmp.w	r6, #512	; 0x200
 8005ebc:	f564 7440 	sbc.w	r4, r4, #768	; 0x300
 8005ec0:	d204      	bcs.n	8005ecc <__aeabi_dmul+0x80>
 8005ec2:	ea5f 0e4e 	movs.w	lr, lr, lsl #1
 8005ec6:	416d      	adcs	r5, r5
 8005ec8:	eb46 0606 	adc.w	r6, r6, r6
 8005ecc:	ea42 21c6 	orr.w	r1, r2, r6, lsl #11
 8005ed0:	ea41 5155 	orr.w	r1, r1, r5, lsr #21
 8005ed4:	ea4f 20c5 	mov.w	r0, r5, lsl #11
 8005ed8:	ea40 505e 	orr.w	r0, r0, lr, lsr #21
 8005edc:	ea4f 2ece 	mov.w	lr, lr, lsl #11
 8005ee0:	f1b4 0cfd 	subs.w	ip, r4, #253	; 0xfd
 8005ee4:	bf88      	it	hi
 8005ee6:	f5bc 6fe0 	cmphi.w	ip, #1792	; 0x700
 8005eea:	d81e      	bhi.n	8005f2a <__aeabi_dmul+0xde>
 8005eec:	f1be 4f00 	cmp.w	lr, #2147483648	; 0x80000000
 8005ef0:	bf08      	it	eq
 8005ef2:	ea5f 0e50 	movseq.w	lr, r0, lsr #1
 8005ef6:	f150 0000 	adcs.w	r0, r0, #0
 8005efa:	eb41 5104 	adc.w	r1, r1, r4, lsl #20
 8005efe:	bd70      	pop	{r4, r5, r6, pc}
 8005f00:	f006 4600 	and.w	r6, r6, #2147483648	; 0x80000000
 8005f04:	ea46 0101 	orr.w	r1, r6, r1
 8005f08:	ea40 0002 	orr.w	r0, r0, r2
 8005f0c:	ea81 0103 	eor.w	r1, r1, r3
 8005f10:	ebb4 045c 	subs.w	r4, r4, ip, lsr #1
 8005f14:	bfc2      	ittt	gt
 8005f16:	ebd4 050c 	rsbsgt	r5, r4, ip
 8005f1a:	ea41 5104 	orrgt.w	r1, r1, r4, lsl #20
 8005f1e:	bd70      	popgt	{r4, r5, r6, pc}
 8005f20:	f441 1180 	orr.w	r1, r1, #1048576	; 0x100000
 8005f24:	f04f 0e00 	mov.w	lr, #0
 8005f28:	3c01      	subs	r4, #1
 8005f2a:	f300 80ab 	bgt.w	8006084 <__aeabi_dmul+0x238>
 8005f2e:	f114 0f36 	cmn.w	r4, #54	; 0x36
 8005f32:	bfde      	ittt	le
 8005f34:	2000      	movle	r0, #0
 8005f36:	f001 4100 	andle.w	r1, r1, #2147483648	; 0x80000000
 8005f3a:	bd70      	pople	{r4, r5, r6, pc}
 8005f3c:	f1c4 0400 	rsb	r4, r4, #0
 8005f40:	3c20      	subs	r4, #32
 8005f42:	da35      	bge.n	8005fb0 <__aeabi_dmul+0x164>
 8005f44:	340c      	adds	r4, #12
 8005f46:	dc1b      	bgt.n	8005f80 <__aeabi_dmul+0x134>
 8005f48:	f104 0414 	add.w	r4, r4, #20
 8005f4c:	f1c4 0520 	rsb	r5, r4, #32
 8005f50:	fa00 f305 	lsl.w	r3, r0, r5
 8005f54:	fa20 f004 	lsr.w	r0, r0, r4
 8005f58:	fa01 f205 	lsl.w	r2, r1, r5
 8005f5c:	ea40 0002 	orr.w	r0, r0, r2
 8005f60:	f001 4200 	and.w	r2, r1, #2147483648	; 0x80000000
 8005f64:	f021 4100 	bic.w	r1, r1, #2147483648	; 0x80000000
 8005f68:	eb10 70d3 	adds.w	r0, r0, r3, lsr #31
 8005f6c:	fa21 f604 	lsr.w	r6, r1, r4
 8005f70:	eb42 0106 	adc.w	r1, r2, r6
 8005f74:	ea5e 0e43 	orrs.w	lr, lr, r3, lsl #1
 8005f78:	bf08      	it	eq
 8005f7a:	ea20 70d3 	biceq.w	r0, r0, r3, lsr #31
 8005f7e:	bd70      	pop	{r4, r5, r6, pc}
 8005f80:	f1c4 040c 	rsb	r4, r4, #12
 8005f84:	f1c4 0520 	rsb	r5, r4, #32
 8005f88:	fa00 f304 	lsl.w	r3, r0, r4
 8005f8c:	fa20 f005 	lsr.w	r0, r0, r5
 8005f90:	fa01 f204 	lsl.w	r2, r1, r4
 8005f94:	ea40 0002 	orr.w	r0, r0, r2
 8005f98:	f001 4100 	and.w	r1, r1, #2147483648	; 0x80000000
 8005f9c:	eb10 70d3 	adds.w	r0, r0, r3, lsr #31
 8005fa0:	f141 0100 	adc.w	r1, r1, #0
 8005fa4:	ea5e 0e43 	orrs.w	lr, lr, r3, lsl #1
 8005fa8:	bf08      	it	eq
 8005faa:	ea20 70d3 	biceq.w	r0, r0, r3, lsr #31
 8005fae:	bd70      	pop	{r4, r5, r6, pc}
 8005fb0:	f1c4 0520 	rsb	r5, r4, #32
 8005fb4:	fa00 f205 	lsl.w	r2, r0, r5
 8005fb8:	ea4e 0e02 	orr.w	lr, lr, r2
 8005fbc:	fa20 f304 	lsr.w	r3, r0, r4
 8005fc0:	fa01 f205 	lsl.w	r2, r1, r5
 8005fc4:	ea43 0302 	orr.w	r3, r3, r2
 8005fc8:	fa21 f004 	lsr.w	r0, r1, r4
 8005fcc:	f001 4100 	and.w	r1, r1, #2147483648	; 0x80000000
 8005fd0:	fa21 f204 	lsr.w	r2, r1, r4
 8005fd4:	ea20 0002 	bic.w	r0, r0, r2
 8005fd8:	eb00 70d3 	add.w	r0, r0, r3, lsr #31
 8005fdc:	ea5e 0e43 	orrs.w	lr, lr, r3, lsl #1
 8005fe0:	bf08      	it	eq
 8005fe2:	ea20 70d3 	biceq.w	r0, r0, r3, lsr #31
 8005fe6:	bd70      	pop	{r4, r5, r6, pc}
 8005fe8:	f094 0f00 	teq	r4, #0
 8005fec:	d10f      	bne.n	800600e <__aeabi_dmul+0x1c2>
 8005fee:	f001 4600 	and.w	r6, r1, #2147483648	; 0x80000000
 8005ff2:	0040      	lsls	r0, r0, #1
 8005ff4:	eb41 0101 	adc.w	r1, r1, r1
 8005ff8:	f411 1f80 	tst.w	r1, #1048576	; 0x100000
 8005ffc:	bf08      	it	eq
 8005ffe:	3c01      	subeq	r4, #1
 8006000:	d0f7      	beq.n	8005ff2 <__aeabi_dmul+0x1a6>
 8006002:	ea41 0106 	orr.w	r1, r1, r6
 8006006:	f095 0f00 	teq	r5, #0
 800600a:	bf18      	it	ne
 800600c:	4770      	bxne	lr
 800600e:	f003 4600 	and.w	r6, r3, #2147483648	; 0x80000000
 8006012:	0052      	lsls	r2, r2, #1
 8006014:	eb43 0303 	adc.w	r3, r3, r3
 8006018:	f413 1f80 	tst.w	r3, #1048576	; 0x100000
 800601c:	bf08      	it	eq
 800601e:	3d01      	subeq	r5, #1
 8006020:	d0f7      	beq.n	8006012 <__aeabi_dmul+0x1c6>
 8006022:	ea43 0306 	orr.w	r3, r3, r6
 8006026:	4770      	bx	lr
 8006028:	ea94 0f0c 	teq	r4, ip
 800602c:	ea0c 5513 	and.w	r5, ip, r3, lsr #20
 8006030:	bf18      	it	ne
 8006032:	ea95 0f0c 	teqne	r5, ip
 8006036:	d00c      	beq.n	8006052 <__aeabi_dmul+0x206>
 8006038:	ea50 0641 	orrs.w	r6, r0, r1, lsl #1
 800603c:	bf18      	it	ne
 800603e:	ea52 0643 	orrsne.w	r6, r2, r3, lsl #1
 8006042:	d1d1      	bne.n	8005fe8 <__aeabi_dmul+0x19c>
 8006044:	ea81 0103 	eor.w	r1, r1, r3
 8006048:	f001 4100 	and.w	r1, r1, #2147483648	; 0x80000000
 800604c:	f04f 0000 	mov.w	r0, #0
 8006050:	bd70      	pop	{r4, r5, r6, pc}
 8006052:	ea50 0641 	orrs.w	r6, r0, r1, lsl #1
 8006056:	bf06      	itte	eq
 8006058:	4610      	moveq	r0, r2
 800605a:	4619      	moveq	r1, r3
 800605c:	ea52 0643 	orrsne.w	r6, r2, r3, lsl #1
 8006060:	d019      	beq.n	8006096 <__aeabi_dmul+0x24a>
 8006062:	ea94 0f0c 	teq	r4, ip
 8006066:	d102      	bne.n	800606e <__aeabi_dmul+0x222>
 8006068:	ea50 3601 	orrs.w	r6, r0, r1, lsl #12
 800606c:	d113      	bne.n	8006096 <__aeabi_dmul+0x24a>
 800606e:	ea95 0f0c 	teq	r5, ip
 8006072:	d105      	bne.n	8006080 <__aeabi_dmul+0x234>
 8006074:	ea52 3603 	orrs.w	r6, r2, r3, lsl #12
 8006078:	bf1c      	itt	ne
 800607a:	4610      	movne	r0, r2
 800607c:	4619      	movne	r1, r3
 800607e:	d10a      	bne.n	8006096 <__aeabi_dmul+0x24a>
 8006080:	ea81 0103 	eor.w	r1, r1, r3
 8006084:	f001 4100 	and.w	r1, r1, #2147483648	; 0x80000000
 8006088:	f041 41fe 	orr.w	r1, r1, #2130706432	; 0x7f000000
 800608c:	f441 0170 	orr.w	r1, r1, #15728640	; 0xf00000
 8006090:	f04f 0000 	mov.w	r0, #0
 8006094:	bd70      	pop	{r4, r5, r6, pc}
 8006096:	f041 41fe 	orr.w	r1, r1, #2130706432	; 0x7f000000
 800609a:	f441 0178 	orr.w	r1, r1, #16252928	; 0xf80000
 800609e:	bd70      	pop	{r4, r5, r6, pc}

080060a0 <__aeabi_ddiv>:
 80060a0:	b570      	push	{r4, r5, r6, lr}
 80060a2:	f04f 0cff 	mov.w	ip, #255	; 0xff
 80060a6:	f44c 6ce0 	orr.w	ip, ip, #1792	; 0x700
 80060aa:	ea1c 5411 	ands.w	r4, ip, r1, lsr #20
 80060ae:	bf1d      	ittte	ne
 80060b0:	ea1c 5513 	andsne.w	r5, ip, r3, lsr #20
 80060b4:	ea94 0f0c 	teqne	r4, ip
 80060b8:	ea95 0f0c 	teqne	r5, ip
 80060bc:	f000 f8a7 	bleq	800620e <__aeabi_ddiv+0x16e>
 80060c0:	eba4 0405 	sub.w	r4, r4, r5
 80060c4:	ea81 0e03 	eor.w	lr, r1, r3
 80060c8:	ea52 3503 	orrs.w	r5, r2, r3, lsl #12
 80060cc:	ea4f 3101 	mov.w	r1, r1, lsl #12
 80060d0:	f000 8088 	beq.w	80061e4 <__aeabi_ddiv+0x144>
 80060d4:	ea4f 3303 	mov.w	r3, r3, lsl #12
 80060d8:	f04f 5580 	mov.w	r5, #268435456	; 0x10000000
 80060dc:	ea45 1313 	orr.w	r3, r5, r3, lsr #4
 80060e0:	ea43 6312 	orr.w	r3, r3, r2, lsr #24
 80060e4:	ea4f 2202 	mov.w	r2, r2, lsl #8
 80060e8:	ea45 1511 	orr.w	r5, r5, r1, lsr #4
 80060ec:	ea45 6510 	orr.w	r5, r5, r0, lsr #24
 80060f0:	ea4f 2600 	mov.w	r6, r0, lsl #8
 80060f4:	f00e 4100 	and.w	r1, lr, #2147483648	; 0x80000000
 80060f8:	429d      	cmp	r5, r3
 80060fa:	bf08      	it	eq
 80060fc:	4296      	cmpeq	r6, r2
 80060fe:	f144 04fd 	adc.w	r4, r4, #253	; 0xfd
 8006102:	f504 7440 	add.w	r4, r4, #768	; 0x300
 8006106:	d202      	bcs.n	800610e <__aeabi_ddiv+0x6e>
 8006108:	085b      	lsrs	r3, r3, #1
 800610a:	ea4f 0232 	mov.w	r2, r2, rrx
 800610e:	1ab6      	subs	r6, r6, r2
 8006110:	eb65 0503 	sbc.w	r5, r5, r3
 8006114:	085b      	lsrs	r3, r3, #1
 8006116:	ea4f 0232 	mov.w	r2, r2, rrx
 800611a:	f44f 1080 	mov.w	r0, #1048576	; 0x100000
 800611e:	f44f 2c00 	mov.w	ip, #524288	; 0x80000
 8006122:	ebb6 0e02 	subs.w	lr, r6, r2
 8006126:	eb75 0e03 	sbcs.w	lr, r5, r3
 800612a:	bf22      	ittt	cs
 800612c:	1ab6      	subcs	r6, r6, r2
 800612e:	4675      	movcs	r5, lr
 8006130:	ea40 000c 	orrcs.w	r0, r0, ip
 8006134:	085b      	lsrs	r3, r3, #1
 8006136:	ea4f 0232 	mov.w	r2, r2, rrx
 800613a:	ebb6 0e02 	subs.w	lr, r6, r2
 800613e:	eb75 0e03 	sbcs.w	lr, r5, r3
 8006142:	bf22      	ittt	cs
 8006144:	1ab6      	subcs	r6, r6, r2
 8006146:	4675      	movcs	r5, lr
 8006148:	ea40 005c 	orrcs.w	r0, r0, ip, lsr #1
 800614c:	085b      	lsrs	r3, r3, #1
 800614e:	ea4f 0232 	mov.w	r2, r2, rrx
 8006152:	ebb6 0e02 	subs.w	lr, r6, r2
 8006156:	eb75 0e03 	sbcs.w	lr, r5, r3
 800615a:	bf22      	ittt	cs
 800615c:	1ab6      	subcs	r6, r6, r2
 800615e:	4675      	movcs	r5, lr
 8006160:	ea40 009c 	orrcs.w	r0, r0, ip, lsr #2
 8006164:	085b      	lsrs	r3, r3, #1
 8006166:	ea4f 0232 	mov.w	r2, r2, rrx
 800616a:	ebb6 0e02 	subs.w	lr, r6, r2
 800616e:	eb75 0e03 	sbcs.w	lr, r5, r3
 8006172:	bf22      	ittt	cs
 8006174:	1ab6      	subcs	r6, r6, r2
 8006176:	4675      	movcs	r5, lr
 8006178:	ea40 00dc 	orrcs.w	r0, r0, ip, lsr #3
 800617c:	ea55 0e06 	orrs.w	lr, r5, r6
 8006180:	d018      	beq.n	80061b4 <__aeabi_ddiv+0x114>
 8006182:	ea4f 1505 	mov.w	r5, r5, lsl #4
 8006186:	ea45 7516 	orr.w	r5, r5, r6, lsr #28
 800618a:	ea4f 1606 	mov.w	r6, r6, lsl #4
 800618e:	ea4f 03c3 	mov.w	r3, r3, lsl #3
 8006192:	ea43 7352 	orr.w	r3, r3, r2, lsr #29
 8006196:	ea4f 02c2 	mov.w	r2, r2, lsl #3
 800619a:	ea5f 1c1c 	movs.w	ip, ip, lsr #4
 800619e:	d1c0      	bne.n	8006122 <__aeabi_ddiv+0x82>
 80061a0:	f411 1f80 	tst.w	r1, #1048576	; 0x100000
 80061a4:	d10b      	bne.n	80061be <__aeabi_ddiv+0x11e>
 80061a6:	ea41 0100 	orr.w	r1, r1, r0
 80061aa:	f04f 0000 	mov.w	r0, #0
 80061ae:	f04f 4c00 	mov.w	ip, #2147483648	; 0x80000000
 80061b2:	e7b6      	b.n	8006122 <__aeabi_ddiv+0x82>
 80061b4:	f411 1f80 	tst.w	r1, #1048576	; 0x100000
 80061b8:	bf04      	itt	eq
 80061ba:	4301      	orreq	r1, r0
 80061bc:	2000      	moveq	r0, #0
 80061be:	f1b4 0cfd 	subs.w	ip, r4, #253	; 0xfd
 80061c2:	bf88      	it	hi
 80061c4:	f5bc 6fe0 	cmphi.w	ip, #1792	; 0x700
 80061c8:	f63f aeaf 	bhi.w	8005f2a <__aeabi_dmul+0xde>
 80061cc:	ebb5 0c03 	subs.w	ip, r5, r3
 80061d0:	bf04      	itt	eq
 80061d2:	ebb6 0c02 	subseq.w	ip, r6, r2
 80061d6:	ea5f 0c50 	movseq.w	ip, r0, lsr #1
 80061da:	f150 0000 	adcs.w	r0, r0, #0
 80061de:	eb41 5104 	adc.w	r1, r1, r4, lsl #20
 80061e2:	bd70      	pop	{r4, r5, r6, pc}
 80061e4:	f00e 4e00 	and.w	lr, lr, #2147483648	; 0x80000000
 80061e8:	ea4e 3111 	orr.w	r1, lr, r1, lsr #12
 80061ec:	eb14 045c 	adds.w	r4, r4, ip, lsr #1
 80061f0:	bfc2      	ittt	gt
 80061f2:	ebd4 050c 	rsbsgt	r5, r4, ip
 80061f6:	ea41 5104 	orrgt.w	r1, r1, r4, lsl #20
 80061fa:	bd70      	popgt	{r4, r5, r6, pc}
 80061fc:	f441 1180 	orr.w	r1, r1, #1048576	; 0x100000
 8006200:	f04f 0e00 	mov.w	lr, #0
 8006204:	3c01      	subs	r4, #1
 8006206:	e690      	b.n	8005f2a <__aeabi_dmul+0xde>
 8006208:	ea45 0e06 	orr.w	lr, r5, r6
 800620c:	e68d      	b.n	8005f2a <__aeabi_dmul+0xde>
 800620e:	ea0c 5513 	and.w	r5, ip, r3, lsr #20
 8006212:	ea94 0f0c 	teq	r4, ip
 8006216:	bf08      	it	eq
 8006218:	ea95 0f0c 	teqeq	r5, ip
 800621c:	f43f af3b 	beq.w	8006096 <__aeabi_dmul+0x24a>
 8006220:	ea94 0f0c 	teq	r4, ip
 8006224:	d10a      	bne.n	800623c <__aeabi_ddiv+0x19c>
 8006226:	ea50 3401 	orrs.w	r4, r0, r1, lsl #12
 800622a:	f47f af34 	bne.w	8006096 <__aeabi_dmul+0x24a>
 800622e:	ea95 0f0c 	teq	r5, ip
 8006232:	f47f af25 	bne.w	8006080 <__aeabi_dmul+0x234>
 8006236:	4610      	mov	r0, r2
 8006238:	4619      	mov	r1, r3
 800623a:	e72c      	b.n	8006096 <__aeabi_dmul+0x24a>
 800623c:	ea95 0f0c 	teq	r5, ip
 8006240:	d106      	bne.n	8006250 <__aeabi_ddiv+0x1b0>
 8006242:	ea52 3503 	orrs.w	r5, r2, r3, lsl #12
 8006246:	f43f aefd 	beq.w	8006044 <__aeabi_dmul+0x1f8>
 800624a:	4610      	mov	r0, r2
 800624c:	4619      	mov	r1, r3
 800624e:	e722      	b.n	8006096 <__aeabi_dmul+0x24a>
 8006250:	ea50 0641 	orrs.w	r6, r0, r1, lsl #1
 8006254:	bf18      	it	ne
 8006256:	ea52 0643 	orrsne.w	r6, r2, r3, lsl #1
 800625a:	f47f aec5 	bne.w	8005fe8 <__aeabi_dmul+0x19c>
 800625e:	ea50 0441 	orrs.w	r4, r0, r1, lsl #1
 8006262:	f47f af0d 	bne.w	8006080 <__aeabi_dmul+0x234>
 8006266:	ea52 0543 	orrs.w	r5, r2, r3, lsl #1
 800626a:	f47f aeeb 	bne.w	8006044 <__aeabi_dmul+0x1f8>
 800626e:	e712      	b.n	8006096 <__aeabi_dmul+0x24a>

08006270 <__gedf2>:
 8006270:	f04f 3cff 	mov.w	ip, #4294967295
 8006274:	e006      	b.n	8006284 <__cmpdf2+0x4>
 8006276:	bf00      	nop

08006278 <__ledf2>:
 8006278:	f04f 0c01 	mov.w	ip, #1
 800627c:	e002      	b.n	8006284 <__cmpdf2+0x4>
 800627e:	bf00      	nop

08006280 <__cmpdf2>:
 8006280:	f04f 0c01 	mov.w	ip, #1
 8006284:	f84d cd04 	str.w	ip, [sp, #-4]!
 8006288:	ea4f 0c41 	mov.w	ip, r1, lsl #1
 800628c:	ea7f 5c6c 	mvns.w	ip, ip, asr #21
 8006290:	ea4f 0c43 	mov.w	ip, r3, lsl #1
 8006294:	bf18      	it	ne
 8006296:	ea7f 5c6c 	mvnsne.w	ip, ip, asr #21
 800629a:	d01b      	beq.n	80062d4 <__cmpdf2+0x54>
 800629c:	b001      	add	sp, #4
 800629e:	ea50 0c41 	orrs.w	ip, r0, r1, lsl #1
 80062a2:	bf0c      	ite	eq
 80062a4:	ea52 0c43 	orrseq.w	ip, r2, r3, lsl #1
 80062a8:	ea91 0f03 	teqne	r1, r3
 80062ac:	bf02      	ittt	eq
 80062ae:	ea90 0f02 	teqeq	r0, r2
 80062b2:	2000      	moveq	r0, #0
 80062b4:	4770      	bxeq	lr
 80062b6:	f110 0f00 	cmn.w	r0, #0
 80062ba:	ea91 0f03 	teq	r1, r3
 80062be:	bf58      	it	pl
 80062c0:	4299      	cmppl	r1, r3
 80062c2:	bf08      	it	eq
 80062c4:	4290      	cmpeq	r0, r2
 80062c6:	bf2c      	ite	cs
 80062c8:	17d8      	asrcs	r0, r3, #31
 80062ca:	ea6f 70e3 	mvncc.w	r0, r3, asr #31
 80062ce:	f040 0001 	orr.w	r0, r0, #1
 80062d2:	4770      	bx	lr
 80062d4:	ea4f 0c41 	mov.w	ip, r1, lsl #1
 80062d8:	ea7f 5c6c 	mvns.w	ip, ip, asr #21
 80062dc:	d102      	bne.n	80062e4 <__cmpdf2+0x64>
 80062de:	ea50 3c01 	orrs.w	ip, r0, r1, lsl #12
 80062e2:	d107      	bne.n	80062f4 <__cmpdf2+0x74>
 80062e4:	ea4f 0c43 	mov.w	ip, r3, lsl #1
 80062e8:	ea7f 5c6c 	mvns.w	ip, ip, asr #21
 80062ec:	d1d6      	bne.n	800629c <__cmpdf2+0x1c>
 80062ee:	ea52 3c03 	orrs.w	ip, r2, r3, lsl #12
 80062f2:	d0d3      	beq.n	800629c <__cmpdf2+0x1c>
 80062f4:	f85d 0b04 	ldr.w	r0, [sp], #4
 80062f8:	4770      	bx	lr
 80062fa:	bf00      	nop

080062fc <__aeabi_cdrcmple>:
 80062fc:	4684      	mov	ip, r0
 80062fe:	4610      	mov	r0, r2
 8006300:	4662      	mov	r2, ip
 8006302:	468c      	mov	ip, r1
 8006304:	4619      	mov	r1, r3
 8006306:	4663      	mov	r3, ip
 8006308:	e000      	b.n	800630c <__aeabi_cdcmpeq>
 800630a:	bf00      	nop

0800630c <__aeabi_cdcmpeq>:
 800630c:	b501      	push	{r0, lr}
 800630e:	f7ff ffb7 	bl	8006280 <__cmpdf2>
 8006312:	2800      	cmp	r0, #0
 8006314:	bf48      	it	mi
 8006316:	f110 0f00 	cmnmi.w	r0, #0
 800631a:	bd01      	pop	{r0, pc}

0800631c <__aeabi_dcmpeq>:
 800631c:	f84d ed08 	str.w	lr, [sp, #-8]!
 8006320:	f7ff fff4 	bl	800630c <__aeabi_cdcmpeq>
 8006324:	bf0c      	ite	eq
 8006326:	2001      	moveq	r0, #1
 8006328:	2000      	movne	r0, #0
 800632a:	f85d fb08 	ldr.w	pc, [sp], #8
 800632e:	bf00      	nop

08006330 <__aeabi_dcmplt>:
 8006330:	f84d ed08 	str.w	lr, [sp, #-8]!
 8006334:	f7ff ffea 	bl	800630c <__aeabi_cdcmpeq>
 8006338:	bf34      	ite	cc
 800633a:	2001      	movcc	r0, #1
 800633c:	2000      	movcs	r0, #0
 800633e:	f85d fb08 	ldr.w	pc, [sp], #8
 8006342:	bf00      	nop

08006344 <__aeabi_dcmple>:
 8006344:	f84d ed08 	str.w	lr, [sp, #-8]!
 8006348:	f7ff ffe0 	bl	800630c <__aeabi_cdcmpeq>
 800634c:	bf94      	ite	ls
 800634e:	2001      	movls	r0, #1
 8006350:	2000      	movhi	r0, #0
 8006352:	f85d fb08 	ldr.w	pc, [sp], #8
 8006356:	bf00      	nop

08006358 <__aeabi_dcmpge>:
 8006358:	f84d ed08 	str.w	lr, [sp, #-8]!
 800635c:	f7ff ffce 	bl	80062fc <__aeabi_cdrcmple>
 8006360:	bf94      	ite	ls
 8006362:	2001      	movls	r0, #1
 8006364:	2000      	movhi	r0, #0
 8006366:	f85d fb08 	ldr.w	pc, [sp], #8
 800636a:	bf00      	nop

0800636c <__aeabi_dcmpgt>:
 800636c:	f84d ed08 	str.w	lr, [sp, #-8]!
 8006370:	f7ff ffc4 	bl	80062fc <__aeabi_cdrcmple>
 8006374:	bf34      	ite	cc
 8006376:	2001      	movcc	r0, #1
 8006378:	2000      	movcs	r0, #0
 800637a:	f85d fb08 	ldr.w	pc, [sp], #8
 800637e:	bf00      	nop

08006380 <__aeabi_d2iz>:
 8006380:	ea4f 0241 	mov.w	r2, r1, lsl #1
 8006384:	f512 1200 	adds.w	r2, r2, #2097152	; 0x200000
 8006388:	d215      	bcs.n	80063b6 <__aeabi_d2iz+0x36>
 800638a:	d511      	bpl.n	80063b0 <__aeabi_d2iz+0x30>
 800638c:	f46f 7378 	mvn.w	r3, #992	; 0x3e0
 8006390:	ebb3 5262 	subs.w	r2, r3, r2, asr #21
 8006394:	d912      	bls.n	80063bc <__aeabi_d2iz+0x3c>
 8006396:	ea4f 23c1 	mov.w	r3, r1, lsl #11
 800639a:	f043 4300 	orr.w	r3, r3, #2147483648	; 0x80000000
 800639e:	ea43 5350 	orr.w	r3, r3, r0, lsr #21
 80063a2:	f011 4f00 	tst.w	r1, #2147483648	; 0x80000000
 80063a6:	fa23 f002 	lsr.w	r0, r3, r2
 80063aa:	bf18      	it	ne
 80063ac:	4240      	negne	r0, r0
 80063ae:	4770      	bx	lr
 80063b0:	f04f 0000 	mov.w	r0, #0
 80063b4:	4770      	bx	lr
 80063b6:	ea50 3001 	orrs.w	r0, r0, r1, lsl #12
 80063ba:	d105      	bne.n	80063c8 <__aeabi_d2iz+0x48>
 80063bc:	f011 4000 	ands.w	r0, r1, #2147483648	; 0x80000000
 80063c0:	bf08      	it	eq
 80063c2:	f06f 4000 	mvneq.w	r0, #2147483648	; 0x80000000
 80063c6:	4770      	bx	lr
 80063c8:	f04f 0000 	mov.w	r0, #0
 80063cc:	4770      	bx	lr
 80063ce:	bf00      	nop

080063d0 <__aeabi_d2uiz>:
 80063d0:	004a      	lsls	r2, r1, #1
 80063d2:	d211      	bcs.n	80063f8 <__aeabi_d2uiz+0x28>
 80063d4:	f512 1200 	adds.w	r2, r2, #2097152	; 0x200000
 80063d8:	d211      	bcs.n	80063fe <__aeabi_d2uiz+0x2e>
 80063da:	d50d      	bpl.n	80063f8 <__aeabi_d2uiz+0x28>
 80063dc:	f46f 7378 	mvn.w	r3, #992	; 0x3e0
 80063e0:	ebb3 5262 	subs.w	r2, r3, r2, asr #21
 80063e4:	d40e      	bmi.n	8006404 <__aeabi_d2uiz+0x34>
 80063e6:	ea4f 23c1 	mov.w	r3, r1, lsl #11
 80063ea:	f043 4300 	orr.w	r3, r3, #2147483648	; 0x80000000
 80063ee:	ea43 5350 	orr.w	r3, r3, r0, lsr #21
 80063f2:	fa23 f002 	lsr.w	r0, r3, r2
 80063f6:	4770      	bx	lr
 80063f8:	f04f 0000 	mov.w	r0, #0
 80063fc:	4770      	bx	lr
 80063fe:	ea50 3001 	orrs.w	r0, r0, r1, lsl #12
 8006402:	d102      	bne.n	800640a <__aeabi_d2uiz+0x3a>
 8006404:	f04f 30ff 	mov.w	r0, #4294967295
 8006408:	4770      	bx	lr
 800640a:	f04f 0000 	mov.w	r0, #0
 800640e:	4770      	bx	lr

08006410 <__errno>:
 8006410:	f240 0350 	movw	r3, #80	; 0x50
 8006414:	f2c2 0300 	movt	r3, #8192	; 0x2000
 8006418:	6818      	ldr	r0, [r3, #0]
 800641a:	4770      	bx	lr

0800641c <malloc>:
 800641c:	f240 0350 	movw	r3, #80	; 0x50
 8006420:	f2c2 0300 	movt	r3, #8192	; 0x2000
 8006424:	681b      	ldr	r3, [r3, #0]
 8006426:	4601      	mov	r1, r0
 8006428:	4618      	mov	r0, r3
 800642a:	f000 b80b 	b.w	8006444 <_malloc_r>
 800642e:	bf00      	nop

08006430 <free>:
 8006430:	f240 0350 	movw	r3, #80	; 0x50
 8006434:	f2c2 0300 	movt	r3, #8192	; 0x2000
 8006438:	681b      	ldr	r3, [r3, #0]
 800643a:	4601      	mov	r1, r0
 800643c:	4618      	mov	r0, r3
 800643e:	f000 baf5 	b.w	8006a2c <_free_r>
 8006442:	bf00      	nop

08006444 <_malloc_r>:
 8006444:	e92d 4ff8 	stmdb	sp!, {r3, r4, r5, r6, r7, r8, r9, sl, fp, lr}
 8006448:	f101 040b 	add.w	r4, r1, #11
 800644c:	2c16      	cmp	r4, #22
 800644e:	4605      	mov	r5, r0
 8006450:	d926      	bls.n	80064a0 <_malloc_r+0x5c>
 8006452:	f034 0407 	bics.w	r4, r4, #7
 8006456:	d426      	bmi.n	80064a6 <_malloc_r+0x62>
 8006458:	42a1      	cmp	r1, r4
 800645a:	d824      	bhi.n	80064a6 <_malloc_r+0x62>
 800645c:	4628      	mov	r0, r5
 800645e:	f000 fa7f 	bl	8006960 <__malloc_lock>
 8006462:	f5b4 7ffc 	cmp.w	r4, #504	; 0x1f8
 8006466:	d224      	bcs.n	80064b2 <_malloc_r+0x6e>
 8006468:	4eb2      	ldr	r6, [pc, #712]	; (8006734 <_malloc_r+0x2f0>)
 800646a:	ea4f 0ed4 	mov.w	lr, r4, lsr #3
 800646e:	eb06 03ce 	add.w	r3, r6, lr, lsl #3
 8006472:	68df      	ldr	r7, [r3, #12]
 8006474:	429f      	cmp	r7, r3
 8006476:	f000 81d2 	beq.w	800681e <_malloc_r+0x3da>
 800647a:	687b      	ldr	r3, [r7, #4]
 800647c:	68fa      	ldr	r2, [r7, #12]
 800647e:	f023 0303 	bic.w	r3, r3, #3
 8006482:	18fb      	adds	r3, r7, r3
 8006484:	6858      	ldr	r0, [r3, #4]
 8006486:	68b9      	ldr	r1, [r7, #8]
 8006488:	f040 0001 	orr.w	r0, r0, #1
 800648c:	6058      	str	r0, [r3, #4]
 800648e:	60ca      	str	r2, [r1, #12]
 8006490:	6091      	str	r1, [r2, #8]
 8006492:	4628      	mov	r0, r5
 8006494:	f000 fa66 	bl	8006964 <__malloc_unlock>
 8006498:	3708      	adds	r7, #8
 800649a:	4638      	mov	r0, r7
 800649c:	e8bd 8ff8 	ldmia.w	sp!, {r3, r4, r5, r6, r7, r8, r9, sl, fp, pc}
 80064a0:	2410      	movs	r4, #16
 80064a2:	42a1      	cmp	r1, r4
 80064a4:	d9da      	bls.n	800645c <_malloc_r+0x18>
 80064a6:	230c      	movs	r3, #12
 80064a8:	2700      	movs	r7, #0
 80064aa:	602b      	str	r3, [r5, #0]
 80064ac:	4638      	mov	r0, r7
 80064ae:	e8bd 8ff8 	ldmia.w	sp!, {r3, r4, r5, r6, r7, r8, r9, sl, fp, pc}
 80064b2:	ea5f 2e54 	movs.w	lr, r4, lsr #9
 80064b6:	f000 8087 	beq.w	80065c8 <_malloc_r+0x184>
 80064ba:	f1be 0f04 	cmp.w	lr, #4
 80064be:	f200 814c 	bhi.w	800675a <_malloc_r+0x316>
 80064c2:	ea4f 1e94 	mov.w	lr, r4, lsr #6
 80064c6:	f10e 0e38 	add.w	lr, lr, #56	; 0x38
 80064ca:	ea4f 01ce 	mov.w	r1, lr, lsl #3
 80064ce:	4e99      	ldr	r6, [pc, #612]	; (8006734 <_malloc_r+0x2f0>)
 80064d0:	1871      	adds	r1, r6, r1
 80064d2:	68cf      	ldr	r7, [r1, #12]
 80064d4:	42b9      	cmp	r1, r7
 80064d6:	d105      	bne.n	80064e4 <_malloc_r+0xa0>
 80064d8:	e00c      	b.n	80064f4 <_malloc_r+0xb0>
 80064da:	2b00      	cmp	r3, #0
 80064dc:	da79      	bge.n	80065d2 <_malloc_r+0x18e>
 80064de:	68ff      	ldr	r7, [r7, #12]
 80064e0:	42b9      	cmp	r1, r7
 80064e2:	d007      	beq.n	80064f4 <_malloc_r+0xb0>
 80064e4:	687a      	ldr	r2, [r7, #4]
 80064e6:	f022 0203 	bic.w	r2, r2, #3
 80064ea:	1b13      	subs	r3, r2, r4
 80064ec:	2b0f      	cmp	r3, #15
 80064ee:	ddf4      	ble.n	80064da <_malloc_r+0x96>
 80064f0:	f10e 3eff 	add.w	lr, lr, #4294967295
 80064f4:	f10e 0e01 	add.w	lr, lr, #1
 80064f8:	4a8e      	ldr	r2, [pc, #568]	; (8006734 <_malloc_r+0x2f0>)
 80064fa:	6937      	ldr	r7, [r6, #16]
 80064fc:	f102 0c08 	add.w	ip, r2, #8
 8006500:	4567      	cmp	r7, ip
 8006502:	f000 816a 	beq.w	80067da <_malloc_r+0x396>
 8006506:	687b      	ldr	r3, [r7, #4]
 8006508:	f023 0303 	bic.w	r3, r3, #3
 800650c:	1b19      	subs	r1, r3, r4
 800650e:	290f      	cmp	r1, #15
 8006510:	f300 8150 	bgt.w	80067b4 <_malloc_r+0x370>
 8006514:	2900      	cmp	r1, #0
 8006516:	f8c2 c014 	str.w	ip, [r2, #20]
 800651a:	f8c2 c010 	str.w	ip, [r2, #16]
 800651e:	da68      	bge.n	80065f2 <_malloc_r+0x1ae>
 8006520:	f5b3 7f00 	cmp.w	r3, #512	; 0x200
 8006524:	f080 8127 	bcs.w	8006776 <_malloc_r+0x332>
 8006528:	08db      	lsrs	r3, r3, #3
 800652a:	1099      	asrs	r1, r3, #2
 800652c:	f04f 0801 	mov.w	r8, #1
 8006530:	fa08 f801 	lsl.w	r8, r8, r1
 8006534:	eb02 03c3 	add.w	r3, r2, r3, lsl #3
 8006538:	6851      	ldr	r1, [r2, #4]
 800653a:	6898      	ldr	r0, [r3, #8]
 800653c:	ea48 0101 	orr.w	r1, r8, r1
 8006540:	60fb      	str	r3, [r7, #12]
 8006542:	60b8      	str	r0, [r7, #8]
 8006544:	6051      	str	r1, [r2, #4]
 8006546:	609f      	str	r7, [r3, #8]
 8006548:	60c7      	str	r7, [r0, #12]
 800654a:	2001      	movs	r0, #1
 800654c:	ea4f 03ae 	mov.w	r3, lr, asr #2
 8006550:	4098      	lsls	r0, r3
 8006552:	4288      	cmp	r0, r1
 8006554:	d859      	bhi.n	800660a <_malloc_r+0x1c6>
 8006556:	4201      	tst	r1, r0
 8006558:	d106      	bne.n	8006568 <_malloc_r+0x124>
 800655a:	f02e 0e03 	bic.w	lr, lr, #3
 800655e:	0040      	lsls	r0, r0, #1
 8006560:	4201      	tst	r1, r0
 8006562:	f10e 0e04 	add.w	lr, lr, #4
 8006566:	d0fa      	beq.n	800655e <_malloc_r+0x11a>
 8006568:	eb06 09ce 	add.w	r9, r6, lr, lsl #3
 800656c:	464f      	mov	r7, r9
 800656e:	46f0      	mov	r8, lr
 8006570:	68fb      	ldr	r3, [r7, #12]
 8006572:	429f      	cmp	r7, r3
 8006574:	d107      	bne.n	8006586 <_malloc_r+0x142>
 8006576:	e132      	b.n	80067de <_malloc_r+0x39a>
 8006578:	2a00      	cmp	r2, #0
 800657a:	f280 8159 	bge.w	8006830 <_malloc_r+0x3ec>
 800657e:	68db      	ldr	r3, [r3, #12]
 8006580:	429f      	cmp	r7, r3
 8006582:	f000 812c 	beq.w	80067de <_malloc_r+0x39a>
 8006586:	6859      	ldr	r1, [r3, #4]
 8006588:	f021 0103 	bic.w	r1, r1, #3
 800658c:	1b0a      	subs	r2, r1, r4
 800658e:	2a0f      	cmp	r2, #15
 8006590:	ddf2      	ble.n	8006578 <_malloc_r+0x134>
 8006592:	461f      	mov	r7, r3
 8006594:	68d8      	ldr	r0, [r3, #12]
 8006596:	f857 ef08 	ldr.w	lr, [r7, #8]!
 800659a:	1919      	adds	r1, r3, r4
 800659c:	f042 0801 	orr.w	r8, r2, #1
 80065a0:	f044 0401 	orr.w	r4, r4, #1
 80065a4:	f8ce 000c 	str.w	r0, [lr, #12]
 80065a8:	f8c0 e008 	str.w	lr, [r0, #8]
 80065ac:	605c      	str	r4, [r3, #4]
 80065ae:	6171      	str	r1, [r6, #20]
 80065b0:	6131      	str	r1, [r6, #16]
 80065b2:	f8c1 c00c 	str.w	ip, [r1, #12]
 80065b6:	f8c1 c008 	str.w	ip, [r1, #8]
 80065ba:	f8c1 8004 	str.w	r8, [r1, #4]
 80065be:	508a      	str	r2, [r1, r2]
 80065c0:	4628      	mov	r0, r5
 80065c2:	f000 f9cf 	bl	8006964 <__malloc_unlock>
 80065c6:	e768      	b.n	800649a <_malloc_r+0x56>
 80065c8:	ea4f 0ed4 	mov.w	lr, r4, lsr #3
 80065cc:	ea4f 01ce 	mov.w	r1, lr, lsl #3
 80065d0:	e77d      	b.n	80064ce <_malloc_r+0x8a>
 80065d2:	18ba      	adds	r2, r7, r2
 80065d4:	6850      	ldr	r0, [r2, #4]
 80065d6:	68fb      	ldr	r3, [r7, #12]
 80065d8:	68b9      	ldr	r1, [r7, #8]
 80065da:	f040 0001 	orr.w	r0, r0, #1
 80065de:	6050      	str	r0, [r2, #4]
 80065e0:	60cb      	str	r3, [r1, #12]
 80065e2:	4628      	mov	r0, r5
 80065e4:	6099      	str	r1, [r3, #8]
 80065e6:	3708      	adds	r7, #8
 80065e8:	f000 f9bc 	bl	8006964 <__malloc_unlock>
 80065ec:	4638      	mov	r0, r7
 80065ee:	e8bd 8ff8 	ldmia.w	sp!, {r3, r4, r5, r6, r7, r8, r9, sl, fp, pc}
 80065f2:	18fb      	adds	r3, r7, r3
 80065f4:	685a      	ldr	r2, [r3, #4]
 80065f6:	4628      	mov	r0, r5
 80065f8:	f042 0201 	orr.w	r2, r2, #1
 80065fc:	605a      	str	r2, [r3, #4]
 80065fe:	3708      	adds	r7, #8
 8006600:	f000 f9b0 	bl	8006964 <__malloc_unlock>
 8006604:	4638      	mov	r0, r7
 8006606:	e8bd 8ff8 	ldmia.w	sp!, {r3, r4, r5, r6, r7, r8, r9, sl, fp, pc}
 800660a:	68b7      	ldr	r7, [r6, #8]
 800660c:	687b      	ldr	r3, [r7, #4]
 800660e:	f023 0903 	bic.w	r9, r3, #3
 8006612:	454c      	cmp	r4, r9
 8006614:	d804      	bhi.n	8006620 <_malloc_r+0x1dc>
 8006616:	ebc4 0209 	rsb	r2, r4, r9
 800661a:	2a0f      	cmp	r2, #15
 800661c:	f300 808e 	bgt.w	800673c <_malloc_r+0x2f8>
 8006620:	f8df a114 	ldr.w	sl, [pc, #276]	; 8006738 <_malloc_r+0x2f4>
 8006624:	f8d6 2408 	ldr.w	r2, [r6, #1032]	; 0x408
 8006628:	f8da 3000 	ldr.w	r3, [sl]
 800662c:	3201      	adds	r2, #1
 800662e:	4423      	add	r3, r4
 8006630:	f000 8147 	beq.w	80068c2 <_malloc_r+0x47e>
 8006634:	f503 5380 	add.w	r3, r3, #4096	; 0x1000
 8006638:	330f      	adds	r3, #15
 800663a:	f423 637e 	bic.w	r3, r3, #4064	; 0xfe0
 800663e:	f023 0b1f 	bic.w	fp, r3, #31
 8006642:	4628      	mov	r0, r5
 8006644:	4659      	mov	r1, fp
 8006646:	f000 f98f 	bl	8006968 <_sbrk_r>
 800664a:	f1b0 3fff 	cmp.w	r0, #4294967295
 800664e:	4680      	mov	r8, r0
 8006650:	f000 8140 	beq.w	80068d4 <_malloc_r+0x490>
 8006654:	eb07 0209 	add.w	r2, r7, r9
 8006658:	4282      	cmp	r2, r0
 800665a:	f200 8101 	bhi.w	8006860 <_malloc_r+0x41c>
 800665e:	f8da 3004 	ldr.w	r3, [sl, #4]
 8006662:	4542      	cmp	r2, r8
 8006664:	445b      	add	r3, fp
 8006666:	f8ca 3004 	str.w	r3, [sl, #4]
 800666a:	f000 8138 	beq.w	80068de <_malloc_r+0x49a>
 800666e:	f8d6 1408 	ldr.w	r1, [r6, #1032]	; 0x408
 8006672:	3101      	adds	r1, #1
 8006674:	f000 8144 	beq.w	8006900 <_malloc_r+0x4bc>
 8006678:	ebc2 0208 	rsb	r2, r2, r8
 800667c:	189b      	adds	r3, r3, r2
 800667e:	f8ca 3004 	str.w	r3, [sl, #4]
 8006682:	f018 0307 	ands.w	r3, r8, #7
 8006686:	f000 80fe 	beq.w	8006886 <_malloc_r+0x442>
 800668a:	f1c3 0208 	rsb	r2, r3, #8
 800668e:	f5c3 5380 	rsb	r3, r3, #4096	; 0x1000
 8006692:	4490      	add	r8, r2
 8006694:	f103 0208 	add.w	r2, r3, #8
 8006698:	eb08 030b 	add.w	r3, r8, fp
 800669c:	051b      	lsls	r3, r3, #20
 800669e:	0d1b      	lsrs	r3, r3, #20
 80066a0:	ebc3 0b02 	rsb	fp, r3, r2
 80066a4:	4628      	mov	r0, r5
 80066a6:	4659      	mov	r1, fp
 80066a8:	f000 f95e 	bl	8006968 <_sbrk_r>
 80066ac:	1c43      	adds	r3, r0, #1
 80066ae:	f000 8133 	beq.w	8006918 <_malloc_r+0x4d4>
 80066b2:	ebc8 0200 	rsb	r2, r8, r0
 80066b6:	445a      	add	r2, fp
 80066b8:	f042 0201 	orr.w	r2, r2, #1
 80066bc:	f8da 3004 	ldr.w	r3, [sl, #4]
 80066c0:	42b7      	cmp	r7, r6
 80066c2:	445b      	add	r3, fp
 80066c4:	f8c6 8008 	str.w	r8, [r6, #8]
 80066c8:	f8ca 3004 	str.w	r3, [sl, #4]
 80066cc:	f8c8 2004 	str.w	r2, [r8, #4]
 80066d0:	d015      	beq.n	80066fe <_malloc_r+0x2ba>
 80066d2:	f1b9 0f0f 	cmp.w	r9, #15
 80066d6:	f240 80e3 	bls.w	80068a0 <_malloc_r+0x45c>
 80066da:	6879      	ldr	r1, [r7, #4]
 80066dc:	f1a9 020c 	sub.w	r2, r9, #12
 80066e0:	f022 0207 	bic.w	r2, r2, #7
 80066e4:	f001 0e01 	and.w	lr, r1, #1
 80066e8:	2005      	movs	r0, #5
 80066ea:	18b9      	adds	r1, r7, r2
 80066ec:	ea42 0e0e 	orr.w	lr, r2, lr
 80066f0:	2a0f      	cmp	r2, #15
 80066f2:	f8c7 e004 	str.w	lr, [r7, #4]
 80066f6:	6048      	str	r0, [r1, #4]
 80066f8:	6088      	str	r0, [r1, #8]
 80066fa:	f200 8105 	bhi.w	8006908 <_malloc_r+0x4c4>
 80066fe:	f8da 202c 	ldr.w	r2, [sl, #44]	; 0x2c
 8006702:	68b7      	ldr	r7, [r6, #8]
 8006704:	4293      	cmp	r3, r2
 8006706:	bf84      	itt	hi
 8006708:	4a0b      	ldrhi	r2, [pc, #44]	; (8006738 <_malloc_r+0x2f4>)
 800670a:	62d3      	strhi	r3, [r2, #44]	; 0x2c
 800670c:	f8da 2030 	ldr.w	r2, [sl, #48]	; 0x30
 8006710:	4293      	cmp	r3, r2
 8006712:	bf84      	itt	hi
 8006714:	4a08      	ldrhi	r2, [pc, #32]	; (8006738 <_malloc_r+0x2f4>)
 8006716:	6313      	strhi	r3, [r2, #48]	; 0x30
 8006718:	687a      	ldr	r2, [r7, #4]
 800671a:	f022 0203 	bic.w	r2, r2, #3
 800671e:	4294      	cmp	r4, r2
 8006720:	d802      	bhi.n	8006728 <_malloc_r+0x2e4>
 8006722:	1b12      	subs	r2, r2, r4
 8006724:	2a0f      	cmp	r2, #15
 8006726:	dc09      	bgt.n	800673c <_malloc_r+0x2f8>
 8006728:	4628      	mov	r0, r5
 800672a:	f000 f91b 	bl	8006964 <__malloc_unlock>
 800672e:	2700      	movs	r7, #0
 8006730:	e6b3      	b.n	800649a <_malloc_r+0x56>
 8006732:	bf00      	nop
 8006734:	20000480 	.word	0x20000480
 8006738:	20000d54 	.word	0x20000d54
 800673c:	193b      	adds	r3, r7, r4
 800673e:	f042 0201 	orr.w	r2, r2, #1
 8006742:	f044 0401 	orr.w	r4, r4, #1
 8006746:	607c      	str	r4, [r7, #4]
 8006748:	4628      	mov	r0, r5
 800674a:	605a      	str	r2, [r3, #4]
 800674c:	3708      	adds	r7, #8
 800674e:	60b3      	str	r3, [r6, #8]
 8006750:	f000 f908 	bl	8006964 <__malloc_unlock>
 8006754:	4638      	mov	r0, r7
 8006756:	e8bd 8ff8 	ldmia.w	sp!, {r3, r4, r5, r6, r7, r8, r9, sl, fp, pc}
 800675a:	f1be 0f14 	cmp.w	lr, #20
 800675e:	d976      	bls.n	800684e <_malloc_r+0x40a>
 8006760:	f1be 0f54 	cmp.w	lr, #84	; 0x54
 8006764:	f200 8085 	bhi.w	8006872 <_malloc_r+0x42e>
 8006768:	ea4f 3e14 	mov.w	lr, r4, lsr #12
 800676c:	f10e 0e6e 	add.w	lr, lr, #110	; 0x6e
 8006770:	ea4f 01ce 	mov.w	r1, lr, lsl #3
 8006774:	e6ab      	b.n	80064ce <_malloc_r+0x8a>
 8006776:	0a5a      	lsrs	r2, r3, #9
 8006778:	2a04      	cmp	r2, #4
 800677a:	d96d      	bls.n	8006858 <_malloc_r+0x414>
 800677c:	2a14      	cmp	r2, #20
 800677e:	f200 80a3 	bhi.w	80068c8 <_malloc_r+0x484>
 8006782:	f102 015b 	add.w	r1, r2, #91	; 0x5b
 8006786:	00c8      	lsls	r0, r1, #3
 8006788:	1830      	adds	r0, r6, r0
 800678a:	6882      	ldr	r2, [r0, #8]
 800678c:	f8df 81c8 	ldr.w	r8, [pc, #456]	; 8006958 <_malloc_r+0x514>
 8006790:	4282      	cmp	r2, r0
 8006792:	d103      	bne.n	800679c <_malloc_r+0x358>
 8006794:	e07a      	b.n	800688c <_malloc_r+0x448>
 8006796:	6892      	ldr	r2, [r2, #8]
 8006798:	4290      	cmp	r0, r2
 800679a:	d004      	beq.n	80067a6 <_malloc_r+0x362>
 800679c:	6851      	ldr	r1, [r2, #4]
 800679e:	f021 0103 	bic.w	r1, r1, #3
 80067a2:	428b      	cmp	r3, r1
 80067a4:	d3f7      	bcc.n	8006796 <_malloc_r+0x352>
 80067a6:	68d3      	ldr	r3, [r2, #12]
 80067a8:	6871      	ldr	r1, [r6, #4]
 80067aa:	60fb      	str	r3, [r7, #12]
 80067ac:	60ba      	str	r2, [r7, #8]
 80067ae:	60d7      	str	r7, [r2, #12]
 80067b0:	609f      	str	r7, [r3, #8]
 80067b2:	e6ca      	b.n	800654a <_malloc_r+0x106>
 80067b4:	193b      	adds	r3, r7, r4
 80067b6:	f041 0001 	orr.w	r0, r1, #1
 80067ba:	f044 0401 	orr.w	r4, r4, #1
 80067be:	607c      	str	r4, [r7, #4]
 80067c0:	6153      	str	r3, [r2, #20]
 80067c2:	6113      	str	r3, [r2, #16]
 80067c4:	6058      	str	r0, [r3, #4]
 80067c6:	f8c3 c00c 	str.w	ip, [r3, #12]
 80067ca:	f8c3 c008 	str.w	ip, [r3, #8]
 80067ce:	5059      	str	r1, [r3, r1]
 80067d0:	4628      	mov	r0, r5
 80067d2:	f000 f8c7 	bl	8006964 <__malloc_unlock>
 80067d6:	3708      	adds	r7, #8
 80067d8:	e65f      	b.n	800649a <_malloc_r+0x56>
 80067da:	6851      	ldr	r1, [r2, #4]
 80067dc:	e6b5      	b.n	800654a <_malloc_r+0x106>
 80067de:	f108 0801 	add.w	r8, r8, #1
 80067e2:	3708      	adds	r7, #8
 80067e4:	f018 0f03 	tst.w	r8, #3
 80067e8:	f47f aec2 	bne.w	8006570 <_malloc_r+0x12c>
 80067ec:	464b      	mov	r3, r9
 80067ee:	f01e 0f03 	tst.w	lr, #3
 80067f2:	f1a3 0208 	sub.w	r2, r3, #8
 80067f6:	f10e 3eff 	add.w	lr, lr, #4294967295
 80067fa:	f000 80a0 	beq.w	800693e <_malloc_r+0x4fa>
 80067fe:	681b      	ldr	r3, [r3, #0]
 8006800:	4293      	cmp	r3, r2
 8006802:	d0f4      	beq.n	80067ee <_malloc_r+0x3aa>
 8006804:	6873      	ldr	r3, [r6, #4]
 8006806:	0040      	lsls	r0, r0, #1
 8006808:	4298      	cmp	r0, r3
 800680a:	f63f aefe 	bhi.w	800660a <_malloc_r+0x1c6>
 800680e:	2800      	cmp	r0, #0
 8006810:	f43f aefb 	beq.w	800660a <_malloc_r+0x1c6>
 8006814:	4218      	tst	r0, r3
 8006816:	f000 8097 	beq.w	8006948 <_malloc_r+0x504>
 800681a:	46c6      	mov	lr, r8
 800681c:	e6a4      	b.n	8006568 <_malloc_r+0x124>
 800681e:	f107 0308 	add.w	r3, r7, #8
 8006822:	697f      	ldr	r7, [r7, #20]
 8006824:	42bb      	cmp	r3, r7
 8006826:	f47f ae28 	bne.w	800647a <_malloc_r+0x36>
 800682a:	f10e 0e02 	add.w	lr, lr, #2
 800682e:	e663      	b.n	80064f8 <_malloc_r+0xb4>
 8006830:	1859      	adds	r1, r3, r1
 8006832:	6848      	ldr	r0, [r1, #4]
 8006834:	461f      	mov	r7, r3
 8006836:	f857 2f08 	ldr.w	r2, [r7, #8]!
 800683a:	68db      	ldr	r3, [r3, #12]
 800683c:	f040 0001 	orr.w	r0, r0, #1
 8006840:	6048      	str	r0, [r1, #4]
 8006842:	60d3      	str	r3, [r2, #12]
 8006844:	609a      	str	r2, [r3, #8]
 8006846:	4628      	mov	r0, r5
 8006848:	f000 f88c 	bl	8006964 <__malloc_unlock>
 800684c:	e625      	b.n	800649a <_malloc_r+0x56>
 800684e:	f10e 0e5b 	add.w	lr, lr, #91	; 0x5b
 8006852:	ea4f 01ce 	mov.w	r1, lr, lsl #3
 8006856:	e63a      	b.n	80064ce <_malloc_r+0x8a>
 8006858:	0999      	lsrs	r1, r3, #6
 800685a:	3138      	adds	r1, #56	; 0x38
 800685c:	00c8      	lsls	r0, r1, #3
 800685e:	e793      	b.n	8006788 <_malloc_r+0x344>
 8006860:	42b7      	cmp	r7, r6
 8006862:	f43f aefc 	beq.w	800665e <_malloc_r+0x21a>
 8006866:	4b3c      	ldr	r3, [pc, #240]	; (8006958 <_malloc_r+0x514>)
 8006868:	689f      	ldr	r7, [r3, #8]
 800686a:	687a      	ldr	r2, [r7, #4]
 800686c:	f022 0203 	bic.w	r2, r2, #3
 8006870:	e755      	b.n	800671e <_malloc_r+0x2da>
 8006872:	f5be 7faa 	cmp.w	lr, #340	; 0x154
 8006876:	d819      	bhi.n	80068ac <_malloc_r+0x468>
 8006878:	ea4f 3ed4 	mov.w	lr, r4, lsr #15
 800687c:	f10e 0e77 	add.w	lr, lr, #119	; 0x77
 8006880:	ea4f 01ce 	mov.w	r1, lr, lsl #3
 8006884:	e623      	b.n	80064ce <_malloc_r+0x8a>
 8006886:	f44f 5280 	mov.w	r2, #4096	; 0x1000
 800688a:	e705      	b.n	8006698 <_malloc_r+0x254>
 800688c:	1089      	asrs	r1, r1, #2
 800688e:	2001      	movs	r0, #1
 8006890:	4088      	lsls	r0, r1
 8006892:	f8d8 1004 	ldr.w	r1, [r8, #4]
 8006896:	4613      	mov	r3, r2
 8006898:	4301      	orrs	r1, r0
 800689a:	f8c8 1004 	str.w	r1, [r8, #4]
 800689e:	e784      	b.n	80067aa <_malloc_r+0x366>
 80068a0:	2301      	movs	r3, #1
 80068a2:	f8c8 3004 	str.w	r3, [r8, #4]
 80068a6:	4647      	mov	r7, r8
 80068a8:	2200      	movs	r2, #0
 80068aa:	e738      	b.n	800671e <_malloc_r+0x2da>
 80068ac:	f240 5354 	movw	r3, #1364	; 0x554
 80068b0:	459e      	cmp	lr, r3
 80068b2:	d820      	bhi.n	80068f6 <_malloc_r+0x4b2>
 80068b4:	ea4f 4e94 	mov.w	lr, r4, lsr #18
 80068b8:	f10e 0e7c 	add.w	lr, lr, #124	; 0x7c
 80068bc:	ea4f 01ce 	mov.w	r1, lr, lsl #3
 80068c0:	e605      	b.n	80064ce <_malloc_r+0x8a>
 80068c2:	f103 0b10 	add.w	fp, r3, #16
 80068c6:	e6bc      	b.n	8006642 <_malloc_r+0x1fe>
 80068c8:	2a54      	cmp	r2, #84	; 0x54
 80068ca:	d829      	bhi.n	8006920 <_malloc_r+0x4dc>
 80068cc:	0b19      	lsrs	r1, r3, #12
 80068ce:	316e      	adds	r1, #110	; 0x6e
 80068d0:	00c8      	lsls	r0, r1, #3
 80068d2:	e759      	b.n	8006788 <_malloc_r+0x344>
 80068d4:	68b7      	ldr	r7, [r6, #8]
 80068d6:	687a      	ldr	r2, [r7, #4]
 80068d8:	f022 0203 	bic.w	r2, r2, #3
 80068dc:	e71f      	b.n	800671e <_malloc_r+0x2da>
 80068de:	0511      	lsls	r1, r2, #20
 80068e0:	0d09      	lsrs	r1, r1, #20
 80068e2:	2900      	cmp	r1, #0
 80068e4:	f47f aec3 	bne.w	800666e <_malloc_r+0x22a>
 80068e8:	68b2      	ldr	r2, [r6, #8]
 80068ea:	eb0b 0109 	add.w	r1, fp, r9
 80068ee:	f041 0101 	orr.w	r1, r1, #1
 80068f2:	6051      	str	r1, [r2, #4]
 80068f4:	e703      	b.n	80066fe <_malloc_r+0x2ba>
 80068f6:	f44f 717c 	mov.w	r1, #1008	; 0x3f0
 80068fa:	f04f 0e7e 	mov.w	lr, #126	; 0x7e
 80068fe:	e5e6      	b.n	80064ce <_malloc_r+0x8a>
 8006900:	4b15      	ldr	r3, [pc, #84]	; (8006958 <_malloc_r+0x514>)
 8006902:	f8c3 8408 	str.w	r8, [r3, #1032]	; 0x408
 8006906:	e6bc      	b.n	8006682 <_malloc_r+0x23e>
 8006908:	f107 0108 	add.w	r1, r7, #8
 800690c:	4628      	mov	r0, r5
 800690e:	f000 f88d 	bl	8006a2c <_free_r>
 8006912:	4b12      	ldr	r3, [pc, #72]	; (800695c <_malloc_r+0x518>)
 8006914:	685b      	ldr	r3, [r3, #4]
 8006916:	e6f2      	b.n	80066fe <_malloc_r+0x2ba>
 8006918:	2201      	movs	r2, #1
 800691a:	f04f 0b00 	mov.w	fp, #0
 800691e:	e6cd      	b.n	80066bc <_malloc_r+0x278>
 8006920:	f5b2 7faa 	cmp.w	r2, #340	; 0x154
 8006924:	d803      	bhi.n	800692e <_malloc_r+0x4ea>
 8006926:	0bd9      	lsrs	r1, r3, #15
 8006928:	3177      	adds	r1, #119	; 0x77
 800692a:	00c8      	lsls	r0, r1, #3
 800692c:	e72c      	b.n	8006788 <_malloc_r+0x344>
 800692e:	f240 5154 	movw	r1, #1364	; 0x554
 8006932:	428a      	cmp	r2, r1
 8006934:	d80c      	bhi.n	8006950 <_malloc_r+0x50c>
 8006936:	0c99      	lsrs	r1, r3, #18
 8006938:	317c      	adds	r1, #124	; 0x7c
 800693a:	00c8      	lsls	r0, r1, #3
 800693c:	e724      	b.n	8006788 <_malloc_r+0x344>
 800693e:	6873      	ldr	r3, [r6, #4]
 8006940:	ea23 0300 	bic.w	r3, r3, r0
 8006944:	6073      	str	r3, [r6, #4]
 8006946:	e75e      	b.n	8006806 <_malloc_r+0x3c2>
 8006948:	0040      	lsls	r0, r0, #1
 800694a:	f108 0804 	add.w	r8, r8, #4
 800694e:	e761      	b.n	8006814 <_malloc_r+0x3d0>
 8006950:	f44f 707c 	mov.w	r0, #1008	; 0x3f0
 8006954:	217e      	movs	r1, #126	; 0x7e
 8006956:	e717      	b.n	8006788 <_malloc_r+0x344>
 8006958:	20000480 	.word	0x20000480
 800695c:	20000d54 	.word	0x20000d54

08006960 <__malloc_lock>:
 8006960:	4770      	bx	lr
 8006962:	bf00      	nop

08006964 <__malloc_unlock>:
 8006964:	4770      	bx	lr
 8006966:	bf00      	nop

08006968 <_sbrk_r>:
 8006968:	b538      	push	{r3, r4, r5, lr}
 800696a:	4c07      	ldr	r4, [pc, #28]	; (8006988 <_sbrk_r+0x20>)
 800696c:	2300      	movs	r3, #0
 800696e:	4605      	mov	r5, r0
 8006970:	4608      	mov	r0, r1
 8006972:	6023      	str	r3, [r4, #0]
 8006974:	f7fe f880 	bl	8004a78 <_sbrk>
 8006978:	1c43      	adds	r3, r0, #1
 800697a:	d000      	beq.n	800697e <_sbrk_r+0x16>
 800697c:	bd38      	pop	{r3, r4, r5, pc}
 800697e:	6823      	ldr	r3, [r4, #0]
 8006980:	2b00      	cmp	r3, #0
 8006982:	d0fb      	beq.n	800697c <_sbrk_r+0x14>
 8006984:	602b      	str	r3, [r5, #0]
 8006986:	bd38      	pop	{r3, r4, r5, pc}
 8006988:	20000df0 	.word	0x20000df0

0800698c <_malloc_trim_r>:
 800698c:	b5f8      	push	{r3, r4, r5, r6, r7, lr}
 800698e:	4d24      	ldr	r5, [pc, #144]	; (8006a20 <_malloc_trim_r+0x94>)
 8006990:	4604      	mov	r4, r0
 8006992:	460f      	mov	r7, r1
 8006994:	f7ff ffe4 	bl	8006960 <__malloc_lock>
 8006998:	68ab      	ldr	r3, [r5, #8]
 800699a:	4620      	mov	r0, r4
 800699c:	685e      	ldr	r6, [r3, #4]
 800699e:	f026 0603 	bic.w	r6, r6, #3
 80069a2:	f506 637e 	add.w	r3, r6, #4064	; 0xfe0
 80069a6:	330f      	adds	r3, #15
 80069a8:	1bdf      	subs	r7, r3, r7
 80069aa:	0b3f      	lsrs	r7, r7, #12
 80069ac:	3f01      	subs	r7, #1
 80069ae:	033f      	lsls	r7, r7, #12
 80069b0:	f5b7 5f80 	cmp.w	r7, #4096	; 0x1000
 80069b4:	db1c      	blt.n	80069f0 <_malloc_trim_r+0x64>
 80069b6:	2100      	movs	r1, #0
 80069b8:	f7ff ffd6 	bl	8006968 <_sbrk_r>
 80069bc:	68ab      	ldr	r3, [r5, #8]
 80069be:	199b      	adds	r3, r3, r6
 80069c0:	4298      	cmp	r0, r3
 80069c2:	d019      	beq.n	80069f8 <_malloc_trim_r+0x6c>
 80069c4:	4620      	mov	r0, r4
 80069c6:	f7ff ffcd 	bl	8006964 <__malloc_unlock>
 80069ca:	2000      	movs	r0, #0
 80069cc:	bdf8      	pop	{r3, r4, r5, r6, r7, pc}
 80069ce:	2100      	movs	r1, #0
 80069d0:	4620      	mov	r0, r4
 80069d2:	f7ff ffc9 	bl	8006968 <_sbrk_r>
 80069d6:	68ab      	ldr	r3, [r5, #8]
 80069d8:	1ac2      	subs	r2, r0, r3
 80069da:	2a0f      	cmp	r2, #15
 80069dc:	dd07      	ble.n	80069ee <_malloc_trim_r+0x62>
 80069de:	4911      	ldr	r1, [pc, #68]	; (8006a24 <_malloc_trim_r+0x98>)
 80069e0:	f042 0201 	orr.w	r2, r2, #1
 80069e4:	6809      	ldr	r1, [r1, #0]
 80069e6:	605a      	str	r2, [r3, #4]
 80069e8:	1a40      	subs	r0, r0, r1
 80069ea:	490f      	ldr	r1, [pc, #60]	; (8006a28 <_malloc_trim_r+0x9c>)
 80069ec:	6008      	str	r0, [r1, #0]
 80069ee:	4620      	mov	r0, r4
 80069f0:	f7ff ffb8 	bl	8006964 <__malloc_unlock>
 80069f4:	2000      	movs	r0, #0
 80069f6:	bdf8      	pop	{r3, r4, r5, r6, r7, pc}
 80069f8:	4279      	negs	r1, r7
 80069fa:	4620      	mov	r0, r4
 80069fc:	f7ff ffb4 	bl	8006968 <_sbrk_r>
 8006a00:	3001      	adds	r0, #1
 8006a02:	d0e4      	beq.n	80069ce <_malloc_trim_r+0x42>
 8006a04:	4b08      	ldr	r3, [pc, #32]	; (8006a28 <_malloc_trim_r+0x9c>)
 8006a06:	68aa      	ldr	r2, [r5, #8]
 8006a08:	6819      	ldr	r1, [r3, #0]
 8006a0a:	1bf6      	subs	r6, r6, r7
 8006a0c:	f046 0601 	orr.w	r6, r6, #1
 8006a10:	1bcf      	subs	r7, r1, r7
 8006a12:	4620      	mov	r0, r4
 8006a14:	6056      	str	r6, [r2, #4]
 8006a16:	601f      	str	r7, [r3, #0]
 8006a18:	f7ff ffa4 	bl	8006964 <__malloc_unlock>
 8006a1c:	2001      	movs	r0, #1
 8006a1e:	bdf8      	pop	{r3, r4, r5, r6, r7, pc}
 8006a20:	20000480 	.word	0x20000480
 8006a24:	20000888 	.word	0x20000888
 8006a28:	20000d58 	.word	0x20000d58

08006a2c <_free_r>:
 8006a2c:	e92d 41f0 	stmdb	sp!, {r4, r5, r6, r7, r8, lr}
 8006a30:	460d      	mov	r5, r1
 8006a32:	4604      	mov	r4, r0
 8006a34:	2900      	cmp	r1, #0
 8006a36:	d058      	beq.n	8006aea <_free_r+0xbe>
 8006a38:	f7ff ff92 	bl	8006960 <__malloc_lock>
 8006a3c:	f855 0c04 	ldr.w	r0, [r5, #-4]
 8006a40:	4e59      	ldr	r6, [pc, #356]	; (8006ba8 <_free_r+0x17c>)
 8006a42:	f1a5 0108 	sub.w	r1, r5, #8
 8006a46:	f020 0301 	bic.w	r3, r0, #1
 8006a4a:	18ca      	adds	r2, r1, r3
 8006a4c:	f8d6 c008 	ldr.w	ip, [r6, #8]
 8006a50:	6857      	ldr	r7, [r2, #4]
 8006a52:	4594      	cmp	ip, r2
 8006a54:	f027 0703 	bic.w	r7, r7, #3
 8006a58:	d064      	beq.n	8006b24 <_free_r+0xf8>
 8006a5a:	f010 0001 	ands.w	r0, r0, #1
 8006a5e:	6057      	str	r7, [r2, #4]
 8006a60:	d032      	beq.n	8006ac8 <_free_r+0x9c>
 8006a62:	2000      	movs	r0, #0
 8006a64:	19d5      	adds	r5, r2, r7
 8006a66:	686d      	ldr	r5, [r5, #4]
 8006a68:	f015 0f01 	tst.w	r5, #1
 8006a6c:	d106      	bne.n	8006a7c <_free_r+0x50>
 8006a6e:	19db      	adds	r3, r3, r7
 8006a70:	6895      	ldr	r5, [r2, #8]
 8006a72:	2800      	cmp	r0, #0
 8006a74:	d04a      	beq.n	8006b0c <_free_r+0xe0>
 8006a76:	68d2      	ldr	r2, [r2, #12]
 8006a78:	60ea      	str	r2, [r5, #12]
 8006a7a:	6095      	str	r5, [r2, #8]
 8006a7c:	f043 0201 	orr.w	r2, r3, #1
 8006a80:	604a      	str	r2, [r1, #4]
 8006a82:	50cb      	str	r3, [r1, r3]
 8006a84:	b9d8      	cbnz	r0, 8006abe <_free_r+0x92>
 8006a86:	f5b3 7f00 	cmp.w	r3, #512	; 0x200
 8006a8a:	d330      	bcc.n	8006aee <_free_r+0xc2>
 8006a8c:	0a5a      	lsrs	r2, r3, #9
 8006a8e:	2a04      	cmp	r2, #4
 8006a90:	d863      	bhi.n	8006b5a <_free_r+0x12e>
 8006a92:	099d      	lsrs	r5, r3, #6
 8006a94:	3538      	adds	r5, #56	; 0x38
 8006a96:	00e8      	lsls	r0, r5, #3
 8006a98:	1986      	adds	r6, r0, r6
 8006a9a:	68b2      	ldr	r2, [r6, #8]
 8006a9c:	4842      	ldr	r0, [pc, #264]	; (8006ba8 <_free_r+0x17c>)
 8006a9e:	42b2      	cmp	r2, r6
 8006aa0:	d103      	bne.n	8006aaa <_free_r+0x7e>
 8006aa2:	e060      	b.n	8006b66 <_free_r+0x13a>
 8006aa4:	6892      	ldr	r2, [r2, #8]
 8006aa6:	4296      	cmp	r6, r2
 8006aa8:	d004      	beq.n	8006ab4 <_free_r+0x88>
 8006aaa:	6850      	ldr	r0, [r2, #4]
 8006aac:	f020 0003 	bic.w	r0, r0, #3
 8006ab0:	4283      	cmp	r3, r0
 8006ab2:	d3f7      	bcc.n	8006aa4 <_free_r+0x78>
 8006ab4:	68d3      	ldr	r3, [r2, #12]
 8006ab6:	60cb      	str	r3, [r1, #12]
 8006ab8:	608a      	str	r2, [r1, #8]
 8006aba:	60d1      	str	r1, [r2, #12]
 8006abc:	6099      	str	r1, [r3, #8]
 8006abe:	4620      	mov	r0, r4
 8006ac0:	e8bd 41f0 	ldmia.w	sp!, {r4, r5, r6, r7, r8, lr}
 8006ac4:	f7ff bf4e 	b.w	8006964 <__malloc_unlock>
 8006ac8:	f855 cc08 	ldr.w	ip, [r5, #-8]
 8006acc:	f106 0808 	add.w	r8, r6, #8
 8006ad0:	ebcc 0101 	rsb	r1, ip, r1
 8006ad4:	688d      	ldr	r5, [r1, #8]
 8006ad6:	4463      	add	r3, ip
 8006ad8:	4545      	cmp	r5, r8
 8006ada:	d03c      	beq.n	8006b56 <_free_r+0x12a>
 8006adc:	f8d1 c00c 	ldr.w	ip, [r1, #12]
 8006ae0:	f8c5 c00c 	str.w	ip, [r5, #12]
 8006ae4:	f8cc 5008 	str.w	r5, [ip, #8]
 8006ae8:	e7bc      	b.n	8006a64 <_free_r+0x38>
 8006aea:	e8bd 81f0 	ldmia.w	sp!, {r4, r5, r6, r7, r8, pc}
 8006aee:	08db      	lsrs	r3, r3, #3
 8006af0:	109a      	asrs	r2, r3, #2
 8006af2:	2001      	movs	r0, #1
 8006af4:	4090      	lsls	r0, r2
 8006af6:	eb06 03c3 	add.w	r3, r6, r3, lsl #3
 8006afa:	6875      	ldr	r5, [r6, #4]
 8006afc:	689a      	ldr	r2, [r3, #8]
 8006afe:	4328      	orrs	r0, r5
 8006b00:	60cb      	str	r3, [r1, #12]
 8006b02:	608a      	str	r2, [r1, #8]
 8006b04:	6070      	str	r0, [r6, #4]
 8006b06:	6099      	str	r1, [r3, #8]
 8006b08:	60d1      	str	r1, [r2, #12]
 8006b0a:	e7d8      	b.n	8006abe <_free_r+0x92>
 8006b0c:	4f27      	ldr	r7, [pc, #156]	; (8006bac <_free_r+0x180>)
 8006b0e:	42bd      	cmp	r5, r7
 8006b10:	d1b1      	bne.n	8006a76 <_free_r+0x4a>
 8006b12:	f043 0201 	orr.w	r2, r3, #1
 8006b16:	6171      	str	r1, [r6, #20]
 8006b18:	6131      	str	r1, [r6, #16]
 8006b1a:	60cd      	str	r5, [r1, #12]
 8006b1c:	608d      	str	r5, [r1, #8]
 8006b1e:	604a      	str	r2, [r1, #4]
 8006b20:	50cb      	str	r3, [r1, r3]
 8006b22:	e7cc      	b.n	8006abe <_free_r+0x92>
 8006b24:	07c2      	lsls	r2, r0, #31
 8006b26:	443b      	add	r3, r7
 8006b28:	d407      	bmi.n	8006b3a <_free_r+0x10e>
 8006b2a:	f855 5c08 	ldr.w	r5, [r5, #-8]
 8006b2e:	1b49      	subs	r1, r1, r5
 8006b30:	68ca      	ldr	r2, [r1, #12]
 8006b32:	6888      	ldr	r0, [r1, #8]
 8006b34:	195b      	adds	r3, r3, r5
 8006b36:	60c2      	str	r2, [r0, #12]
 8006b38:	6090      	str	r0, [r2, #8]
 8006b3a:	4a1d      	ldr	r2, [pc, #116]	; (8006bb0 <_free_r+0x184>)
 8006b3c:	f043 0001 	orr.w	r0, r3, #1
 8006b40:	6812      	ldr	r2, [r2, #0]
 8006b42:	6048      	str	r0, [r1, #4]
 8006b44:	4293      	cmp	r3, r2
 8006b46:	60b1      	str	r1, [r6, #8]
 8006b48:	d3b9      	bcc.n	8006abe <_free_r+0x92>
 8006b4a:	4b1a      	ldr	r3, [pc, #104]	; (8006bb4 <_free_r+0x188>)
 8006b4c:	4620      	mov	r0, r4
 8006b4e:	6819      	ldr	r1, [r3, #0]
 8006b50:	f7ff ff1c 	bl	800698c <_malloc_trim_r>
 8006b54:	e7b3      	b.n	8006abe <_free_r+0x92>
 8006b56:	2001      	movs	r0, #1
 8006b58:	e784      	b.n	8006a64 <_free_r+0x38>
 8006b5a:	2a14      	cmp	r2, #20
 8006b5c:	d80b      	bhi.n	8006b76 <_free_r+0x14a>
 8006b5e:	f102 055b 	add.w	r5, r2, #91	; 0x5b
 8006b62:	00e8      	lsls	r0, r5, #3
 8006b64:	e798      	b.n	8006a98 <_free_r+0x6c>
 8006b66:	10ad      	asrs	r5, r5, #2
 8006b68:	2601      	movs	r6, #1
 8006b6a:	40ae      	lsls	r6, r5
 8006b6c:	6845      	ldr	r5, [r0, #4]
 8006b6e:	4613      	mov	r3, r2
 8006b70:	4335      	orrs	r5, r6
 8006b72:	6045      	str	r5, [r0, #4]
 8006b74:	e79f      	b.n	8006ab6 <_free_r+0x8a>
 8006b76:	2a54      	cmp	r2, #84	; 0x54
 8006b78:	d803      	bhi.n	8006b82 <_free_r+0x156>
 8006b7a:	0b1d      	lsrs	r5, r3, #12
 8006b7c:	356e      	adds	r5, #110	; 0x6e
 8006b7e:	00e8      	lsls	r0, r5, #3
 8006b80:	e78a      	b.n	8006a98 <_free_r+0x6c>
 8006b82:	f5b2 7faa 	cmp.w	r2, #340	; 0x154
 8006b86:	d803      	bhi.n	8006b90 <_free_r+0x164>
 8006b88:	0bdd      	lsrs	r5, r3, #15
 8006b8a:	3577      	adds	r5, #119	; 0x77
 8006b8c:	00e8      	lsls	r0, r5, #3
 8006b8e:	e783      	b.n	8006a98 <_free_r+0x6c>
 8006b90:	f240 5054 	movw	r0, #1364	; 0x554
 8006b94:	4282      	cmp	r2, r0
 8006b96:	d803      	bhi.n	8006ba0 <_free_r+0x174>
 8006b98:	0c9d      	lsrs	r5, r3, #18
 8006b9a:	357c      	adds	r5, #124	; 0x7c
 8006b9c:	00e8      	lsls	r0, r5, #3
 8006b9e:	e77b      	b.n	8006a98 <_free_r+0x6c>
 8006ba0:	f44f 707c 	mov.w	r0, #1008	; 0x3f0
 8006ba4:	257e      	movs	r5, #126	; 0x7e
 8006ba6:	e777      	b.n	8006a98 <_free_r+0x6c>
 8006ba8:	20000480 	.word	0x20000480
 8006bac:	20000488 	.word	0x20000488
 8006bb0:	2000088c 	.word	0x2000088c
 8006bb4:	20000d54 	.word	0x20000d54

08006bb8 <minor_table>:
 8006bb8:	01350000 03a1026b 060d04d7 08770742     ..5.k.......B.w.
 8006bc8:	0ae109ad 0d4a0c16 0fb20e7e 121810e5     ......J.~.......
 8006bd8:	147c134a 16de15ad 193e180f 1b9c1a6d     J.|.......>.m...
 8006be8:	1df61cc9 204e1f22 22a22179 24f323cb     ....".N y!.".#.$
 8006bf8:	2741261b 298a2866 2bd02aae 2e112cf1     .&A'f(.).*.+.,..
 8006c08:	304d2f2f 3285316a 34b7339f 36e535cf     //M0j1.2.3.4.5.6
 8006c18:	390d37fa 3b2f3a1f 3d4c3c3e 3f623e58     .7.9.:/;><L=X>b?
 8006c28:	4172406b 437c4278 457f447e 477b467e     k@rAxB|C~D.E~F{G
 8006c38:	49704877 4b5e4a68 4d454c53 4f244e35     wHpIhJ^KSLEM5N$O
 8006c48:	50fb5010 52ca51e3 549153ae 564f5571     .P.P.Q.R.S.TqUOV
 8006c58:	5805572b 59b358dd 5b575a86 5cf35c26     +W.X.X.Y.ZW[&\.\
 8006c68:	5e865dbe 600f5f4c 618f60d0 6305624b     .].^L_.`.`.aKb.c
 8006c78:	647263bd 65d56525 672e6683 687d67d6     .crd%e.e.f.g.g}h
 8006c88:	69c16920 6afc6a60 6c2c6b95 6d516cc0      i.i`j.j.k,l.lQm
 8006c98:	6e6c6de0 6f7c6ef5 70817000 717b7100     .mln.n|o.p.p.q{q
 8006ca8:	726b71f4 734f72de 742873bd 74f67491     .qkr.rOs.s(t.t.t
 8006cb8:	75b97559 76707616 771c76c7 77bc776e     Yu.u.vpv.v.wnw.w
 8006cc8:	78517808 78db7898 7959791b 79cb7993     .xQx.x.x.yYy.y.y
 8006cd8:	7a327a00 7a8d7a60 7adc7ab6 7b1f7aff     .z2z`z.z.z.z.z.{
 8006ce8:	7b577b3d 7b837b6f 7ba47b95 7bb97bb0     ={W{o{.{.{.{.{.{
 8006cf8:	7bc27bbf 7bbf7bc2 7bb17bba 7b977ba6     .{.{.{.{.{.{.{.{
 8006d08:	7b727b86 7b417b5b 7b057b24 7abd7ae2     .{r{[{A{${.{.z.z
 8006d18:	7a697a94 7a0a7a3b 79a079d7 792b7967     .ziz;z.z.y.ygy+y
 8006d28:	78aa78ec 781f7866 778877d5 76e77739     .x.xfx.x.w.w9w.v
 8006d38:	763a7692 758375e0 74c17523 73f4745c     .v:v.u.u#u.t\t.s
 8006d48:	731d738a 723c72ae 715071c7 705a70d6     .s.s.r<r.qPq.pZp
 8006d58:	6f5a6fdb 6e506ed6 6d3c6dc8 6c1f6caf     .oZo.nPn.m<m.l.l
 8006d68:	6af86b8d 69c86a61 688e692c 674c67ee     .k.jaj.i,i.h.gLg
 8006d78:	660066a7 64ab6557 634e63fe 61e9629c     .f.fWe.d.cNc.b.a
 8006d88:	607b6133 5f045fc0 5d865e46 5c005cc4     3a{`._._F^.].\.\
 8006d98:	5a725b3a 58dd59a8 5740580f 559c566f     :[rZ.Y.X.X@WoV.U
 8006da8:	53f254c8 5240531a 50885165 4eca4faa     .T.S.S@ReQ.P.O.N
 8006db8:	4d054de8 4b3a4c20 49694a52 4793487f     .M.M L:KRJiI.H.G
 8006dc8:	45b746a6 43d744c8 41f142e4 400640fc     .F.E.D.C.B.A.@.@
 8006dd8:	3e173f0f 3c233d1d 3a2b3b27 382f392d     .?.>.=#<';+:-9/8
 8006de8:	362f3730 342c352e 32253329 301b3121     07/6.5,4)3%2!1.0
 8006df8:	2e0f2f15 2bff2d07 29ed2af7 27d928e4     ./...-.+.*.).(.'
 8006e08:	25c326ce 23ab24b7 2191229e 1f762084     .&.%.$.#.".!. v.
 8006e18:	1d591e68 1b3c1c4b 191e1a2d 16ff180f     h.Y.K.<.-.......
 8006e28:	14e015f0 12c113d1 10a211b2 0e830f93     ................
 8006e38:	0c650d74 0a480b56 082b0939 0610071d     t.e.V.H.9.+.....
 8006e48:	03f50502 01dd02e9 ffc600d1 fdb1febb     ................
 8006e58:	fb9ffca8 f98efa96 f781f887 f576f67b     ............{.v.
 8006e68:	f36ef472 f169f26b ef68f068 ed6aee68     r.n.k.i.h.h.h.j.
 8006e78:	eb70ec6c e97aea74 e787e880 e59ae690     l.p.t.z.........
 8006e88:	e3b0e4a4 e1cbe2bd dfebe0db de10defd     ................
 8006e98:	dc3bdd25 da6adb52 d89fd984 d6dad7bc     %.;.R.j.........
 8006ea8:	d51ad5f9 d360d43c d1add286 cfffd0d5     ....<.`.........
 8006eb8:	ce58cf2b ccb8cd87 cb1ecbea c98bca53     +.X.........S...
 8006ec8:	c7ffc8c4 c67ac73b c4fcc5ba c385c43f     ....;.z.....?...
 8006ed8:	c216c2cc c0aec161 bf4ebffd bdf6bea1     ....a.....N.....
 8006ee8:	bca5bd4c bb5dbc00 ba1cbabb b8e3b97f     L.....].........
 8006ef8:	b7b3b84a b68bb71e b56cb5fa b454b4df     J.........l...T.
 8006f08:	b346b3cc b240b2c2 b142b1c0 b04db0c7     ..F...@...B...M.
 8006f18:	af61afd6 ae7eaeef ada4ae10 acd2ad3a     ..a...~.....:...
 8006f28:	ac0aac6d ab4aaba9 aa93aaee a9e6aa3b     m.....J.....;...
 8006f38:	a941a992 a8a6a8f2 a813a85b a78aa7cd     ..A.....[.......
 8006f48:	a70aa749 a692a6cd a624a65a a5bfa5f1     I.......Z.$.....
 8006f58:	a563a590 a511a539 a4c7a4eb a486a4a5     ..c.9...........
 8006f68:	a44ea469 a420a436 a3faa40b a3dda3ea     i.N.6. .........
 8006f78:	a3c9a3d2 a3bda3c2 a3bba3bb a3c1a3bd     ................
 8006f88:	a3d0a3c8 a3e8a3db a408a3f7 a431a41b     ..............1.
 8006f98:	a462a448 a49ba47d a4dda4bb a527a501     H.b.}.........'.
 8006fa8:	a579a54f a5d3a5a5 a635a603 a69fa669     O.y.......5.i...
 8006fb8:	a711a6d7 a78aa74c a80ba7ca a893a84e     ....L.......N...
 8006fc8:	a923a8da a9baa96e aa59aa09 aafeaaaa     ..#.n.....Y.....
 8006fd8:	abaaab53 ac5dac03 ad17acba add8ad77     S.....].....w...
 8006fe8:	ae9fae3a af6caf04 b03fafd5 b119b0ab     :.....l...?.....
 8006ff8:	b1f8b188 b2ddb26a b3c8b352 b4b9b440     ....j...R...@...
 8007008:	b5afb533 b6aab62c b7aab72a b8b0b82c     3...,...*...,...
 8007018:	b9bab934 bac9ba41 bbdcbb52 bcf4bc68     4...A...R...h...
 8007028:	be10bd82 bf30bea0 c055bfc2 c17dc0e8     ......0...U...}.
 8007038:	c2a8c212 c3d7c33f c50ac470 c640c5a5     ....?...p.....@.
 8007048:	c779c6dc c8b4c816 c9f3c953 cb34ca93     ..y.....S.....4.
 8007058:	cc77cbd5 cdbdcd1a cf05ce61 d04fcfaa     ..w.....a.....O.
 8007068:	d19bd0f5 d2e8d241 d437d38f d587d4df     ....A.....7.....
 8007078:	d6d9d630 d82bd782 d97fd8d5 dad3da29     0.....+.....)...
 8007088:	dc28db7d dd7ddcd2 ded3de28 e028df7d     }.(...}.(...}.(.
 8007098:	e17ee0d3 e2d4e229 e429e37f e57ee4d4     ..~.).....)...~.
 80070a8:	e6d3e629 e827e77d e979e8d0 eacbea23     )...}.'...y.#...
 80070b8:	ec1ceb74 ed6cecc4 eebaee13 f007ef61     t.....l.....a...
 80070c8:	f152f0ad f29cf1f7 f3e3f340 f529f486     ..R.....@.....).
 80070d8:	f66cf5cb f7aef70d f8edf84d fa29f98b     ..l.....M.....).
 80070e8:	fb63fac6 fc9afbff fdcefd35 ff00fe67     ..c.....5...g...
 80070f8:	002eff97 015a00c4 028201ee 03a70315     ......Z.........
 8007108:	04c80438 05e60558 07010674 0817078c     8...X...t.......
 8007118:	092a08a1 0a3a09b2 0b450ac0 0c4c0bc9     ..*...:...E...L.
 8007128:	0d500cce 0e4f0dd0 0f4a0ecd 10400fc6     ..P...O...J...@.
 8007138:	113310ba 122111aa 130a1296 13f0137e     ..3...!.....~...
 8007148:	14d01460 15ac153f 16841618 175616ed     `...?.........V.
 8007158:	182417be 18ed1889 19b21950 1a711a12     ..$.....P.....q.
 8007168:	1b2c1acf 1be21b88 1c931c3b 1d3f1cea     ..,.....;.....?.
 8007178:	1de61d94 1e891e38 1f261ed8 1fbe1f73     ....8.....&.s...
 8007188:	20522009 20e02099 21692125 21ee21ac     . R . . %!i!.!.!
 8007198:	226d222e 22e722ab 235d2323 23cd2396     ."m"."."##]#.#.#
 80071a8:	24392404 24a0246d 250124d1 255e2530     .$9$m$.$.$.%0%^%
 80071b8:	25b6258b 260925e0 26582631 26a1267d     .%.%.%.&1&X&}&.&
 80071c8:	26e626c4 27262707 27622745 2799277e     .&.&.'&'E'b'~'.'
 80071d8:	27cb27b2 27f927e2 2822280e 28472835     .'.'.'.'.("(5(G(
 80071e8:	28672857 28832875 289b288f 28ae28a5     W(g(u(.(.(.(.(.(
 80071f8:	28bd28b6 28c928c4 28d028cd 28d328d2     .(.(.(.(.(.(.(.(
 8007208:	28d228d3 28cd28d0 28c528c9 28b928bf     .(.(.(.(.(.(.(.(
 8007218:	28a928b1 2895289f 287e288a 28642871     .(.(.(.(.(~(q(d(
 8007228:	28462855 28242835 28002813 27d927ed     U(F(5($(.(.(.'.'
 8007238:	27ae27c4 27802797 27502768 271c2736     .'.'.'.'h'P'6'.'
 8007248:	26e62702 26ad26ca 26722690 26342653     .'.&.&.&.&r&S&4&
 8007258:	25f42614 25b125d3 256c258f 25252549     .&.%.%.%.%l%I%%%
 8007268:	24dc2501 249124b7 2444246b 23f5241d     .%.$.$.$k$D$.$.#
 8007278:	23a423cd 2352237c 22fe2328 22a922d4     .#.#|#R#(#."."."
 8007288:	2252227e 21fa2226 21a121ce 21472174     ~"R"&".!.!.!t!G!
 8007298:	20eb2119 208f20bd 20312060 1fd32002     .!. . . ` 1 . ..
 80072a8:	1f741fa4 1f151f44 1eb41ee4 1e541e84     ..t.D.........T.
 80072b8:	1df31e23 1d911dc2 1d301d60 1cce1cff     #.......`.0.....
 80072c8:	1c6c1c9d 1c0a1c3b 1ba81bd9 1b461b77     ..l.;.......w.F.
 80072d8:	1ae41b15 1a831ab4 1a221a52 19c119f1     ........R.".....
 80072e8:	19611991 19011931 18a218d1 18431872     ..a.1.......r.C.
 80072f8:	17e51814 178817b7 172c175a 16d116fe     ........Z.,.....
 8007308:	167616a3 161d1649 15c415f0 156d1598     ..v.I.........m.
 8007318:	15161541 14c114ec 146d1497 141a1444     A.........m.D...
 8007328:	13c913f2 137913a1 132a1352 12dd1304     ......y.R.*.....
 8007338:	129112b7 1247126c 11fe1222 11b711da     ....l.G.".......
 8007348:	11711193 112d114e 10ea110b 10a910c9     ..q.N.-.........
 8007358:	10691089 102c104a 0ff0100e 0fb50fd2     ..i.J.,.........
 8007368:	0f7d0f99 0f460f61 0f100f2b 0edd0ef6     ..}.a.F.+.......
 8007378:	0eab0ec4 0e7b0e93 0e4c0e63 0e200e36     ......{.c.L.6. .
 8007388:	0df50e0a 0dcc0de0 0da40db8 0d7e0d91     ..............~.
 8007398:	0d5a0d6c 0d370d48 0d170d27 0cf70d07     l.Z.H.7.'.......
 80073a8:	0cda0ce8 0cbe0ccb 0ca30cb0 0c8a0c97     ................
 80073b8:	0c730c7e 0c5d0c68 0c490c53 0c360c3f     ~.s.h.].S.I.?.6.
 80073c8:	0c240c2d 0c140c1c 0c060c0d 0bf80bff     -.$.............
 80073d8:	0bec0bf2 0be10be6 0bd70bdc 0bcf0bd3     ................
 80073e8:	0bc70bcb 0bc10bc4 0bbc0bbe 0bb70bb9     ................
 80073f8:	0bb40bb6 0bb20bb3 0bb00bb1 0baf0bb0     ................
 8007408:	0baf0baf 0bb00baf 0bb10bb0 0bb30bb2     ................
 8007418:	0bb60bb4 0bb90bb7 0bbc0bba 0bc00bbe     ................
 8007428:	0bc40bc2 0bc80bc6 0bcd0bca 0bd20bcf     ................
 8007438:	0bd60bd4 0bdb0bd9 0be00bde 0be50be3     ................
 8007448:	0bea0be7 0bee0bec 0bf20bf0 0bf60bf5     ................
 8007458:	0bfa0bf8 0bfd0bfc 0c000bff 0c020c01     ................
 8007468:	0c040c03 0c040c04 0c050c05 0c040c04     ................
 8007478:	0c030c03 0c000c02 0bfd0bff 0bf90bfb     ................
 8007488:	0bf30bf6 0bed0bf0 0be50be9 0bdd0be1     ................
 8007498:	0bd30bd8 0bc70bcd 0bba0bc1 0bac0bb4     ................
 80074a8:	0b9d0ba5 0b8b0b94 0b790b82 0b640b6f     ..........y.o.d.
 80074b8:	0b4e0b5a 0b370b43 0b1d0b2a 0b020b10     Z.N.C.7.*.......
 80074c8:	0ae50af4 0ac60ad6 0aa50ab6 0a830a94     ................
 80074d8:	0a5e0a71 0a370a4b 0a0f0a23 09e409f9     q.^.K.7.#.......
 80074e8:	09b709ce 098809a0 0957096f 0923093d     ........o.W.=.#.
 80074f8:	08ee0909 08b608d2 087c0899 083f085e     ..........|.^.?.
 8007508:	08010820 07c007e1 077d079f 0737075a      .........}.Z.7.
 8007518:	06ef0714 06a506cb 0659067f 060a0632     ..........Y.2...
 8007528:	05b905e1 0565058f 050f053a 04b704e3     ......e.:.......
 8007538:	045c048a 03ff042e 03a003d0 033e036f     ..\.........o.>.
 8007548:	02da030c 027402a7 020c0240 01a101d6     ......t.@.......
 8007558:	0134016b 00c500fc 0053008c ffdf001a     k.4.......S.....
 8007568:	ff6affa5 fef2ff2e fe78feb5 fdfcfe3a     ..j.......x.:...
 8007578:	fd7efdbd fcfefd3e fc7cfcbd fbf8fc3a     ..~.>.....|.:...
 8007588:	fb72fbb6 faebfb2f fa62faa6 f9d7fa1c     ..r./.....b.....
 8007598:	f94af990 f8bbf903 f82cf874 f79af7e3     ..J.....t.,.....
 80075a8:	f707f751 f673f6bd f5ddf628 f546f592     Q.....s.(.....F.
 80075b8:	f4aef4fa f414f461 f37af3c7 f2def32c     ....a.....z.,...
 80075c8:	f242f290 f1a4f1f3 f106f155 f067f0b7     ..B.....U.....g.
 80075d8:	efc7f017 ef27ef77 ee86eed6 ede4ee35     ....w.'.....5...
 80075e8:	ed42ed93 eca0ecf1 ebfeec4f eb5bebac     ..B.....O.....[.
 80075f8:	eab8eb0a ea16ea67 e973e9c4 e8d0e922     ....g.....s."...
 8007608:	e82ee87f e78ce7dd e6ebe73b e649e69a     ........;.....I.
 8007618:	e5a9e5f9 e509e559 e46ae4b9 e3cce41b     ....Y.....j.....
 8007628:	e32ee37d e292e2e0 e1f6e244 e15ce1a9     }.......D.....\.
 8007638:	e0c3e110 e02ce078 df96dfe1 df01df4b     ....x.,.....K...
 8007648:	de6edeb8 ddddde25 dd4edd95 dcc0dd06     ..n.%.....N.....
 8007658:	dc34dc7a dbabdbef db23db67 da9edae0     z.4.....g.#.....
 8007668:	da1bda5c d99ad9da d91cd95b d8a1d8de     \.......[.......
 8007678:	d828d864 d7b1d7ec d73ed777 d6cdd705     d.(.....w.>.....
 8007688:	d660d696 d5f5d62a d58dd5c1 d529d55b     ..`.*.......[.).
 8007698:	d4c8d4f8 d46ad499 d410d43d d3b9d3e4     ......j.=.......
 80076a8:	d365d38f d316d33d d2cad2ef d281d2a5     ..e.=...........
 80076b8:	d23dd25e d1fcd21c d1bfd1dd d186d1a2     ^.=.............
 80076c8:	d152d16b d121d139 d0f4d10a d0ccd0e0     k.R.9.!.........
 80076d8:	d0a8d0b9 d088d097 d06dd07a d056d061     ........z.m.a.V.
 80076e8:	d043d04c d035d03b d02bd02f d026d028     L.C.;.5./.+.(.&.
 80076f8:	d026d025 d02ad027 d032d02d d040d039     %.&.'.*.-.2.9.@.
 8007708:	d052d048 d069d05d d084d076 d0a5d094     H.R.].i.v.......
 8007718:	d0cad0b7 d0f4d0de d122d10a d156d13c     ..........".<.V.
 8007728:	d18ed172 d1cbd1ac d20dd1ec d254d230     r...........0.T.
 8007738:	d2a0d27a d2f0d2c8 d346d31b d3a0d372     z.........F.r...
 8007748:	d3ffd3cf d463d430 d4cbd496 d538d501     ....0.c.......8.
 8007758:	d5aad571 d621d5e5 d69cd65e d71cd6db     q.....!.^.......
 8007768:	d7a1d75e d82ad7e5 d8b7d870 d94ad900     ^.....*.p.....J.
 8007778:	d9e0d994 da7bda2d db1bdacb dbbfdb6c     ....-.{.....l...
 8007788:	dc67dc12 dd13dcbc ddc3dd6b de78de1d     ..g.....k.....x.
 8007798:	df31ded4 dfeddf8e e0aee04d e172e10f     ..1.....M.....r.
 80077a8:	e23ae1d6 e306e2a0 e3d6e36e e4a9e43f     ..:.....n...?...
 80077b8:	e580e514 e65ae5ec e737e6c8 e818e7a7     ......Z...7.....
 80077c8:	e8fce889 e9e2e96f eaccea57 ebb9eb42     ....o...W...B...
 80077d8:	eca9ec31 ed9bed22 ee90ee15 ef88ef0c     1..."...........
 80077e8:	f082f004 f17ef0ff f27cf1fd f37df2fc     ......~...|...}.
 80077f8:	f480f3fe f584f502 f68af607 f792f70e     ................
 8007808:	f89cf817 f9a7f921 fab4fa2d fbc1fb3a     ....!...-...:...
 8007818:	fcd0fc49 fde0fd58 fef1fe69 0003ff7a     I...X...i...z...
 8007828:	0115008c 0228019e 033b02b1 044f03c5     ......(...;...O.
 8007838:	056204d9 067605ec 078a0700 089e0814     ..b...v.........
 8007848:	09b10928 0ac40a3b 0bd70b4e 0ce90c60     (...;...N...`...
 8007858:	0dfa0d71 0f0a0e82 10190f92 112710a0     q.............'.
 8007868:	123411ae 133f12ba 144913c4 155114ce     ..4...?...I...Q.
 8007878:	165815d5 175d16db 185f17de 196018e0     ..X...]..._...`.
 8007888:	1a5e19e0 1b5b1add 1c541bd8 1d4b1cd0     ..^...[...T...K.
 8007898:	1e401dc6 1f311eb9 20201fa9 210c2096     ..@...1...  . .!
 80078a8:	21f42181 22da2268 23bc234b 249a242c     .!.!h"."K#.#,$.$
 80078b8:	25762508 264d25e2 272126b7 27f02789     .%v%.%M&.&!'.'.'
 80078c8:	28bc2857 29842921 2a4829e6 2b072aa8     W(.(!).).)H*.*.+
 80078d8:	2bc22b65 2c792c1e 2d2b2cd3 2dd92d83     e+.+.,y,.,+-.-.-
 80078e8:	2e822e2e 2f262ed5 2fc62f76 30603013     ......&/v/./.0`0
 80078f8:	30f530ab 3186313e 321131cc 32973255     .0.0>1.1.1.2U2.2
 8007908:	331832d8 33943357 340a33cf 347b3443     .2.3W3.3.3.4C4{4
 8007918:	34e634b1 354b3519 35ac357c 360635d9     .4.4.5K5|5.5.5.6
 8007928:	365b3631 36aa3683 36f336cf 37363715     16[6.6.6.6.6.767
 8007938:	37743756 37ab3790 37dd37c5 380937f4     V7t7.7.7.7.7.7.8
 8007948:	382f381d 384f383f 3868385c 387c3873     .8/8?8O8\8h8s8|8
 8007958:	388a3884 3892388f 38933893 388f3892     .8.8.8.8.8.8.8.8
 8007968:	3885388b 3874387d 385e386a 38413850     .8.8}8t8j8^8P8A8
 8007978:	381f3831 37f6380b 37c837e0 379337ae     18.8.8.7.7.7.7.7
 8007988:	37593777 37183739 36d236f6 368636ad     w7Y797.7.6.6.6.6
 8007998:	3634365e 35dc3609 357f35ae 351b354e     ^646.6.5.5.5N5.5
 80079a8:	34b234e8 3444347c 33d0340a 33563394     .4.4|4D4.4.3.3V3
 80079b8:	32d73317 32533295 31c9320e 313a3182     .3.2.2S2.2.1.1:1
 80079c8:	30a530f0 300c3059 2f6d2fbd 2eca2f1c     .0.0Y0.0./m/./..
 80079d8:	2e222e76 2d742dcc 2cc22d1c 2c0c2c68     v."..-t-.-.,h,.,
 80079e8:	2b502baf 2a912af1 29cd2a2f 29042969     .+P+.*.*/*.)i).)
 80079f8:	2838289e 276727d0 269226fd 25b92626     .(8(.'g'.&.&&&.%
 8007a08:	24dd254c 23fd246d 2319238b 223222a6     L%.$m$.#.#.#."2"
 8007a18:	214721bd 205920d0 1f681fe1 1e741eee     .!G!. Y ..h...t.
 8007a28:	1d7d1df9 1c831d00 1b871c05 1a871b07     ..}.............
 8007a38:	19861a07 18821904 177c17ff 167416f8     ..........|...t.
 8007a48:	156a15ef 145e14e4 135113d8 124212ca     ..j...^...Q...B.
 8007a58:	113111ba 102010a9 0f0d0f96 0df90e83     ..1... .........
 8007a68:	0ce40d6f 0bcf0c5a 0ab90b44 09a20a2d     o...Z...D...-...
 8007a78:	088b0917 07740800 065d06e8 054605d1     ......t...]...F.
 8007a88:	042f04ba 031803a3 0202028d 00ec0177     ../.........w...
 8007a98:	ffd70062 fec3ff4d fdb0fe3a fc9ffd27     b...M...:...'...
 8007aa8:	fb8efc16 fa7ffb06 f971f9f8 f865f8eb     ..........q...e.
 8007ab8:	f75bf7e0 f652f6d6 f54cf5cf f448f4ca     ..[...R...L...H.
 8007ac8:	f346f3c7 f247f2c6 f14af1c8 f050f0cc     ..F...G...J...P.
 8007ad8:	ef58efd4 ee64eede ed72edeb ec84ecfb     ..X...d...r.....
 8007ae8:	eb99ec0e eab1eb24 e9cdea3e e8ece95c     ....$...>...\...
 8007af8:	e80fe87d e735e7a2 e660e6ca e58fe5f7     }.....5...`.....
 8007b08:	e4c1e527 e3f8e45c e333e395 e273e2d3     '...\.....3...s.
 8007b18:	e1b7e214 e0ffe15b e04de0a5 df9edff5     ....[.....M.....
 8007b28:	def5df49 de51dea2 ddb1de00 dd17dd63     I.....Q.....c...
 8007b38:	dc81dccb dbf1dc39 db66dbab dae1db23     ....9.....f.#...
 8007b48:	da60daa0 d9e5da22 d970d9aa d900d937     ..`.".....p.7...
 8007b58:	d896d8ca d831d862 d7d2d800 d778d7a4     ....b.1.......x.
 8007b68:	d724d74d d6d6d6fd d68ed6b2 d64cd66c     M.$.........l.L.
 8007b78:	d60fd62d d5d8d5f3 d5a8d5bf d57dd591     -.............}.
 8007b88:	d558d569 d538d547 d51fd52b d50cd515     i.X.G.8.+.......
 8007b98:	d4fed504 d4f7d4fa d4f5d4f5 d4fad4f7     ................
 8007ba8:	d504d4fe d514d50b d52ad51e d545d537     ..........*.7.E.
 8007bb8:	d567d556 d58ed57a d5bbd5a4 d5eed5d4     V.g.z...........
 8007bc8:	d626d609 d664d645 d6a8d685 d6f1d6cc     ..&.E.d.........
 8007bd8:	d740d718 d794d769 d7edd7c0 d84cd81c     ..@.i.........L.
 8007be8:	d8b0d87d d919d8e4 d987d94f d9fad9c0     }.......O.......
 8007bf8:	da73da36 daf0dab1 db72db30 dbf9dbb5     6.s.....0.r.....
 8007c08:	dc84dc3e dd14dccc dda9dd5e de42ddf5     >.......^.....B.
 8007c18:	dedfde90 df81df2f e026dfd3 e0d0e07b     ..../.....&.{...
 8007c28:	e17de126 e22fe1d6 e2e4e289 e39de340     &.}.../.....@...
 8007c38:	e459e3fa e518e4b8 e5dbe579 e6a1e63e     ..Y.....y...>...
 8007c48:	e76ae705 e836e7d0 e905e89d e9d6e96d     ..j...6.....m...
 8007c58:	eaaaea40 eb81eb15 ec59ebed ed34ecc7     @.........Y...4.
 8007c68:	ee11eda2 eef0ee80 efd1ef60 f0b3f042     ........`...B...
 8007c78:	f197f125 f27cf209 f363f2ef f44bf3d7     %.....|...c...K.
 8007c88:	f533f4bf f61df5a8 f707f692 f7f2f77c     ..3.........|...
 8007c98:	f8ddf867 f9c9f953 fab4fa3f fba0fb2a     g...S...?...*...
 8007ca8:	fc8cfc16 fd77fd02 fe63fded ff4dfed8     ......w...c...M.
 8007cb8:	0037ffc2 012000ac 02090195 02f0027c     ..7... .....|...
 8007cc8:	03d60363 04ba0448 059e052c 067f060f     c...H...,.......
 8007cd8:	075f06ef 083d07ce 091908ac 09f30987     .._...=.........
 8007ce8:	0acb0a5f 0ba00b36 0c730c0a 0d430cdc     _...6.....s...C.
 8007cf8:	0e110daa 0edb0e76 0fa30f40 10681006     ....v...@.....h.
 8007d08:	112910c9 11e71188 12a11244 135812fd     ..).....D.....X.
 8007d18:	140b13b2 14bb1464 15671511 160e15bb     ....d.....g.....
 8007d28:	16b21660 17511702 17ec179f 18831838     `.....Q.....8...
 8007d38:	191518cc 19a3195c 1a2c19e8 1ab01a6e     ....\.....,.n...
 8007d48:	1b2f1af0 1baa1b6d 1c1f1be5 1c901c58     ../.m.......X...
 8007d58:	1cfb1cc6 1d621d2f 1dc31d93 1e1e1df1     ..../.b.........
 8007d68:	1e751e4a 1ec51e9e 1f111eec 1f571f34     J.u.........4.W.
 8007d78:	1f971f78 1fd21fb5 20071fed 2036201f     x.......... . 6 
 8007d88:	205f204b 20832072 20a12093 20b920ae     K _ r . . . . . 
 8007d98:	20cb20c3 20d820d2 20de20dc 20df20df     . . . . . . . . 
 8007da8:	20d920dd 20ce20d4 20bd20c6 20a620b2     . . . . . . . . 
 8007db8:	20892098 20662078 203d2052 200e2026     . . x f R = & . 
 8007dc8:	1fda1ff5 1f9f1fbd 1f5f1f80 1f191f3d     .........._.=...
 8007dd8:	1ecd1ef4 1e7c1ea5 1e241e51 1dc71df7     ......|.Q.$.....
 8007de8:	1d651d97 1cfd1d32 1c8f1cc7 1c1c1c56     ..e.2.......V...
 8007df8:	1ba41be1 1b261b66 1aa31ae5 1a1b1a5f     ....f.&....._...
 8007e08:	198d19d4 18fb1944 186318af 17c61815     ....D.....c.....
 8007e18:	17251776 167f16d3 15d4162a 1525157d     v.%.....*...}.%.
 8007e28:	147114cc 13b91415 12fc135b 123b129c     ..q.....[.....;.
 8007e38:	117711da 10ae1113 0fe11048 0f100f79     ..w.....H...y...
 8007e48:	0e3c0ea7 0d640dd1 0c890cf7 0bab0c1a     ..<...d.........
 8007e58:	0ac90b3a 09e40a57 08fc0971 08120887     :...W...q.......
 8007e68:	0725079c 063506ad 054205bc 044e04c8     ..%...5...B...N.
 8007e78:	035703d3 025e02db 016401e1 006700e6     ..W...^...d...g.
 8007e88:	ff69ffe8 fe6afeea fd69fdea fc67fce8     ..i...j...i...g.
 8007e98:	fb64fbe6 fa60fae2 f95bf9de f856f8d9     ..d...`...[...V.
 8007ea8:	f751f7d4 f64bf6ce f545f5c8 f43ff4c2     ..Q...K...E...?.
 8007eb8:	f339f3bc f233f2b6 f12ef1b0 f029f0ac     ..9...3.......).
 8007ec8:	ef26efa7 ee23eea4 ed21eda2 ec21eca1     ..&...#...!...!.
 8007ed8:	eb21eba1 ea24eaa2 e928e9a6 e82ee8ab     ..!...$...(.....
 8007ee8:	e736e7b2 e640e6ba e54ce5c6 e45be4d3     ..6...@...L...[.
 8007ef8:	e36ce3e3 e280e2f6 e197e20b e0b1e124     ..l.........$...
 8007f08:	dfcee03f deeedf5e de12de80 dd39dda5     ?...^.........9.
 8007f18:	dc64dcce db93dbfb dac6db2c d9fdda61     ..d.....,...a...
 8007f28:	d938d99a d878d8d8 d7bcd819 d705d760     ..8...x.....`...
 8007f38:	d652d6ab d5a5d5fb d4fcd550 d458d4a9     ..R.....P.....X.
 8007f48:	d3bad408 d321d36d d28dd2d6 d1ffd245     ....m.!.....E...
 8007f58:	d177d1ba d0f4d134 d077d0b5 d000d03b     ..w.4.....w.;...
 8007f68:	cf8fcfc7 cf24cf59 cec0cef1 ce61ce90     ....Y.$.......a.
 8007f78:	ce09ce35 cdb8cde0 cd6dcd92 cd29cd4a     5.........m.J.).
 8007f88:	ccebcd09 ccb4cccf cc84cc9b cc5acc6e     ............n.Z.
 8007f98:	cc38cc48 cc1ccc29 cc08cc11 cbfacc00     H.8.)...........
 8007fa8:	cbf4cbf6 cbf5cbf3 cbfdcbf8 cc0ccc03     ................
 8007fb8:	cc22cc16 cc3fcc30 cc64cc51 cc90cc79     ..".0.?.Q.d.y...
 8007fc8:	ccc4cca9 ccfecce0 cd40cd1e cd89cd64     ..........@.d...
 8007fd8:	cddacdb1 ce32ce05 ce91ce60 cef7cec3     ......2.`.......
 8007fe8:	cf65cf2d cfdacf9e d056d017 d0d9d096     -.e.......V.....
 8007ff8:	d163d11d d1f5d1ab d28dd240 d32dd2dc     ..c.....@.....-.
 8008008:	d3d3d37f d480d429 d535d4da d5f0d591     ....).....5.....
 8008018:	d6b2d650 d77ad715 d849d7e1 d91fd8b3     P.....z...I.....
 8008028:	d9fbd98c daddda6b dbc6db51 dcb5dc3c     ....k...Q...<...
 8008038:	ddaadd2e dea5de26 dfa6df24 e0ace028     ....&...$...(...
 8008048:	e1b9e132 e2cbe241 e3e2e356 e4ffe470     2...A...V...p...
 8008058:	e621e590 e749e6b5 e875e7de e9a6e90d     ..!...I...u.....
 8008068:	eadcea41 ec17eb79 ed56ecb6 ee9aedf8     A...y.....V.....
 8008078:	efe2ef3d f12ef087 f27df1d5 f3d1f327     =.........}.'...
 8008088:	f528f47c f683f5d5 f7e1f732 f942f891     |.(.....2.....B.
 8008098:	faa7f9f4 fc0efb5a fd78fcc3 fee4fe2e     ....Z.....x.....
 80080a8:	0053ff9b 01c4010b 0337027d 04ac03f2     ..S.....}.7.....
 80080b8:	06230567 079b06df 09150858 0a9009d2     g.#.....X.......
 80080c8:	0c0b0b4d 0d880cca 0f050e46 10830fc4     M.......F.......
 80080d8:	12011142 137f12c0 14fd143e 167b15bc     B.......>.....{.
 80080e8:	17f8173a 197518b7 1af11a33 1c6c1baf     :.....u.3.....l.
 80080f8:	1de61d29 1f5f1ea3 20d6201a 224b2191     )....._.. . .!K"
 8008108:	23be2305 25302477 269f25e7 280b2755     .#.#w$0%.%.&U'.(
 8008118:	297528c1 2add2a29 2c412b8f 2da22cf2     .(u))*.*.+A,.,.-
 8008128:	2f002e51 305a2fad 31b03106 3303325a     Q.././Z0.1.1Z2.3
 8008138:	345233ab 359c34f8 36e23640 38243784     .3R4.4.5@6.6.7$8
 8008148:	396138c3 3a9939fd 3bcc3b33 3cfa3c63     .8a9.9.:3;.;c<.<
 8008158:	3e223d8e 3f453eb4 40623fd4 417a40ef     .=">.>E?.?b@.@zA
 8008168:	428b4203 43964312 449c441a 459a451c     .B.B.C.C.D.D.E.E
 8008178:	46934617 4784470c 486f47fa 495348e2     .F.F.G.G.GoH.HSI
 8008188:	4a2f49c2 4b054a9b 4bd34b6d 4c9a4c37     .I/J.J.KmK.K7L.L
 8008198:	4d594cfa 4e114db6 4ec04e69 4f684f15     .LYM.M.NiN.N.OhO
 80081a8:	50084fb9 50a05055 513050e9 51b75174     .O.PUP.P.P0QtQ.Q
 80081b8:	523651f7 52ac5272 531a52e5 5380534e     .Q6RrR.R.R.SNS.S
 80081c8:	53dd53af 54315408 547c5457 54be549e     .S.S.T1TWT|T.T.T
 80081d8:	54f754dc 55285511 554f553c 556d555f     .T.T.U(U<UOU_UmU
 80081e8:	55825579 558e5589 55905590 558a558e     yU.U.U.U.U.U.U.U
 80081f8:	557a5583 5561556f 553e5551 5512552a     .UzUoUaUQU>U*U.U
 8008208:	54dd54f9 549f54bf 5457547c 54065430     .T.T.T.T|TWT0T.T
 8008218:	53ab53da 5347537b 52da5312 526452a0     .S.S{SGS.S.R.RdR
 8008228:	51e45225 515b51a1 50c95113 502e507d     %R.Q.Q[Q.Q.P}P.P
 8008238:	4f8a4fdd 4edc4f34 4e264e82 4d664dc7     .O.O4O.N.N&N.MfM
 8008248:	4c9e4d03 4bcd4c36 4af34b61 4a104a82     .M.L6L.KaK.J.J.J
 8008258:	4924499b 483148ac 473447b3 462f46b3     .I$I.H1H.G4G.F/F
 8008268:	452245aa 440d4499 42f0437f 41ca425e     .E"E.D.D.C.B^B.A
 8008278:	409d4134 3f684003 3e2b3eca 3ce73d8a     4A.@.@h?.>+>.=.<
 8008288:	3b9b3c42 3a483af2 38ed399b 378c383e     B<.;.:H:.9.8>8.7
 8008298:	362436d9 34b5356d 333f33fb 31c33282     .6$6m5.4.3?3.2.1
 80082a8:	30403102 2eb72f7c 2d282df1 2b942c5f     .1@0|/...-(-_,.+
 80082b8:	29f92ac7 2859292a 26b32787 250925df     .*.)*)Y(.'.&.%.%
 80082c8:	23592431 21a4227f 1feb20c8 1e2d1f0c     1$Y#.".!. ....-.
 80082d8:	1c6a1d4c 1aa41b88 18d919bf 170b17f2     L.j.............
 80082e8:	15391622 1363144e 118a1277 0faf109d     ".9.N.c.w.......
 80082f8:	0dd00ec0 0bef0ce0 0a0b0afd 08250918     ..............%.
 8008308:	063d0731 04520548 0267035d 007a0170     1.=.H.R.].g.p.z.
 8008318:	fe8bff82 fc9cfd93 faabfba4 f8baf9b3     ................
 8008328:	f6c9f7c2 f4d7f5d0 f2e5f3de f0f4f1ed     ................
 8008338:	ef03effb ed12ee0a eb22ec1a e934ea2b     ..........".+.4.
 8008348:	e746e83d e55ae650 e370e465 e187e27b     =.F.P.Z.e.p.{...
 8008358:	dfa0e093 ddbcdeae dbdadccb d9fbdaea     ................
 8008368:	d81fd90d d646d732 d470d55a d29dd386     ....2.F.Z.p.....
 8008378:	d0ced1b5 cf03cfe8 cd3cce1f cb7acc5b     ..........<.[.z.
 8008388:	c9bbca9a c802c8de c64dc727 c49dc575     ........'.M.u...
 8008398:	c2f3c3c7 c14dc21f bfaec07d be14bee0     ......M.}.......
 80083a8:	bc80bd49 baf2bbb8 b96aba2d b7e9b8a9     I.......-.j.....
 80083b8:	b66eb72a b4fab5b3 b38db443 b227b2d9     *.n.....C.....'.
 80083c8:	b0c8b176 af70b01b ae20aec8 acd8ad7b     v.....p... .{...
 80083d8:	ab98ac37 aa5faafa a92ea9c6 a806a899     7....._.........
 80083e8:	a6e6a775 a5cfa659 a4c0a546 a3b9a43b     u...Y...F...;...
 80083f8:	a2bca339 a1c7a240 a0dba150 9ff9a069     9...@...P...i...
 8008408:	9f209f8b 9e509eb7 9d899deb 9ccc9d29     .. ...P.....)...
 8008418:	9c199c71 9b6f9bc2 9acf9b1d 9a389a82     q.....o.......8.
 8008428:	99ac99f1 99299969 98b098ec 98429878     ....i.).....x.B.
 8008438:	97dd980e 978397af 9733975a 96ed970e     ........Z.3.....
 8008448:	96b196ce 967f9697 9658966a 963b9648     ........j.X.H.;.
 8008458:	96289630 96209623 96229620 962e9627     0.(.#. . .".'...
 8008468:	96459638 96669654 9691967a 96c796ab     8.E.T.f.z.......
 8008478:	970696e5 9750972a 97a59779 980397d3     ....*.P.y.......
 8008488:	986c9836 98de98a4 995b991c 99e2999d     6.l.......[.....
 8008498:	9a739a29 9b0d9abf 9bb29b5e 9c609c07     ).s.....^.....`.
 80084a8:	9d189cba 9dd99d77 9ea49e3d 9f789f0d     ....w...=.....x.
 80084b8:	a0569fe6 a13da0c9 a22da1b4 a327a2a9     ..V...=...-...'.
 80084c8:	a429a3a7 a534a4ae a648a5bd a765a6d5     ..)...4...H...e.
 80084d8:	a88aa7f6 a9b7a920 aaedaa51 ac2bab8b     .... ...Q.....+.
 80084e8:	ad71accd aebfae17 b014af69 b172b0c2     ..q.....i.....r.
 80084f8:	b2d6b223 b442b38c b5b6b4fb b730b672     #.....B.....r.0.
 8008508:	b8b1b7f0 ba39b974 bbc7baff bd5cbc91     ....t.9.......\.
 8008518:	bef7be29 c098bfc7 c23fc16b c3ebc314     ).......k.?.....
 8008528:	c59ec4c4 c755c679 c912c833 cad4c9f2     ....y.U.3.......
 8008538:	cc9acbb6 ce65cd7f d035cf4d d209d11e     ......e.M.5.....
 8008548:	d3e1d2f4 d5bdd4ce d79cd6ac d97fd88d     ................
 8008558:	db66da72 dd4fdc5a df3bde45 e12be033     r.f.Z.O.E.;.3.+.
 8008568:	e31ce223 e510e416 e706e60b e8fee802     #...............
 8008578:	eaf8e9fb ecf3ebf5 eef0edf1 f0edefee     ................
 8008588:	f2ecf1ec f4ebf3eb f6ebf5eb f8ebf7eb     ................
 8008598:	faebf9eb fcebfbeb feebfdeb 00eaffeb     ................
 80085a8:	02e901ea 04e703e8 06e405e5 08df07e1     ................
 80085b8:	0ad909dc 0cd10bd5 0ec70dcc 10bc0fc2     ................
 80085c8:	12ae11b5 149d13a6 168a1594 18741780     ..............t.
 80085d8:	1a5c1968 1c3f1b4e 1e201d30 1ffd1f0f     h.\.N.?.0. .....
 80085e8:	21d620ea 23ac22c1 257d2495 274a2664     . .!.".#.$}%d&J'
 80085f8:	2913282f 2ad729f5 2c962bb7 2e502d73     /(.).).*.+.,s-P.
 8008608:	30052f2b 31b530de 3360328b 35053433     +/.0.0.1.2`334.5
 8008618:	36a435d5 383d3771 39d13908 3b5e3a98     .5.6q7=8.9.9.:^;
 8008628:	3ce53c22 3e663da6 3fe03f24 4153409a     "<.<.=f>$?.?.@SA
 8008638:	42c0420a 44254373 458444d5 46db4630     .B.BsC%D.D.E0F.F
 8008648:	482b4784 497448d0 4ab54a15 4bef4b53     .G+H.HtI.J.JSK.K
 8008658:	4d204c89 4e4b4db6 4f6d4edd 50874ffb     .L M.MKN.NmO.O.P
 8008668:	51995111 52a3521f 53a45325 549e5422     .Q.Q.R.R%S.S"T.T
 8008678:	558f5517 56775604 575756e8 582f57c4     .U.U.VwV.VWW.W/X
 8008688:	58fd5897 59c35961 5a815a23 5b355adc     .X.XaY.Y#Z.Z.Z5[
 8008698:	5be15b8c 5c845c33 5d1e5cd2 5daf5d67     .[.[3\.\.\.]g].]
 80086a8:	5e375df4 5eb65e77 5f2c5ef2 5f995f63     .]7^w^.^.^,_c_._
 80086b8:	5ffd5fcc 6057602b 60a96081 60f260cf     ._._+`W`.`.`.`.`
 80086c8:	61326113 6169614e 61966181 61bb61aa     .a2aNaia.a.a.a.a
 80086d8:	61d761ca 61ea61e1 61f361f0 61f461f5     .a.a.a.a.a.a.a.a
 80086e8:	61ec61f2 61dc61e5 61c261d0 61a061b2     .a.a.a.a.a.a.a.a
 80086f8:	6175618b 6141615c 61046124 60bf60e3     .aua\aAa$a.a.`.`
 8008708:	6072609a 601c6048 5fbe5fee 5f575f8c     .`r`H`.`._._._W_
 8008718:	5ee95f21 5e725eae 5df35e33 5d6c5db0     !_.^.^r^3^.].]l]
 8008728:	5cdd5d25 5c465c93 5ba85bf8 5b025b56     %].\.\F\.[.[V[.[
 8008738:	5a545aac 599f59fb 58e35942 581f5882     .ZTZ.Y.YBY.X.X.X
 8008748:	575557bb 568356ed 55aa5618 54cb553c     .WUW.V.V.V.U<U.T
 8008758:	53e55459 52f85370 52055280 510c518a     YT.SpS.R.R.R.Q.Q
 8008768:	500d508d 4f074f8a 4dfb4e82 4cea4d73     .P.P.O.O.N.MsM.L
 8008778:	4bd34c5f 4ab74b45 49954a26 486d4902     _L.KEK.J&J.I.ImH
 8008788:	474147d8 461046a9 44da4575 439f443d     .GAG.F.FuE.D=D.C
 8008798:	425f4300 411b41be 3fd34078 3e873f2e     .C_B.A.Ax@.?.?.>
 80087a8:	3d373ddf 3be33c8d 3a8b3b37 393039de     .=7=.<.;7;.:.909
 80087b8:	37d13881 366f3721 350a35bd 33a23457     .8.7!7o6.5.5W4.3
 80087c8:	323832ed 30ca3181 2f5b3013 2de92ea2     .282.1.0.0[/...-
 80087d8:	2c742d2f 2afe2bba 29862a42 280c28c9     /-t,.+.*B*.).(.(
 80087e8:	2691274f 251425d3 23962455 221722d7     O'.&.%.%U$.#."."
 80087f8:	20972157 1f161fd7 1d951e55 1c131cd4     W!. ....U.......
 8008808:	1a901b51 190e19cf 178b184c 160816ca     Q.......L.......
 8008818:	14861547 130413c5 11831243 100210c2     G.......C.......
 8008828:	0e820f42 0d030dc2 0b850c44 0a080ac6     B.......D.......
 8008838:	088c094a 071207cf 059a0656 042304de     J.......V.....#.
 8008848:	02ae0369 013c01f5 ffcb0083 fe5cff13     i.....<.......\.
 8008858:	fcf0fda6 fb87fc3b fa20fad3 f8bbf96d     ....;..... .m...
 8008868:	f75af80a f5fbf6aa f49ff54d f347f3f3     ..Z.....M.....G.
 8008878:	f1f2f29c f0a0f148 ef51eff8 ee06eeab     ....H.....Q.....
 8008888:	ecbfed62 eb7cec1d ea3ceadb e900e99d     b.....|...<.....
 8008898:	e7c8e864 e694e72e e565e5fc e439e4cf     d.........e...9.
 80088a8:	e312e3a5 e1f0e281 e0d2e160 dfb8e044     ........`...D...
 80088b8:	dea3df2d dd92de1a dc86dd0c db80dc02     -...............
 80088c8:	da7ddafe d980d9fe d888d903 d794d80d     ..}.............
 80088d8:	d6a6d71c d5bdd631 d4d8d54a d3f9d468     ....1...J...h...
 80088e8:	d31fd38c d24bd2b4 d17bd1e2 d0b1d116     ......K...{.....
 80088f8:	cfecd04e cf2dcf8c ce72cecf cdbdce17     N.....-...r.....
 8008908:	cd0ecd65 cc63ccb8 cbbfcc10 cb1fcb6e     e.....c.....n...
 8008918:	ca85cad1 c9f0ca3a c961c9a8 c8d7c91b     ....:.....a.....
 8008928:	c853c894 c7d3c812 c75ac796 c6e5c71f     ..S.......Z.....
 8008938:	c676c6ad c60cc640 c5a8c5d9 c548c577     ..v.@.......w.H.
 8008948:	c4eec51b c49ac4c3 c44ac471 c400c424     ........q.J.$...
 8008958:	c3bac3dc c37ac39a c33fc35c c309c323     ......z.\.?.#...
 8008968:	c2d8c2f0 c2acc2c1 c285c298 c262c273     ............s.b.
 8008978:	c245c253 c22cc238 c218c222 c209c210     S.E.8.,.".......
 8008988:	c1fec203 c1f8c1fa c1f6c1f7 c1f9c1f7     ................
 8008998:	c200c1fc c20cc206 c21cc213 c230c225     ............%.0.
 80089a8:	c248c23b c264c256 c285c274 c2a9c296     ;.H.V.d.t.......
 80089b8:	c2d1c2bd c2fdc2e7 c32dc315 c361c346     ..........-.F.a.
 80089c8:	c398c37c c3d2c3b5 c410c3f1 c452c431     |...........1.R.
 80089d8:	c497c474 c4dfc4bb c52ac504 c579c551     t.........*.Q.y.
 80089e8:	c5cac5a1 c61fc5f4 c676c64a c6d0c6a3     ........J.v.....
 80089f8:	c72dc6ff c78dc75d c7efc7be c854c821     ..-.].......!.T.
 8008a08:	c8bbc887 c925c8f0 c991c95b c9ffc9c8     ......%.[.......
 8008a18:	ca6fca37 cae2caa8 cb56cb1b cbcccb91     7.o.......V.....
 8008a28:	cc44cc08 ccbecc81 cd3accfc cdb7cd78     ..D.......:.x...
 8008a38:	ce36cdf7 ceb7ce76 cf38cef7 cfbccf7a     ..6.v.....8.z...
 8008a48:	d040cffe d0c6d083 d14dd109 d1d5d191     ..@.......M.....
 8008a58:	d25ed219 d2e8d2a3 d373d32d d3ffd3b9     ..^.....-.s.....
 8008a68:	d48bd445 d519d4d2 d5a7d560 d635d5ee     E.......`.....5.
 8008a78:	d6c5d67d d754d70c d7e4d79c d875d82d     }.....T.....-.u.
 8008a88:	d906d8bd d997d94e da28d9e0 dabada71     ....N.....(.q...
 8008a98:	db4cdb03 dbdddb95 dc6fdc26 dd01dcb8     ..L.....&.o.....
 8008aa8:	dd93dd4a de25dddc deb7de6e df48df00     J.....%.n.....H.
 8008ab8:	dfdadf91 e06be022 e0fce0b3 e18ce144     ....".k.....D...
 8008ac8:	e21de1d5 e2ade265 e33ce2f5 e3cce384     ....e.....<.....
 8008ad8:	e45ae413 e4e9e4a2 e577e530 e604e5bd     ..Z.....0.w.....
 8008ae8:	e691e64a e71de6d7 e7a9e763 e834e7ef     J.......c.....4.
 8008af8:	e8bfe87a e949e904 e9d3e98e ea5cea17     z.....I.......\.
 8008b08:	eae4eaa0 eb6beb28 ebf3ebaf ec79ec36     ....(.k.....6.y.
 8008b18:	ecffecbc ed84ed41 ee08edc6 ee8cee4a     ....A.......J...
 8008b28:	ef0feece ef92ef51 f014efd3 f095f055     ....Q.......U...
 8008b38:	f116f0d6 f196f156 f216f1d6 f295f255     ....V.......U...
 8008b48:	f313f2d4 f391f352 f40ef3cf f48af44c     ....R.......L...
 8008b58:	f507f4c9 f582f544 f5fdf5c0 f678f63b     ....D.......;.x.
 8008b68:	f6f2f6b5 f76cf72f f7e5f7a8 f85ef821     ..../.l.....!.^.
 8008b78:	f8d6f89a f94ef912 f9c6f98a fa3dfa02     ......N.......=.
 8008b88:	fab4fa79 fb2bfaf0 fba2fb66 fc18fbdd     y.....+.f.......
 8008b98:	fc8efc53 fd04fcc9 fd7afd3f fdeffdb5     S.......?.z.....
 8008ba8:	fe65fe2a fedafea0 ff50ff15 ffc5ff8a     *.e.......P.....
 8008bb8:	003a0000 00af0075 012500ea 019a015f     ..:.u.....%._...
 8008bc8:	021001d5 0285024a 02fb02c0 03710336     ....J.......6.q.
 8008bd8:	03e703ac 045d0422 04d40499 054b050f     ....".].......K.
 8008be8:	05c20586 063905fd 06b10675 072906ed     ......9.u.....).
 8008bf8:	07a10765 081a07de 08930857 090d08d0     e.......W.......
 8008c08:	0987094a 0a0209c4 0a7d0a3f 0af80abb     J.......?.}.....
 8008c18:	0b750b36 0bf10bb3 0c6e0c30 0cec0cad     6.u.....0.n.....
 8008c28:	0d6a0d2b 0de90daa 0e690e29 0ee90ea9     +.j.....).i.....
 8008c38:	0f6a0f29 0feb0faa 106d102c 10f010ae     ).j.....,.m.....
 8008c48:	11731131 11f711b5 127b1239 130012be     1.s.....9.{.....
 8008c58:	13861343 140c13c9 14941450 151b14d7     C.......P.......
 8008c68:	15a3155f 162c15e8 16b61671 174016fb     _.....,.q.....@.
 8008c78:	17cb1785 18561810 18e2189c 196e1928     ......V.....(.n.
 8008c88:	19fb19b5 1a881a42 1b161acf 1ba51b5d     ....B.......]...
 8008c98:	1c331bec 1cc31c7b 1d521d0a 1de21d9a     ..3.{.....R.....
 8008ca8:	1e731e2a 1f031ebb 1f941f4c 20251fdd     *.s.....L.....% 
 8008cb8:	20b7206e 214820ff 21da2191 226c2223     n . . H!.!.!#"l"
 8008cc8:	22fe22b5 23902347 242223d9 24b3246a     ."."G#.#.#"$j$.$
 8008cd8:	254524fc 25d7258e 2668261f 26f926b1     .$E%.%.%.&h&.&.&
 8008ce8:	278a2742 281b27d2 28ab2863 293a28f3     B'.'.'.(c(.(.(:)
 8008cf8:	29ca2982 2a582a11 2ae62a9f 2b742b2d     .).).*X*.*.*-+t+
 8008d08:	2c002bba 2c8c2c46 2d172cd2 2da12d5c     .+.,F,.,.,.-\-.-
 8008d18:	2e2a2de6 2eb22e6e 2f392ef6 2fbf2f7c     .-*.n.....9/|/./
 8008d28:	30433001 30c73085 31483108 31c93189     .0C0.0.0.1H1.1.1
 8008d38:	32483208 32c53287 33413303 33bb337e     .2H2.2.2.3A3~3.3
 8008d48:	343333f7 34a9346e 351d34e4 35903557     .334n4.4.4.5W5.5
 8008d58:	360035c8 366e3637 36da36a4 3744370f     .5.676n6.6.6.7D7
 8008d68:	37ab3778 381037de 38723841 38d238a2     x7.7.7.8A8r8.8.8
 8008d78:	392f3900 3989395c 39e039b5 3a353a0b     .9/9\9.9.9.9.:5:
 8008d88:	3a863a5e 3ad53aae 3b203afb 3b683b44     ^:.:.:.:.: ;D;h;
 8008d98:	3bad3b8b 3bef3bce 3c2d3c0e 3c673c4a     .;.;.;.;.<-<J<g<
 8008da8:	3c9e3c83 3cd23cb9 3d023cea 3d2e3d18     .<.<.<.<.<.=.=.=
 8008db8:	3d563d42 3d7a3d69 3d9b3d8b 3db73da9     B=V=i=z=.=.=.=.=
 8008dc8:	3dcf3dc4 3de33dda 3df33dec 3dff3df9     .=.=.=.=.=.=.=.=
 8008dd8:	3e063e03 3e093e08 3e073e08 3e013e05     .>.>.>.>.>.>.>.>
 8008de8:	3df63dfc 3de73def 3dd33ddd 3dba3dc7     .=.=.=.=.=.=.=.=
 8008df8:	3d9d3dac 3d7a3d8c 3d533d67 3d273d3e     .=.=.=z=g=S=>='=
 8008e08:	3cf63d0f 3cc03cdc 3c853ca3 3c453c65     .=.<.<.<.<.<e<E<
 8008e18:	3bff3c23 3bb53bdb 3b653b8e 3b113b3c     #<.;.;.;.;e;<;.;
 8008e28:	3ab73ae4 3a573a88 39f33a26 398939bf     .:.:.:W:&:.9.9.9
 8008e38:	391a3952 38a538e0 382c3869 37ac37ed     R9.9.8.8i8,8.7.7
 8008e48:	3728376b 369e36e4 360f3657 357a35c5     k7(7.6.6W6.6.5z5
 8008e58:	34e0352e 34403491 339c33ef 32f13347     .5.4.4@4.3.3G3.2
 8008e68:	3242329a 318d31e8 30d23130 30133073     .2B2.1.101.0s0.0
 8008e78:	2f4e2fb1 2e842ee9 2db42e1d 2ce02d4b     ./N/.......-K-.,
 8008e88:	2c062c73 2b272b97 2a422ab5 295929ce     s,.,.+'+.*B*.)Y)
 8008e98:	286b28e3 277727f2 267f26fc 25822601     .(k(.'w'.&.&.&.%
 8008ea8:	247f2501 237923fd 226d22f3 215c21e5     .%.$.#y#."m".!\!
 8008eb8:	204720d2 1f2d1fbb 1e0f1e9f 1ced1d7e     . G ..-.....~...
 8008ec8:	1bc61c5a 1a9a1b30 196b1a03 183718d1     Z...0.....k...7.
 8008ed8:	16ff179b 15c31662 14831524 134013e2     ....b...$.....@.
 8008ee8:	11f9129d 10ae1154 0f5f1007 0e0d0eb7     ....T....._.....
 8008ef8:	0cb80d63 0b600c0c 0a040ab2 08a50955     c.....`.....U...
 8008f08:	074407f5 05df0692 0478052c 030f03c4     ..D.....,.x.....
 8008f18:	01a30259 003400ec fec3ff7c fd51fe0a     Y.....4.|.....Q.
 8008f28:	fbdcfc96 fa65fb21 f8edf9a9 f773f830     ....!.e.....0.s.
 8008f38:	f5f7f6b5 f47af539 f2fcf3bb f17df23d     ....9.z.....=.}.
 8008f48:	effdf0bd ee7cef3d ecfbedbc eb79ec3a     ....=.|.....:.y.
 8008f58:	e9f7eab8 e874e935 e6f1e7b3 e56fe630     ....5.t.....0.o.
 8008f68:	e3ece4ae e26ae32b e0e9e1aa df68e028     ....+.j.....(.h.
 8008f78:	dde8dea8 dc69dd28 daebdbaa d96eda2c     ....(.i.....,.n.
 8008f88:	d7f3d8b0 d679d736 d501d5bd d38bd445     ....6.y.....E...
 8008f98:	d216d2d0 d0a4d15d cf35cfec cdc7ce7e     ....].....5.~...
 8008fa8:	cc5dcd12 caf5cba8 c990ca42 c82ec8de     ..].....B.......
 8008fb8:	c6cfc77e c574c621 c41cc4c8 c2c8c372     ~...!.t.....r...
 8008fc8:	c178c220 c02cc0d1 bee4bf87 bda0be41      .x...,.....A...
 8008fd8:	bc60bcff bb25bbc2 b9efba8a b8beb956     ..`...%.....V...
 8008fe8:	b792b827 b66ab6fd b548b5d9 b42cb4ba     '.....j...H...,.
 8008ff8:	b315b3a0 b204b28c b0f8b17d aff2b075     ........}...u...
 8009008:	aef3af72 adfaae75 ad07ad7f ac1aac8f     r...u...........
 8009018:	ab34aba6 aa55aac3 a97ca9e7 a8aaa912     ..4...U...|.....
 8009028:	a7e0a844 a71ca77d a660a6bd a5aba604     D...}.....`.....
 8009038:	a4fda553 a457a4a9 a3b9a407 a322a36c     S.....W.....l.".
 8009048:	a293a2da a20ca24f a18da1cc a116a151     ....O.......Q...
 8009058:	a0a8a0de a041a073 9fe3a011 9f8d9fb7     ....s.A.........
 8009068:	9f409f65 9efb9f1c 9ebe9edb 9e8a9ea3     e.@.............
 8009078:	9e5f9e74 9e3d9e4d 9e239e2f 9e139e1a     t._.M.=./.#.....
 8009088:	9e0b9e0d 9e0c9e0a 9e159e0f 9e289e1e     ..............(.
 8009098:	9e449e35 9e699e55 9e969e7e 9ecd9eb1     5.D.U.i.~.......
 80090a8:	9f0d9eec 9f569f30 9fa89f7e a0029fd4     ....0.V.~.......
 80090b8:	a066a033 a0d3a09c a149a10d a1c8a188     3.f.......I.....
 80090c8:	a250a20b a2e1a298 a37ba32d a41ea3cc     ..P.....-.{.....
 80090d8:	a4caa473 a57ea523 a63ca5dc a702a69e     s...#.~...<.....
 80090e8:	a7d0a768 a8a8a83b a988a917 aa70a9fb     h...;.........p.
 80090f8:	ab61aae8 ac5babdd ad5cacda ae66ade0     ..a...[...\...f.
 8009108:	af78aeee b092b004 b1b4b122 b2dfb249     ..x....."...I...
 8009118:	b410b376 b54ab4ac b68bb5ea b7d4b72f     v.....J...../...
 8009128:	b924b87b ba7bb9cf bbdabb2a bd3fbc8c     {.$...{.*.....?.
 8009138:	beacbdf5 c01fbf65 c199c0db c31ac259     ....e.......Y...
 8009148:	c4a1c3dd c62ec567 c7c2c6f7 c95bc88e     ....g.........[.
 8009158:	cafaca2a cc9fcbcc ce4acd74 cffacf21     *.......t.J.!...
 8009168:	d1afd0d4 d369d28c d528d448 d6ecd60a     ......i.H.(.....
 8009178:	d8b5d7d0 da82d99b dc53db6a de29dd3e     ........j.S.>.).
 8009188:	e002df15 e1dfe0f0 e3c0e2cf e5a3e4b1     ................
 8009198:	e78be697 e975e87f eb62ea6b ed51ec59     ......u.k.b.Y.Q.
 80091a8:	ef43ee4a f138f03d f32ef233 f526f42a     J.C.=.8.3...*.&.
 80091b8:	f720f623 f91bf81e fb18fa1a fd16fc17     #. .............
 80091c8:	ff15fe15 01140014 03140214 05140414     ................
 80091d8:	07140614 09140814 0b140a14 0d130c14     ................
 80091e8:	0f120e13 110f1011 130c120e 1507140a     ................
 80091f8:	17011604 18f917fd 1aef19f4 1ce31be9     ................
 8009208:	1ed41ddc 20c41fcc 22b021ba 249923a5     ....... .!.".#.$
 8009218:	2680258d 28632772 2a422953 2c1e2b31     .%.&r'c(S)B*1+.,
 8009228:	2df62d0b 2fca2ee1 319a30b2 33653280     .-.-.../.0.1.2e3
 8009238:	352b3449 36ed360d 38aa37cc 3a613986     I4+5.6.6.7.8.9a:
 8009248:	3c143b3b 3dc03ceb 3f673e94 41084038     ;;.<.<.=.>g?8@.A
 8009258:	42a341d6 4438436e 45c64500 474e468b     .A.BnC8D.E.E.FNG
 8009268:	48cf480f 4a49498d 4bbd4b04 4d294c73     .H.H.IIJ.K.KsL)M
 8009278:	4e8d4ddc 4feb4f3d 51405096 528e51e8     .M.N=O.O.P@Q.Q.R
 8009288:	53d45332 55125474 564855ae 577556df     2S.StT.U.UHV.VuW
 8009298:	589a5809 59b7592a 5acb5a42 5bd65b51     .X.X*Y.YBZ.ZQ[.[
 80092a8:	5cd85c58 5dd25d56 5ec25e4b 5fa95f36     X\.\V].]K^.^6_._
 80092b8:	60876019 615b60f2 622661c2 62e76288     .`.`.`[a.a&b.b.b
 80092c8:	639f6345 644d63f8 64f264a1 658c6540     Ec.c.cMd.d.d@e.e
 80092d8:	661d65d6 66a46662 672166e3 6793675b     .e.fbf.f.f!g[g.g
 80092e8:	67fc67c9 685a682c 68af6886 68f968d5     .g.g,hZh.h.h.h.h
 80092f8:	6938691a 696e6954 69996985 69ba69ab     .i8iTini.i.i.i.i
 8009308:	69d169c7 69dd69d8 69df69df 69d769dc     .i.i.i.i.i.i.i.i
 8009318:	69c469cf 69a769b7 69806995 694e6968     .i.i.i.i.i.ihiNi
 8009328:	69126931 68cc68f1 687c68a5 68226850     1i.i.h.h.h|hPh"h
 8009338:	67bd67f1 674f6787 66d66713 66536696     .g.g.gOg.g.f.fSf
 8009348:	65c7660e 6530657d 649064e2 63e6643d     .f.e}e0e.d.d=d.c
 8009358:	6333638e 627662d6 61af6214 60df6148     .c3c.bvb.b.aHa.`
 8009368:	60066074 5f245f96 5e385eaf 5d435dbf     t`.`._$_.^8^.]C]
 8009378:	5c465cc6 5b3f5bc4 5a305ab9 591959a6     .\F\.[?[.Z0Z.Y.Y
 8009388:	57f9588a 56d15766 55a05639 54675505     .X.WfW.V9V.U.UgT
 8009398:	532753c8 51df5284 508f5137 4f374fe4     .S'S.R.Q7Q.P.O7O
 80093a8:	4dd84e89 4c724d26 4b054bbc 49914a4c     .N.M&MrL.K.KLJ.I
 80093b8:	481648d5 46954756 450d45d2 437f4447     .H.HVG.F.E.EGD.C
 80093c8:	41eb42b6 4051411f 3eb23f82 3d0c3de0     .B.A.AQ@.?.>.=.=
 80093d8:	3b623c38 39b23a8a 37fd38d8 36443721     8<b;.:.9.8.7!7D6
 80093e8:	34853565 32c333a4 30fc31e0 2f313017     e5.4.3.2.1.0.01/
 80093f8:	2d622e4a 2b8f2c79 29b92aa5 27e028cd     J.b-y,.+.*.).(.'
 8009408:	260426f2 24252515 22432334 205f2151     .&.&.%%$4#C"Q!_ 
 8009418:	1e781f6c 1c8f1d84 1aa51b9a 18b919af     l.x.............
 8009428:	16cb17c2 14dd15d4 12ed13e5 10fc11f5     ................
 8009438:	0f0b1004 0d1a0e12 0b280c21 09360a2f     ........!.(./.6.
 8009448:	0745083d 0554064c 0363045b 0174026c     =.E.L.T.[.c.l.t.
 8009458:	ff85007d fd98fe8f fbadfca2 f9c2fab7     }...............
 8009468:	f7daf8ce f5f4f6e7 f410f502 f22ff31f     ............../.
 8009478:	f050f13f ee75ef62 ec9ced88 eac6ebb1     ?.P.b.u.........
 8009488:	e8f4e9dd e726e80d e55be640 e395e477     ......&.@.[.w...
 8009498:	e1d2e2b3 e014e0f3 de5bdf37 dca6dd80     ........7.[.....
 80094a8:	daf6dbce d94cda20 d7a6d878 d606d6d5     .... .L.x.......
 80094b8:	d46bd538 d2d7d3a0 d148d20e cfbfd083     8.k.......H.....
 80094c8:	ce3ccefd ccc0cd7d cb4acc04 c9dbca92     ..<.}.....J.....
 80094d8:	c873c926 c712c7c1 c5b7c664 c464c50d     &.s.....d.....d.
 80094e8:	c318c3bd c1d4c275 c097c135 bf62bffc     ....u...5.....b.
 80094f8:	be35becb bd0fbda1 bbf2bc80 baddbb66     ..5.........f...
 8009508:	b9d0ba55 b8cbb94c b7ceb84c b6dbb753     U...L...L...S...
 8009518:	b5efb664 b50cb57d b432b49e b361b3c9     d...}.....2...a.
 8009528:	b299b2fc b1d9b238 b123b17d b075b0cb     ....8...}.#...u.
 8009538:	afd1b022 af36af82 aea4aeec ae1bae5e     ".....6.....^...
 8009548:	ad9badda ad25ad5f acb8aced ac54ac84     ...._.%.......T.
 8009558:	abf9ac25 aba8abcf ab60ab83 ab22ab40     %.........`.@.".
 8009568:	aaedab06 aac1aad5 aa9eaaae aa85aa90     ................
 8009578:	aa75aa7c aa6faa71 aa71aa6f aa7daa76     |.u.q.o.o.q.v.}.
 8009588:	aa92aa86 aab0aaa0 aad7aac3 ab08aaee     ................
 8009598:	ab41ab23 ab83ab61 abceaba8 ac22abf7     #.A.a.........".
 80095a8:	ac7fac50 ace5acb1 ad53ad1a adc9ad8d     P.........S.....
 80095b8:	ae48ae08 aecfae8b af5faf16 aff7afaa     ..H......._.....
 80095c8:	b097b046 b13fb0ea b1eeb196 b2a6b249     F.....?.....I...
 80095d8:	b365b305 b42cb3c8 b4fab492 b5d0b564     ..e...,.....d...
 80095e8:	b6acb63d b790b71d b87bb805 b96cb8f3     =.........{...l.
 80095f8:	ba65b9e8 bb63bae3 bc69bbe5 bd74bced     ..e...c...i...t.
 8009608:	be85bdfc bf9dbf10 c0bac02b c1ddc14b     ........+...K...
 8009618:	c305c271 c433c39c c566c4cc c69ec602     q.....3...f.....
 8009628:	c7dbc73c c91dc87b ca63c9bf cbadcb07     <...{.....c.....
 8009638:	ccfccc54 ce4fcda5 cfa5cef9 d0ffd052     T.....O.....R...
 8009648:	d25dd1ae d3bed30d d522d470 d68ad5d6     ..].....p.".....
 8009658:	d7f4d73e d960d8aa dacfda18 dc41db88     >.....`.......A.
 8009668:	ddb4dcfa df29de6e e0a0dfe5 e219e15c     ....n.).....\...
 8009678:	e393e2d6 e50ee450 e68ae5cc e807e748     ....P.......H...
 8009688:	e984e8c5 eb02ea43 ec80ebc1 edfeed3f     ....C.......?...
 8009698:	ef7ceebd f0faf03b f277f1b9 f3f4f335     ..|.;.....w.5...
 80096a8:	f56ff4b2 f6eaf62d f864f7a7 f9dcf920     ..o.-.....d. ...
 80096b8:	fb53fa98 fcc8fc0d fe3bfd82 ffacfef4     ..S.......;.....
 80096c8:	011b0064 028701d1 03f1033c 055804a5     d.......<.....X.
 80096d8:	06bd060b 081e076e 097c08cd 0ad70a2a     ....n.....|.*...
 80096e8:	0c2e0b83 0d820cd8 0ed10e2a 101d0f78     ........*...x...
 80096f8:	116510c2 12a91207 13e81349 15231486     ..e.....I.....#.
 8009708:	165915be 178a16f2 18b61821 19de194a     ..Y.....!...J...
 8009718:	1b001a6f 1c1d1b8f 1d341ca9 1e461dbe     o.........4...F.
 8009728:	1f531ecd 20591fd7 215a20db 225521d9     ..S...Y . Z!.!U"
 8009738:	234a22d1 243923c3 252224ae 26042594     ."J#.#9$.$"%.%.&
 8009748:	26e02673 27b6274c 2885281e 294d28ea     s&.&L'.'.(.(.(M)
 8009758:	2a0f29af 2aca2a6e 2b7f2b25 2c2c2bd6     .).*n*.*%+.+.+,,
 8009768:	2cd22c80 2d722d23 2e0a2dbf 2e9c2e54     .,.,#-r-.-..T...
 8009778:	2f262ee2 2fa92f69 30252fe8 309a3061     ..&/i/././%0a0.0
 8009788:	310830d2 316e313c 31cd319f 322531fa     .0.1<1n1.1.1.1%2
 8009798:	3276324e 32bf329b 330132e1 333b331f     N2v2.2.2.2.3.3;3
 80097a8:	336f3356 339b3386 33c033ae 33dd33cf     V3o3.3.3.3.3.3.3
 80097b8:	33f333e9 340233fc 340a3407 340b340c     .3.3.3.4.4.4.4.4
 80097c8:	34053409 33f733ff 33e333ee 33c733d6     .4.4.3.3.3.3.3.3
 80097d8:	33a533b7 337b3391 334b3364 33143330     .3.3.3{3d3K303.3
 80097e8:	32d632f6 329232b5 3247326d 31f6321f     .2.2.2.2m2G2.2.1
 80097f8:	319e31ca 313f316f 30db310e 307030a6     .1.1o1?1.1.0.0p0
 8009808:	2fff3038 2f882fc4 2f0b2f4a 2e882ecb     80./././J/./....
 8009818:	2e002e45 2d722dba 2cde2d29 2c452c92     E....-r-)-.,.,E,
 8009828:	2ba72bf7 2b032b56 2a5a2aaf 29ad2a04     .+.+V+.+.*Z*.*.)
 8009838:	28fa2954 2843289f 278727e6 26c72727     T).(.(C(.'.'''.&
 8009848:	26022665 2539259e 246c24d3 239b2404     e&.&.%9%.$l$.$.#
 8009858:	22c62331 21ed225a 2111217f 203120a1     1#."Z".!.!.!. 1 
 8009868:	1f4e1fc0 1e681edb 1d7f1df4 1c931d09     ..N...h.........
 8009878:	1ba41c1c 1ab31b2c 19bf1a39 18c91945     ....,...9...E...
 8009888:	17d1184d 16d71754 15db1659 14de155d     M...T...Y...]...
 8009898:	13de145e 12de135e 11dc125d 10d9115b     ^...^...]...[...
 80098a8:	0fd61058 0ed10f53 0dcc0e4f 0cc60d49     X...S...O...I...
 80098b8:	0bc00c43 0aba0b3d 09b40a37 08ae0931     C...=...7...1...
 80098c8:	07a9082b 06a40726 059f0621 049b051d     +...&...!.......
 80098d8:	03980419 02960317 01950215 00960115     ................
 80098e8:	ff980017 fe9bff19 fda1fe1e fca8fd24     ............$...
 80098f8:	fbb1fc2c fabdfb37 f9cafa43 f8daf952     ,...7...C...R...
 8009908:	f7edf863 f703f778 f61bf68e f536f5a8     c...x.........6.
 8009918:	f454f4c5 f376f3e5 f29bf308 f1c3f22e     ..T...v.........
 8009928:	f0eff158 f01ef086 ef51efb7 ee88eeec     X.........Q.....
 8009938:	edc4ee25 ed03ed63 ec46eca4 eb8eebea     %...c.....F.....
 8009948:	eadaeb33 ea2bea82 e980e9d5 e8dae92c     3.....+.....,...
 8009958:	e839e889 e79ce7ea e704e750 e672e6bb     ..9.....P.....r.
 8009968:	e5e4e62b e55ce5a0 e4d9e51a e45be499     +.....\.......[.
 8009978:	e3e3e41e e370e3a9 e302e338 e29ae2cd     ......p.8.......
 8009988:	e238e268 e1dbe208 e183e1ae e132e15a     h.8.........Z.2.
 8009998:	e0e6e10b e0a0e0c2 e060e07f e025e042     ..........`.B.%.
 80099a8:	dff1e00a dfc2dfd9 df99dfad df76df87     ..............v.
 80099b8:	df59df67 df42df4d df31df39 df26df2b     g.Y.M.B.9.1.+.&.
 80099c8:	df20df22 df21df20 df27df23 df34df2d     ". . .!.#.'.-.4.
 80099d8:	df46df3c df5edf51 df7cdf6c dfa0df8d     <.F.Q.^.l.|.....
 80099e8:	dfc9dfb4 dff8dfe0 e02de012 e068e04a     ..........-.J.h.
 80099f8:	e0a8e087 e0eee0cb e13ae113 e18ae161     ..........:.a...
 8009a08:	e1e1e1b5 e23ce20e e29de26c e304e2d0     ......<.l.......
 8009a18:	e36fe339 e3e0e3a7 e455e41a e4d0e492     9.o.......U.....
 8009a28:	e54fe50f e5d3e591 e65ce617 e6eae6a3     ..O.......\.....
 8009a38:	e77ce733 e813e7c7 e8aee860 e94de8fd     3.|.....`.....M.
 8009a48:	e9f1e99f ea98ea44 eb44eaee ebf4eb9b     ....D.....D.....
 8009a58:	eca7ec4d ed5eed02 ee18edbb eed6ee77     M.....^.....w...
 8009a68:	ef97ef36 f05ceff9 f124f0bf f1eef189     6.....\...$.....
 8009a78:	f2bcf255 f38cf323 f45ff3f5 f534f4c9     U...#....._...4.
 8009a88:	f60cf5a0 f6e6f678 f7c2f753 f8a0f831     ....x...S...1...
 8009a98:	f980f910 fa61f9f0 fb45fad3 fc29fbb7     ......a...E...).
 8009aa8:	fd0ffc9c fdf6fd83 fedffe6a ffc8ff53     ........j...S...
 8009ab8:	00b2003d 019c0127 02880212 037302fd     =...'.........s.
 8009ac8:	045f03e9 054b04d5 063605c0 072206ac     .._...K...6...".
 8009ad8:	080d0798 08f80883 09e2096d 0acc0a57     ........m...W...
 8009ae8:	0bb40b40 0c9c0c28 0d830d10 0e680df6     @...(.........h.
 8009af8:	0f4c0eda 102e0fbd 110f109f 11ee117f     ..L.............
 8009b08:	12cb125d 13a61338 147e1412 155514ea     ]...8.....~...U.
 8009b18:	162915bf 16fa1692 17c91762 1895182f     ..).....b.../...
 8009b28:	195e18fa 1a2419c1 1ae71a86 1ba61b47     ..^...$.....G...
 8009b38:	1c621c05 1d1b1cbf 1dd01d76 1e821e29     ..b.....v...)...
 8009b48:	1f2f1ed9 1fd91f84 207e202c 212020d0     ../....., ~ .  !
 8009b58:	21bd216f 2256220a 22eb22a1 237b2333     o!.!."V"."."3#{#
 8009b68:	240623c1 248d244a 250f24cf 258c254e     .#.$J$.$.$.%N%.%
 8009b78:	260525c9 2678263f 26e626b0 274f271b     .%.&?&x&.&.&.'O'
 8009b88:	27b32782 281227e3 286b283f 28bf2896     .'.'.'.(?(k(.(.(
 8009b98:	290e28e7 29572933 299b297a 29d929ba     .(.)3)W)z).).).)
 8009ba8:	2a1129f6 2a442a2b 2a712a5b 2a982a85     .).*+*D*[*q*.*.*
 8009bb8:	2aba2aaa 2ad52ac8 2aeb2ae1 2afb2af4     .*.*.*.*.*.*.*.*
 8009bc8:	2b052b01 2b0a2b08 2b082b0a 2b012b05     .+.+.+.+.+.+.+.+
 8009bd8:	2af32afb 2ae02aea 2ac72ad4 2aa72ab8     .*.*.*.*.*.*.*.*
 8009be8:	2a822a96 2a572a6e 2a272a40 29f02a0c     .*.*n*W*@*'*.*.)
 8009bf8:	29b329d2 29712993 2929294d 28db2902     .).).)q)M))).).(
 8009c08:	288728b2 282d285b 27ce27ff 2769279d     .(.([(-(.'.'.'i'
 8009c18:	26ff2735 268f26c8 261a2655 259f25dd     5'.&.&.&U&.&.%.%
 8009c28:	251e255f 249924dc 240e2454 237e23c6     _%.%.$.$T$.$.#~#
 8009c38:	22e82334 224e229c 21ae21ff 210a215d     4#."."N".!.!]!.!
 8009c48:	206120b6 1fb2200a 1f001f5a 1e481ea4     . a . ..Z.....H.
 8009c58:	1d8c1deb 1ccc1d2c 1c071c6a 1b3e1ba3     ....,...j.....>.
 8009c68:	1a701ad8 199f1a08 18ca1935 17f0185d     ..p.....5...]...
 8009c78:	17131782 163216a3 154e15c1 146614db     ......2...N...f.
 8009c88:	137b13f1 128d1304 119b1214 10a71121     ..{.........!...
 8009c98:	0faf102b 0eb50f33 0db80e37 0cb90d39     +...3...7...9...
 8009ca8:	0bb70c38 0ab30b35 09ad0a30 08a40929     8...5...0...)...
 8009cb8:	079a081f 068e0714 05800607 047104f9     ..............q.
 8009cc8:	036003e9 024f02d8 013c01c5 002800b2     ..`...O...<...(.
 8009cd8:	ff13ff9d fdfdfe88 fce7fd72 fbd0fc5c     ........r...\...
 8009ce8:	fab9fb45 f9a2fa2e f88bf917 f774f7ff     E.............t.
 8009cf8:	f65df6e8 f546f5d2 f430f4bb f31bf3a5     ..]...F...0.....
 8009d08:	f206f290 f0f2f17c efdff069 eeceef56     ....|...i...V...
 8009d18:	edbdee45 ecaeed35 eba1ec27 ea95eb1b     E...5...'.......
 8009d28:	e98bea10 e883e907 e77de800 e679e6fb     ..........}...y.
 8009d38:	e578e5f8 e478e4f8 e37ce3fa e282e2ff     ..x...x...|.....
 8009d48:	e18be206 e097e111 dfa6e01e deb8df2f     ............/...
 8009d58:	ddcdde42 dce6dd59 dc02dc74 db22db92     B...Y...t.....".
 8009d68:	da46dab3 d96dd9d9 d898d902 d7c7d82f     ..F...m...../...
 8009d78:	d6fbd761 d632d696 d56ed5d0 d4afd50e     a.....2...n.....
 8009d88:	d3f3d450 d33dd397 d28bd2e3 d1ddd233     P.....=.....3...
 8009d98:	d135d189 d092d0e3 cff3d042 cf5acfa6     ..5.....B.....Z.
 8009da8:	cec5cf0f ce36ce7d cdaccdf1 cd28cd6a     ....}.6.....j.(.
 8009db8:	cca9cce8 cc2fcc6b cbbbcbf5 cb4dcb83     ....k./.......M.
 8009dc8:	cae4cb17 ca80cab1 ca23ca51 c9cbc9f6     ........Q.#.....
 8009dd8:	c979c9a1 c92dc952 c8e7c909 c8a6c8c6     ..y.R.-.........
 8009de8:	c86cc888 c837c851 c809c81f c7e0c7f4     ..l.Q.7.........
 8009df8:	c7bec7ce c7a1c7af c78bc795 c77ac782     ..............z.
 8009e08:	c770c774 c76cc76d c76dc76c c775c770     t.p.m.l.l.m.p.u.
 8009e18:	c783c77b c797c78c c7b0c7a3 c7d0c7c0     {...............
 8009e28:	c7f6c7e2 c822c80b c854c83a c88bc86f     ......".:.T.o...
 8009e38:	c8c9c8a9 c90cc8ea c955c930 c9a4c97c     ........0.U.|...
 8009e48:	c9f9c9ce ca53ca26 cab4ca83 cb19cae6     ....&.S.........
 8009e58:	cb84cb4e cbf5cbbc cc6bcc30 cce7cca8     N.......0.k.....
 8009e68:	cd68cd27 cdeecdaa ce79ce33 cf0acec1     '.h.....3.y.....
 8009e78:	cf9fcf54 d039cfec d0d9d089 d17dd12a     T.....9.....*.}.
 8009e88:	d226d1d1 d2d4d27c d386d32c d43dd3e1     ..&.|...,.....=.
 8009e98:	d4f8d49a d5b7d557 d67bd619 d743d6de     ....W.....{...C.
 8009ea8:	d80fd7a8 d8ded876 d9b2d948 da89da1d     ....v...H.......
 8009eb8:	db65daf7 dc43dbd3 dd25dcb4 de0bdd97     ..e...C...%.....
 8009ec8:	def3de7e dfdfdf69 e0cee056 e1bfe146     ~...i...V...F...
 8009ed8:	e2b4e239 e3abe32f e4a4e427 e5a1e522     9.../...'..."...
 8009ee8:	e69fe61f e7a0e71f e8a2e821 e9a7e924     ........!...$...
 8009ef8:	eaaeea2a ebb6eb31 ecc0ec3b edcbed45     *...1...;...E...
 8009f08:	eed8ee51 efe6ef5f f0f5f06d f205f17d     Q..._...m...}...
 8009f18:	f316f28e f428f39f f53bf4b1 f64ef5c4     ......(...;...N.
 8009f28:	f761f6d7 f875f7eb f989f8ff fa9dfa13     ..a...u.........
 8009f38:	fbb0fb26 fcc4fc3a fdd7fd4e feeafe61     &...:...N...a...
 8009f48:	fffcff73 010e0085 021f0196 032f02a7     s............./.
 8009f58:	043e03b6 054b04c5 065805d2 076306de     ..>...K...X...c.
 8009f68:	086d07e8 097508f1 0a7b09f8 0b7f0afd     ..m...u...{.....
 8009f78:	0c820c01 0d830d03 0e810e02 0f7d0f00     ..............}.
 8009f88:	10770ffb 116f10f3 126411ea 135612dd     ..w...o...d...V.
 8009f98:	144613ce 153314bd 161d15a8 17031690     ..F...3.........
 8009fa8:	17e71776 18c81858 19a51937 1a7f1a13     v...X...7.......
 8009fb8:	1b561aeb 1c291bc0 1cf91c91 1dc51d5f     ..V...)....._...
 8009fc8:	1e8d1e29 1f511ef0 20121fb2 20ce2071     ).....Q.... q . 
 8009fd8:	2187212b 223c21e2 22ec2294 23982343     +!.!.!<"."."C#.#
 8009fe8:	244023ed 24e42493 25842534 261f25d2     .#@$.$.$4%.%.%.&
 8009ff8:	26b5266b 274826ff 27d5278f 285e281a     k&.&.&H'.'.'.(^(
 800a008:	28e328a1 29632924 29de29a1 2a552a1a     .(.($)c).).).*U*
 800a018:	2ac72a8e 2b342afe 2b9c2b69 2c002bcf     .*.*.*4+i+.+.+.,
 800a028:	2c5f2c30 2cb92c8d 2d0f2ce4 2d5f2d37     0,_,.,.,.,.-7-_-
 800a038:	2dab2d85 2df22dcf 2e342e13 2e712e53     .-.-.-.-..4.S.q.
 800a048:	2ea92e8d 2edd2ec3 2f0b2ef5 2f352f21     .........../!/5/
 800a058:	2f5a2f48 2f7b2f6b 2f962f89 2fad2fa2     H/Z/k/{/././././
 800a068:	2fbf2fb7 2fcd2fc6 2fd52fd2 2fd92fd8     ././././././././
 800a078:	2fd92fda 2fd42fd7 2fca2fd0 2fbc2fc4     ././././././././
 800a088:	2fa92fb3 2f922f9e 2f772f85 2f572f68     ./././././w/h/W/
 800a098:	2f332f46 2f0b2f1f 2ede2ef5 2ead2ec6     F/3/././........
 800a0a8:	2e792e94 2e402e5d 2e032e22 2dc22de3     ..y.].@."....-.-
 800a0b8:	2d7e2da1 2d352d5a 2ce92d10 2c9a2cc2     .-~-Z-5-.-.,.,.,
 800a0c8:	2c462c70 2bef2c1b 2b952bc2 2b372b66     p,F,.,.+.+.+f+7+
 800a0d8:	2ad62b07 2a722aa4 2a0a2a3e 299f29d5     .+.*.*r*>*.*.).)
 800a0e8:	29322969 28c128fa 284e2888 27d72813     i)2).(.(.(N(.(.'
 800a0f8:	275e279b 26e32721 266526a4 25e42625     .'^'!'.&.&e&%&.%
 800a108:	256125a3 24dc251f 24542498 23cb2410     .%a%.%.$.$T$.$.#
 800a118:	233f2385 22b122f9 2222226a 219121da     .#?#."."j""".!.!
 800a128:	20fe2147 206920b4 1fd3201e 1f3c1f87     G!. . i . ....<.
 800a138:	1ea31eef 1e091e56 1d6d1dbb 1cd11d1f     ....V.....m.....
 800a148:	1c331c82 1b951be4 1af61b46 1a561aa6     ..3.....F.....V.
 800a158:	19b61a06 19141965 187318c4 17d11822     ....e.....s."...
 800a168:	172f1780 168c16dd 15e9163b 15471598     ../.....;.....G.
 800a178:	14a414f5 14011453 135f13b0 12bd130e     ....S....._.....
 800a188:	121b126c 117911ca 10d81129 10381088     l.....y.).....8.
 800a198:	0f980fe8 0ef90f48 0e5b0eaa 0dbd0e0c     ....H.....[.....
 800a1a8:	0d210d6f 0c850cd3 0beb0c38 0b510b9e     o.!.....8.....Q.
 800a1b8:	0ab90b05 0a220a6d 098c09d7 08f80942     ....m.".....B...
 800a1c8:	086508ae 07d3081c 0744078b 06b506fc     ..e.......D.....
 800a1d8:	0628066f 059d05e3 05140559 048d04d0     o.(.....Y.......
 800a1e8:	04070449 038303c5 03010342 028102c1     I.......B.......
 800a1f8:	02030242 018701c5 010d014a 009500d1     B.......J.......
 800a208:	0020005a ffacffe5 ff3aff73 fecbff03     Z. .....s.:.....
 800a218:	fe5efe94 fdf3fe29 fd8bfdbf fd25fd58     ..^.).......X.%.
 800a228:	fcc1fcf3 fc5ffc90 fc00fc2f fba3fbd1     ......_./.......
 800a238:	fb48fb75 faf0fb1c fa9afac5 fa46fa70     u.H.........p.F.
 800a248:	f9f5fa1e f9a6f9cd f95af980 f910f934     ..........Z.4...
 800a258:	f8c8f8eb f882f8a5 f83ff860 f7fef81e     ........`.?.....
 800a268:	f7c0f7df f783f7a1 f749f766 f711f72d     ........f.I.-...
 800a278:	f6dcf6f6 f6a8f6c2 f677f690 f648f65f     ..........w._.H.
 800a288:	f61bf631 f5f0f606 f5c8f5dc f5a1f5b4     1...............
 800a298:	f57cf58e f55af56b f539f549 f51af529     ..|.k.Z.I.9.)...
 800a2a8:	f4fdf50b f4e2f4ef f4c8f4d5 f4b1f4bc     ................
 800a2b8:	f49bf4a5 f486f490 f474f47d f462f46b     ........}.t.k.b.
 800a2c8:	f453f45a f445f44b f438f43e f42cf432     Z.S.K.E.>.8.2.,.
 800a2d8:	f422f427 f41af41e f412f416 f40cf40f     '.".............
 800a2e8:	f406f409 f402f404 f3fff400 f3fcf3fd     ................
 800a2f8:	f3fbf3fc f3faf3fb f3fbf3fa f3fbf3fb     ................
 800a308:	f3fdf3fc f3fff3fe f402f400 f405f403     ................
 800a318:	f409f407 f40df40a f411f40f f415f413     ................
 800a328:	f41af418 f41ff41c f424f421 f429f426     ........!.$.&.).
 800a338:	f42df42b f432f430 f437f435 f43bf439     +.-.0.2.5.7.9.;.
 800a348:	f43ff43d f443f441 f446f445 f449f448     =.?.A.C.E.F.H.I.
 800a358:	f44cf44b f44ef44d f44ff44f f450f450     K.L.M.N.O.O.P.P.
 800a368:	f450f450 f44ff44f f44df44e f44bf44c     P.P.O.O.N.M.L.K.
 800a378:	f448f449 f443f446 f43ef441 f438f43b     I.H.F.C.A.>.;.8.
 800a388:	f430f434 f428f42c f41ef423 f413f419     4.0.,.(.#.......
 800a398:	f407f40d f3f9f400 f3ebf3f2 f3dbf3e3     ................
 800a3a8:	f3c9f3d2 f3b6f3c0 f3a2f3ac f38cf397     ................
 800a3b8:	f375f381 f35cf368 f341f34f f325f334     ..u.h.\.O.A.4.%.
 800a3c8:	f308f317 f2e8f2f8 f2c8f2d8 f2a5f2b7     ................
 800a3d8:	f281f293 f25bf26e f233f247 f20af21f     ....n.[.G.3.....
 800a3e8:	f1dff1f5 f1b3f1c9 f184f19c f154f16c     ............l.T.
 800a3f8:	f122f13b f0eff109 f0b9f0d4 f082f09e     ;.".............
 800a408:	f04af066 f00ff02d efd3eff1 ef96efb5     f.J.-...........
 800a418:	ef56ef76 ef15ef36 eed2eef4 ee8eeeb1     v.V.6...........
 800a428:	ee48ee6c ee01ee25 edb8eddd ed6eed93     l.H.%.........n.
 800a438:	ed22ed48 ecd5ecfb ec86ecad ec36ec5e     H.".........^.6.
 800a448:	ebe5ec0d eb92ebbb eb3eeb68 eae9eb13     ........h.>.....
 800a458:	ea92eabe ea3bea67 e9e2ea0f e989e9b6     ....g.;.........
 800a468:	e92ee95c e8d3e901 e877e8a5 e81ae848     \.........w.H...
 800a478:	e7bce7eb e75de78d e6fee72e e69ee6ce     ......].........
 800a488:	e63ee66e e5dde60e e57ce5ad e51be54b     n.>.......|.K...
 800a498:	e4b9e4ea e457e488 e3f5e426 e393e3c4     ......W.&.......
 800a4a8:	e331e362 e2cfe300 e26ee29f e20ce23d     b.1.......n.=...
 800a4b8:	e1abe1dc e14be17b e0eae11b e08be0bb     ....{.K.........
 800a4c8:	e02ce05b dfcedffd df70df9f df14df42     [.,.......p.B...
 800a4d8:	deb8dee6 de5ede8b de05de31 ddadddd9     ......^.1.......
 800a4e8:	dd56dd81 dd01dd2b dcaddcd7 dc5bdc83     ..V.+.........[.
 800a4f8:	dc0adc32 dbbbdbe2 db6edb94 db23db48     2.........n.H.#.
 800a508:	dadadafe da93dab6 da4eda70 da0bda2c     ........p.N.,...
 800a518:	d9cbd9eb d98dd9ac d952d96f d919d935     ........o.R.5...
 800a528:	d8e3d8fd d8afd8c9 d87fd897 d851d868     ............h.Q.
 800a538:	d826d83b d7ffd812 d7dbd7ec d7b9d7ca     ;.&.............
 800a548:	d79bd7aa d781d78e d76ad775 d756d760     ........u.j.`.V.
 800a558:	d746d74e d73ad740 d732d736 d72dd72f     N.F.@.:.6.2./.-.
 800a568:	d72cd72c d72fd72d d736d732 d742d73b     ,.,.-./.2.6.;.B.
 800a578:	d751d749 d764d75a d77cd770 d798d78a     I.Q.Z.d.p.|.....
 800a588:	d7b8d7a8 d7ddd7ca d806d7f1 d834d81d     ..............4.
 800a598:	d866d84d d89dd881 d8d9d8ba d919d8f8     M.f.............
 800a5a8:	d95ed93b d9a7d982 d9f6d9ce da49da1f     ;.^...........I.
 800a5b8:	daa1da74 dafedacf db5fdb2e dbc6db92     t........._.....
 800a5c8:	dc32dbfb dca2dc69 dd18dcdc dd92dd54     ..2.i.......T...
 800a5d8:	de11ddd1 de96de53 df1fdeda dfaddf66     ....S.......f...
 800a5e8:	e041dff6 e0d9e08c e176e127 e219e1c7     ..A.....'.v.....
 800a5f8:	e2c0e26b e36ce315 e41de3c4 e4d3e477     k.....l.....w...
 800a608:	e58ee530 e64de5ed e712e6af e7dbe776     0.....M.....v...
 800a618:	e8a9e841 e97be912 ea53e9e7 eb2feac0     A.....{...S.../.
 800a628:	ec0feb9f ecf5ec81 eddeed69 eeccee55     ........i...U...
 800a638:	efbfef45 f0b5f039 f1b0f132 f2aff22f     E...9...2.../...
 800a648:	f3b3f331 f4baf436 f5c5f53f f6d5f64d     1...6...?...M...
 800a658:	f7e8f75e f8fef873 fa19f98b fb37faa7     ^...s.........7.
 800a668:	fc58fbc7 fd7dfcea fea5fe11 ffd1ff3b     ..X...}.....;...
 800a678:	00ff0068 02310198 036502ca 049c0400     h.....1...e.....
 800a688:	05d60539 07120674 085107b2 099308f2     9...t.....Q.....
 800a698:	0ad60a34 0c1c0b79 0d630cbf 0ead0e08     4...y.....c.....
 800a6a8:	0ff80f52 1145109e 129311ec 13e3133b     R.....E.....;...
 800a6b8:	1534148b 168615dc 17d8172f 192c1882     ..4...../.....,.
 800a6c8:	1a8119d6 1bd61b2b 1d2b1c80 1e811dd6     ....+.....+.....
 800a6d8:	1fd71f2c 212c2082 228221d7 23d7232d     ,.... ,!.!."-#.#
 800a6e8:	252c2482 268025d6 27d4272a 2926287d     .$,%.%.&*'.'}(&)
 800a6f8:	2a7829cf 2bc82b20 2d172c70 2e642dbe     .)x* +.+p,.-.-d.
 800a708:	2fb02f0a 30fa3055 3242319e 338832e5     ././U0.0.1B2.2.3
 800a718:	34cb342a 360c356c 374b36ac 388637e9     *4.4l5.6.6K7.7.8
 800a728:	39bf3923 3af53a5a 3c283b8f 3d573cc0     #9.9Z:.:.;(<.<W=
 800a738:	3e823ded 3faa3f17 40cf403d 41ef415f     .=.>.?.?=@.@_A.A
 800a748:	430b427d 44234397 453644ad 464545be     }B.C.C#D.D6E.EEF
 800a758:	474f46cb 485547d3 495548d5 4a5049d3     .FOG.GUH.HUI.IPJ
 800a768:	4b464acc 4c374bbf 4d224cad 4e074d95     .JFK.K7L.L"M.M.N
 800a778:	4ee64e77 4fc04f54 5093502a 516050fb     wN.NTO.O*P.P.P`Q
 800a788:	522751c5 52e85288 53a25345 545553fc     .Q'R.R.RES.S.SUT
 800a798:	550154ac 55a65555 564555f6 56dc5691     .T.UUU.U.UEV.V.V
 800a7a8:	576c5725 57f457b1 58755835 58ee58b3     %WlW.W.W5XuX.X.X
 800a7b8:	59605928 59ca5996 5a2c59fc 5a865a5a     (Y`Y.Y.Y.Y,ZZZ.Z
 800a7c8:	5ad85ab0 5b225afe 5b645b44 5b9d5b82     .Z.Z.Z"[D[d[.[.[
 800a7d8:	5bce5bb7 5bf75be4 5c175c08 5c2f5c24     .[.[.[.[.\.\$\/\
 800a7e8:	5c3e5c37 5c445c42 5c425c44 5c365c3d     7\>\B\D\D\B\=\6\
 800a7f8:	5c225c2d 5c055c15 5bdf5bf4 5bb15bc9     -\"\.\.\.[.[.[.[
 800a808:	5b795b96 5b385b5a 5aee5b14 5a9c5ac6     .[y[Z[8[.[.Z.Z.Z
 800a818:	5a405a6f 59db5a0e 596d59a5 58f55932     oZ@Z.Z.Y.YmY2Y.X
 800a828:	587558b6 57ec5832 575957a4 56be570d     .XuX2X.W.WYW.W.V
 800a838:	5619566d 556c55c4 54b55511 53f55456     mV.V.UlU.U.TVT.S
 800a848:	532d5392 525b52c5 518151ef 509e5110     .S-S.R[R.Q.Q.Q.P
 800a858:	4fb25029 4ebd4f38 4dbf4e3f 4cb94d3d     )P.O8O.N?N.M=M.L
 800a868:	4bab4c33 4a934b20 49744a05 484c48e1     3L.K K.J.JtI.HLH
 800a878:	471c47b5 45e34680 44a24544 435a43ff     .G.G.F.EDE.D.CZC
 800a888:	420942b3 40b1415e 3f514002 3de93e9e     .B.B^A.@.@Q?.>.=
 800a898:	3c7a3d33 3b033bc0 39853a45 380038c4     3=z<.;.;E:.9.8.8
 800a8a8:	3674373b 34e135ac 33473415 31a73278     ;7t6.5.4.4G3x2.1
 800a8b8:	300030d4 2e522f2a 2c9f2d79 2ae52bc3     .0.0*/R.y-.,.+.*
 800a8c8:	29252a06 27602843 2595267b 23c424ad     .*%)C(`'{&.%.$.#
 800a8d8:	21ef22da 20142102 1e341f24 1c4f1d42     .".!.!. $.4.B.O.
 800a8e8:	1a651b5b 1878196f 1685177f 148f158b     [.e.o.x.........
 800a8f8:	12951393 10971197 0e960f97 0c910d94     ................
 800a908:	0a890b8d 087e0984 06710778 04600569     ......~.x.q.i.`.
 800a918:	024e0357 00390144 fe22ff2e fc0afd16     W.N.D.9...".....
 800a928:	f9effafd f7d4f8e2 f5b7f6c6 f39af4a9     ................
 800a938:	f17cf28b ef5df06c ed3eee4d eb1fec2e     ..|.l.].M.>.....
 800a948:	e900ea0f e6e1e7f0 e4c3e5d2 e2a6e3b4     ................
 800a958:	e089e197 de6edf7b dc54dd61 da3cdb48     ....{.n.a.T.H.<.
 800a968:	d826d931 d612d71b d400d508 d1f0d2f8     1.&.............
 800a978:	cfe4d0ea cddacede cbd3ccd6 c9d0cad1     ................
 800a988:	c7d0c8cf c5d4c6d2 c3dcc4d8 c1e8c2e2     ................
 800a998:	bff9c0f0 be0ebf03 bc28bd1b ba48bb37     ..........(.7.H.
 800a9a8:	b86cb959 b696b780 b4c5b5ad b2fab3df     Y.l.............
 800a9b8:	b135b217 af77b055 adbfae9a ac0dace5     ..5.U.w.........
 800a9c8:	aa63ab37 a8bfa990 a722a7f0 a58da657     7.c.......".W...
 800a9d8:	a3ffa4c5 a279a33b a0fba1b9 9f84a03f     ....;.y.....?...
 800a9e8:	9e169ecc 9cb19d63 9b549c01 99ff9aa8     ....c.....T.....
 800a9f8:	98b39958 97719811 963796d3 9507959e     X.....q...7.....
 800aa08:	93e09472 92c39350 91af9237 90a59129     r...P...7...)...
 800aa18:	8fa59024 8eaf8f29 8dc38e38 8ce28d51     $...)...8...Q...
 800aa28:	8c0b8c75 8b3e8ba3 8a7c8adc 89c58a1f     u.....>...|.....
 800aa38:	8918896d 887788c6 87e0882a 87558799     m.....w.*.....U.
 800aa48:	86d48713 865f8698 85f58628 859685c4     ......_.(.......
 800aa58:	8542856b 84fa851d 84be84db 848d84a4     k.B.............
 800aa68:	84688479 844e8459 84408445 843d843d     y.h.Y.N.E.@.=.=.
 800aa78:	84468440 845b844f 847c846a 84a88490     @.F.O.[.j.|.....
 800aa88:	84e084c2 85238500 85728549 85cd859f     ......#.I.r.....
 800aa98:	863485ff 86a6866c 872486e4 87ae8767     ..4.l.....$.g...
 800aaa8:	884387f7 88e38891 898f8938 8a4689e9     ..C.....8.....F.
 800aab8:	8b098aa6 8bd78b6e 8cb08c42 8d948d21     ....n...B...!...
 800aac8:	8e848e0b 8f7e8eff 90838fff 9193910a     ......~.........
 800aad8:	92ae921f 93d3933f 9503946a 963e959f     ....?...j.....>.
 800aae8:	978296df 98d19829 9a2a997c 9b8d9ada     ....)...|.*.....
 800aaf8:	9cfa9c42 9e709db4 9ff09f2f a179a0b3     B.....p./.....y.
 800ab08:	a30ca241 a4a8a3d9 a64ca579 a7faa722     A.......y.L."...
 800ab18:	a9b0a8d4 ab6eaa8e ad35ac51 af04ae1c     ......n.Q.5.....
 800ab28:	b0dbafef b2bab1ca b4a1b3ac b68fb597     ................
 800ab38:	b884b788 ba80b981 bc83bb81 be8dbd87     ................
 800ab48:	c09dbf94 c2b3c1a7 c4d0c3c1 c6f2c5e0     ................
 800ab58:	c91ac805 cb48ca30 cd7acc60 cfb2ce95     ....0.H.`.z.....
 800ab68:	d1eed0d0 d42fd30e d675d551 d8bed799     ....../.Q.u.....
 800ab78:	db0cd9e4 dd5ddc34 dfb1de86 e209e0dd     ....4.].........
 800ab88:	e463e336 e6c1e592 e921e7f0 eb83ea52     6.c.......!.R...
 800ab98:	ede7ecb5 f04def1a f2b5f181 f51ef3e9     ......M.........
 800aba8:	f788f652 f9f2f8bd fc5efb28 fecafd94     R.......(.^.....
 800abb8:	0135ffff 03a1026b 060d04d7 08770742     ..5.k.......B.w.
 800abc8:	0ae109ad 0d4a0c16 0fb20e7e 121810e5     ......J.~.......
 800abd8:	147c134a 16de15ad 193e180f 1b9c1a6d     J.|.......>.m...
 800abe8:	1df61cc9 204e1f22 22a22179 24f323cb     ....".N y!.".#.$
 800abf8:	2741261b 298a2866 2bd02aae 2e112cf1     .&A'f(.).*.+.,..
 800ac08:	304d2f2f 3285316a 34b7339f 36e535cf     //M0j1.2.3.4.5.6
 800ac18:	390d37fa 3b2f3a1f 3d4c3c3e 3f623e58     .7.9.:/;><L=X>b?
 800ac28:	4172406b 437c4278 457f447e 477b467e     k@rAxB|C~D.E~F{G
 800ac38:	49704877 4b5e4a68 4d454c53 4f244e35     wHpIhJ^KSLEM5N$O
 800ac48:	50fb5010 52ca51e3 549153ae 564f5571     .P.P.Q.R.S.TqUOV
 800ac58:	5805572b 59b358dd 5b575a86 5cf35c26     +W.X.X.Y.ZW[&\.\
 800ac68:	5e865dbe 600f5f4c 618f60d0 6305624b     .].^L_.`.`.aKb.c
 800ac78:	647263bd 65d56525 672e6683 687d67d6     .crd%e.e.f.g.g}h
 800ac88:	69c16920 6afc6a60 6c2c6b95 6d516cc0      i.i`j.j.k,l.lQm
 800ac98:	6e6c6de0 6f7c6ef5 70817000 717b7100     .mln.n|o.p.p.q{q
 800aca8:	726b71f4 734f72de 742873bd 74f67491     .qkr.rOs.s(t.t.t
 800acb8:	75b97559 76707616 771c76c7 77bc776e     Yu.u.vpv.v.wnw.w
 800acc8:	78517808 78db7898 7959791b 79cb7993     .xQx.x.x.yYy.y.y
 800acd8:	7a327a00 7a8d7a60 7adc7ab6 7b1f7aff     .z2z`z.z.z.z.z.{
 800ace8:	7b577b3d 7b837b6f 7ba47b95 7bb97bb0     ={W{o{.{.{.{.{.{
 800acf8:	7bc27bbf 7bbf7bc2 7bb17bba 7b977ba6     .{.{.{.{.{.{.{.{
 800ad08:	7b727b86 7b417b5b 7b057b24 7abd7ae2     .{r{[{A{${.{.z.z
 800ad18:	7a697a94 7a0a7a3b 79a079d7 792b7967     .ziz;z.z.y.ygy+y
 800ad28:	78aa78ec 781f7866 778877d5 76e77739     .x.xfx.x.w.w9w.v
 800ad38:	763a7692 758375e0 74c17523 73f4745c     .v:v.u.u#u.t\t.s
 800ad48:	731d738a 723c72ae 715071c7 705a70d6     .s.s.r<r.qPq.pZp
 800ad58:	6f5a6fdb 6e506ed6 6d3c6dc8 6c1f6caf     .oZo.nPn.m<m.l.l
 800ad68:	6af86b8d 69c86a61 688e692c 674c67ee     .k.jaj.i,i.h.gLg
 800ad78:	660066a7 64ab6557 634e63fe 61e9629c     .f.fWe.d.cNc.b.a
 800ad88:	607b6133 5f045fc0 5d865e46 5c005cc4     3a{`._._F^.].\.\
 800ad98:	5a725b3a 58dd59a8 5740580f 559c566f     :[rZ.Y.X.X@WoV.U
 800ada8:	53f254c8 5240531a 50885165 4eca4faa     .T.S.S@ReQ.P.O.N
 800adb8:	4d054de8 4b3a4c20 49694a52 4793487f     .M.M L:KRJiI.H.G
 800adc8:	45b746a6 43d744c8 41f142e4 400640fc     .F.E.D.C.B.A.@.@
 800add8:	3e173f0f 3c233d1d 3a2b3b27 382f392d     .?.>.=#<';+:-9/8
 800ade8:	362f3730 342c352e 32253329 301b3121     07/6.5,4)3%2!1.0
 800adf8:	2e0f2f15 2bff2d07 29ed2af7 27d928e4     ./...-.+.*.).(.'
 800ae08:	25c326ce 23ab24b7 2191229e 1f762084     .&.%.$.#.".!. v.
 800ae18:	1d591e68 1b3c1c4b 191e1a2d 16ff180f     h.Y.K.<.-.......
 800ae28:	14e015f0 12c113d1 10a211b2 0e830f93     ................
 800ae38:	0c650d74 0a480b56 082b0939 0610071d     t.e.V.H.9.+.....
 800ae48:	03f50502 01dd02e9 ffc600d1 fdb1febb     ................
 800ae58:	fb9ffca8 f98efa96 f781f887 f576f67b     ............{.v.
 800ae68:	f36ef472 f169f26b ef68f068 ed6aee68     r.n.k.i.h.h.h.j.
 800ae78:	eb70ec6c e97aea74 e787e880 e59ae690     l.p.t.z.........
 800ae88:	e3b0e4a4 e1cbe2bd dfebe0db de10defd     ................
 800ae98:	dc3bdd25 da6adb52 d89fd984 d6dad7bc     %.;.R.j.........
 800aea8:	d51ad5f9 d360d43c d1add286 cfffd0d5     ....<.`.........
 800aeb8:	ce58cf2b ccb8cd87 cb1ecbea c98bca53     +.X.........S...
 800aec8:	c7ffc8c4 c67ac73b c4fcc5ba c385c43f     ....;.z.....?...
 800aed8:	c216c2cc c0aec161 bf4ebffd bdf6bea1     ....a.....N.....
 800aee8:	bca5bd4c bb5dbc00 ba1cbabb b8e3b97f     L.....].........
 800aef8:	b7b3b84a b68bb71e b56cb5fa b454b4df     J.........l...T.
 800af08:	b346b3cc b240b2c2 b142b1c0 b04db0c7     ..F...@...B...M.
 800af18:	af61afd6 ae7eaeef ada4ae10 acd2ad3a     ..a...~.....:...
 800af28:	ac0aac6d ab4aaba9 aa93aaee a9e6aa3b     m.....J.....;...
 800af38:	a941a992 a8a6a8f2 a813a85b a78aa7cd     ..A.....[.......
 800af48:	a70aa749 a692a6cd a624a65a a5bfa5f1     I.......Z.$.....
 800af58:	a563a590 a511a539 a4c7a4eb a486a4a5     ..c.9...........
 800af68:	a44ea469 a420a436 a3faa40b a3dda3ea     i.N.6. .........
 800af78:	a3c9a3d2 a3bda3c2 a3bba3bb a3c1a3bd     ................
 800af88:	a3d0a3c8 a3e8a3db a408a3f7 a431a41b     ..............1.
 800af98:	a462a448 a49ba47d a4dda4bb a527a501     H.b.}.........'.
 800afa8:	a579a54f a5d3a5a5 a635a603 a69fa669     O.y.......5.i...
 800afb8:	a711a6d7 a78aa74c a80ba7ca a893a84e     ....L.......N...
 800afc8:	a923a8da a9baa96e aa59aa09 aafeaaaa     ..#.n.....Y.....
 800afd8:	abaaab53 ac5dac03 ad17acba add8ad77     S.....].....w...
 800afe8:	ae9fae3a af6caf04 b03fafd5 b119b0ab     :.....l...?.....
 800aff8:	b1f8b188 b2ddb26a b3c8b352 b4b9b440     ....j...R...@...
 800b008:	b5afb533 b6aab62c b7aab72a b8b0b82c     3...,...*...,...
 800b018:	b9bab934 bac9ba41 bbdcbb52 bcf4bc68     4...A...R...h...
 800b028:	be10bd82 bf30bea0 c055bfc2 c17dc0e8     ......0...U...}.
 800b038:	c2a8c212 c3d7c33f c50ac470 c640c5a5     ....?...p.....@.
 800b048:	c779c6dc c8b4c816 c9f3c953 cb34ca93     ..y.....S.....4.
 800b058:	cc77cbd5 cdbdcd1a cf05ce61 d04fcfaa     ..w.....a.....O.
 800b068:	d19bd0f5 d2e8d241 d437d38f d587d4df     ....A.....7.....
 800b078:	d6d9d630 d82bd782 d97fd8d5 dad3da29     0.....+.....)...
 800b088:	dc28db7d dd7ddcd2 ded3de28 e028df7d     }.(...}.(...}.(.
 800b098:	e17ee0d3 e2d4e229 e429e37f e57ee4d4     ..~.).....)...~.
 800b0a8:	e6d3e629 e827e77d e979e8d0 eacbea23     )...}.'...y.#...
 800b0b8:	ec1ceb74 ed6cecc4 eebaee13 f007ef61     t.....l.....a...
 800b0c8:	f152f0ad f29cf1f7 f3e3f340 f529f486     ..R.....@.....).
 800b0d8:	f66cf5cb f7aef70d f8edf84d fa29f98b     ..l.....M.....).
 800b0e8:	fb63fac6 fc9afbff fdcefd35 ff00fe67     ..c.....5...g...
 800b0f8:	002eff97 015a00c4 028201ee 03a70315     ......Z.........
 800b108:	04c80438 05e60558 07010674 0817078c     8...X...t.......
 800b118:	092a08a1 0a3a09b2 0b450ac0 0c4c0bc9     ..*...:...E...L.
 800b128:	0d500cce 0e4f0dd0 0f4a0ecd 10400fc6     ..P...O...J...@.
 800b138:	113310ba 122111aa 130a1296 13f0137e     ..3...!.....~...
 800b148:	14d01460 15ac153f 16841618 175616ed     `...?.........V.
 800b158:	182417be 18ed1889 19b21950 1a711a12     ..$.....P.....q.
 800b168:	1b2c1acf 1be21b88 1c931c3b 1d3f1cea     ..,.....;.....?.
 800b178:	1de61d94 1e891e38 1f261ed8 1fbe1f73     ....8.....&.s...
 800b188:	20522009 20e02099 21692125 21ee21ac     . R . . %!i!.!.!
 800b198:	226d222e 22e722ab 235d2323 23cd2396     ."m"."."##]#.#.#
 800b1a8:	24392404 24a0246d 250124d1 255e2530     .$9$m$.$.$.%0%^%
 800b1b8:	25b6258b 260925e0 26582631 26a1267d     .%.%.%.&1&X&}&.&
 800b1c8:	26e626c4 27262707 27622745 2799277e     .&.&.'&'E'b'~'.'
 800b1d8:	27cb27b2 27f927e2 2822280e 28472835     .'.'.'.'.("(5(G(
 800b1e8:	28672857 28832875 289b288f 28ae28a5     W(g(u(.(.(.(.(.(
 800b1f8:	28bd28b6 28c928c4 28d028cd 28d328d2     .(.(.(.(.(.(.(.(
 800b208:	28d228d3 28cd28d0 28c528c9 28b928bf     .(.(.(.(.(.(.(.(
 800b218:	28a928b1 2895289f 287e288a 28642871     .(.(.(.(.(~(q(d(
 800b228:	28462855 28242835 28002813 27d927ed     U(F(5($(.(.(.'.'
 800b238:	27ae27c4 27802797 27502768 271c2736     .'.'.'.'h'P'6'.'
 800b248:	26e62702 26ad26ca 26722690 26342653     .'.&.&.&.&r&S&4&
 800b258:	25f42614 25b125d3 256c258f 25252549     .&.%.%.%.%l%I%%%
 800b268:	24dc2501 249124b7 2444246b 23f5241d     .%.$.$.$k$D$.$.#
 800b278:	23a423cd 2352237c 22fe2328 22a922d4     .#.#|#R#(#."."."
 800b288:	2252227e 21fa2226 21a121ce 21472174     ~"R"&".!.!.!t!G!
 800b298:	20eb2119 208f20bd 20312060 1fd32002     .!. . . ` 1 . ..
 800b2a8:	1f741fa4 1f151f44 1eb41ee4 1e541e84     ..t.D.........T.
 800b2b8:	1df31e23 1d911dc2 1d301d60 1cce1cff     #.......`.0.....
 800b2c8:	1c6c1c9d 1c0a1c3b 1ba81bd9 1b461b77     ..l.;.......w.F.
 800b2d8:	1ae41b15 1a831ab4 1a221a52 19c119f1     ........R.".....
 800b2e8:	19611991 19011931 18a218d1 18431872     ..a.1.......r.C.
 800b2f8:	17e51814 178817b7 172c175a 16d116fe     ........Z.,.....
 800b308:	167616a3 161d1649 15c415f0 156d1598     ..v.I.........m.
 800b318:	15161541 14c114ec 146d1497 141a1444     A.........m.D...
 800b328:	13c913f2 137913a1 132a1352 12dd1304     ......y.R.*.....
 800b338:	129112b7 1247126c 11fe1222 11b711da     ....l.G.".......
 800b348:	11711193 112d114e 10ea110b 10a910c9     ..q.N.-.........
 800b358:	10691089 102c104a 0ff0100e 0fb50fd2     ..i.J.,.........
 800b368:	0f7d0f99 0f460f61 0f100f2b 0edd0ef6     ..}.a.F.+.......
 800b378:	0eab0ec4 0e7b0e93 0e4c0e63 0e200e36     ......{.c.L.6. .
 800b388:	0df50e0a 0dcc0de0 0da40db8 0d7e0d91     ..............~.
 800b398:	0d5a0d6c 0d370d48 0d170d27 0cf70d07     l.Z.H.7.'.......
 800b3a8:	0cda0ce8 0cbe0ccb 0ca30cb0 0c8a0c97     ................
 800b3b8:	0c730c7e 0c5d0c68 0c490c53 0c360c3f     ~.s.h.].S.I.?.6.
 800b3c8:	0c240c2d 0c140c1c 0c060c0d 0bf80bff     -.$.............
 800b3d8:	0bec0bf2 0be10be6 0bd70bdc 0bcf0bd3     ................
 800b3e8:	0bc70bcb 0bc10bc4 0bbc0bbe 0bb70bb9     ................
 800b3f8:	0bb40bb6 0bb20bb3 0bb00bb1 0baf0bb0     ................
 800b408:	0baf0baf 0bb00baf 0bb10bb0 0bb30bb2     ................
 800b418:	0bb60bb4 0bb90bb7 0bbc0bba 0bc00bbe     ................
 800b428:	0bc40bc2 0bc80bc6 0bcd0bca 0bd20bcf     ................
 800b438:	0bd60bd4 0bdb0bd9 0be00bde 0be50be3     ................
 800b448:	0bea0be7 0bee0bec 0bf20bf0 0bf60bf5     ................
 800b458:	0bfa0bf8 0bfd0bfc 0c000bff 0c020c01     ................
 800b468:	0c040c03 0c040c04 0c050c05 0c040c04     ................
 800b478:	0c030c03 0c000c02 0bfd0bff 0bf90bfb     ................
 800b488:	0bf30bf6 0bed0bf0 0be50be9 0bdd0be1     ................
 800b498:	0bd30bd8 0bc70bcd 0bba0bc1 0bac0bb4     ................
 800b4a8:	0b9d0ba5 0b8b0b94 0b790b82 0b640b6f     ..........y.o.d.
 800b4b8:	0b4e0b5a 0b370b43 0b1d0b2a 0b020b10     Z.N.C.7.*.......
 800b4c8:	0ae50af4 0ac60ad6 0aa50ab6 0a830a94     ................
 800b4d8:	0a5e0a71 0a370a4b 0a0f0a23 09e409f9     q.^.K.7.#.......
 800b4e8:	09b709ce 098809a0 0957096f 0923093d     ........o.W.=.#.
 800b4f8:	08ee0909 08b608d2 087c0899 083f085e     ..........|.^.?.
 800b508:	08010820 07c007e1 077d079f 0737075a      .........}.Z.7.
 800b518:	06ef0714 06a506cb 0659067f 060a0632     ..........Y.2...
 800b528:	05b905e1 0565058f 050f053a 04b704e3     ......e.:.......
 800b538:	045c048a 03ff042e 03a003d0 033e036f     ..\.........o.>.
 800b548:	02da030c 027402a7 020c0240 01a101d6     ......t.@.......
 800b558:	0134016b 00c500fc 0053008c ffdf001a     k.4.......S.....
 800b568:	ff6affa5 fef2ff2e fe78feb5 fdfcfe3a     ..j.......x.:...
 800b578:	fd7efdbd fcfefd3e fc7cfcbd fbf8fc3a     ..~.>.....|.:...
 800b588:	fb72fbb6 faebfb2f fa62faa6 f9d7fa1c     ..r./.....b.....
 800b598:	f94af990 f8bbf903 f82cf874 f79af7e3     ..J.....t.,.....
 800b5a8:	f707f751 f673f6bd f5ddf628 f546f592     Q.....s.(.....F.
 800b5b8:	f4aef4fa f414f461 f37af3c7 f2def32c     ....a.....z.,...
 800b5c8:	f242f290 f1a4f1f3 f106f155 f067f0b7     ..B.....U.....g.
 800b5d8:	efc7f017 ef27ef77 ee86eed6 ede4ee35     ....w.'.....5...
 800b5e8:	ed42ed93 eca0ecf1 ebfeec4f eb5bebac     ..B.....O.....[.
 800b5f8:	eab8eb0a ea16ea67 e973e9c4 e8d0e922     ....g.....s."...
 800b608:	e82ee87f e78ce7dd e6ebe73b e649e69a     ........;.....I.
 800b618:	e5a9e5f9 e509e559 e46ae4b9 e3cce41b     ....Y.....j.....
 800b628:	e32ee37d e292e2e0 e1f6e244 e15ce1a9     }.......D.....\.
 800b638:	e0c3e110 e02ce078 df96dfe1 df01df4b     ....x.,.....K...
 800b648:	de6edeb8 ddddde25 dd4edd95 dcc0dd06     ..n.%.....N.....
 800b658:	dc34dc7a dbabdbef db23db67 da9edae0     z.4.....g.#.....
 800b668:	da1bda5c d99ad9da d91cd95b d8a1d8de     \.......[.......
 800b678:	d828d864 d7b1d7ec d73ed777 d6cdd705     d.(.....w.>.....
 800b688:	d660d696 d5f5d62a d58dd5c1 d529d55b     ..`.*.......[.).
 800b698:	d4c8d4f8 d46ad499 d410d43d d3b9d3e4     ......j.=.......
 800b6a8:	d365d38f d316d33d d2cad2ef d281d2a5     ..e.=...........
 800b6b8:	d23dd25e d1fcd21c d1bfd1dd d186d1a2     ^.=.............
 800b6c8:	d152d16b d121d139 d0f4d10a d0ccd0e0     k.R.9.!.........
 800b6d8:	d0a8d0b9 d088d097 d06dd07a d056d061     ........z.m.a.V.
 800b6e8:	d043d04c d035d03b d02bd02f d026d028     L.C.;.5./.+.(.&.
 800b6f8:	d026d025 d02ad027 d032d02d d040d039     %.&.'.*.-.2.9.@.
 800b708:	d052d048 d069d05d d084d076 d0a5d094     H.R.].i.v.......
 800b718:	d0cad0b7 d0f4d0de d122d10a d156d13c     ..........".<.V.
 800b728:	d18ed172 d1cbd1ac d20dd1ec d254d230     r...........0.T.
 800b738:	d2a0d27a d2f0d2c8 d346d31b d3a0d372     z.........F.r...
 800b748:	d3ffd3cf d463d430 d4cbd496 d538d501     ....0.c.......8.
 800b758:	d5aad571 d621d5e5 d69cd65e d71cd6db     q.....!.^.......
 800b768:	d7a1d75e d82ad7e5 d8b7d870 d94ad900     ^.....*.p.....J.
 800b778:	d9e0d994 da7bda2d db1bdacb dbbfdb6c     ....-.{.....l...
 800b788:	dc67dc12 dd13dcbc ddc3dd6b de78de1d     ..g.....k.....x.
 800b798:	df31ded4 dfeddf8e e0aee04d e172e10f     ..1.....M.....r.
 800b7a8:	e23ae1d6 e306e2a0 e3d6e36e e4a9e43f     ..:.....n...?...
 800b7b8:	e580e514 e65ae5ec e737e6c8 e818e7a7     ......Z...7.....
 800b7c8:	e8fce889 e9e2e96f eaccea57 ebb9eb42     ....o...W...B...
 800b7d8:	eca9ec31 ed9bed22 ee90ee15 ef88ef0c     1..."...........
 800b7e8:	f082f004 f17ef0ff f27cf1fd f37df2fc     ......~...|...}.
 800b7f8:	f480f3fe f584f502 f68af607 f792f70e     ................
 800b808:	f89cf817 f9a7f921 fab4fa2d fbc1fb3a     ....!...-...:...
 800b818:	fcd0fc49 fde0fd58 fef1fe69 0003ff7a     I...X...i...z...
 800b828:	0115008c 0228019e 033b02b1 044f03c5     ......(...;...O.
 800b838:	056204d9 067605ec 078a0700 089e0814     ..b...v.........
 800b848:	09b10928 0ac40a3b 0bd70b4e 0ce90c60     (...;...N...`...
 800b858:	0dfa0d71 0f0a0e82 10190f92 112710a0     q.............'.
 800b868:	123411ae 133f12ba 144913c4 155114ce     ..4...?...I...Q.
 800b878:	165815d5 175d16db 185f17de 196018e0     ..X...]..._...`.
 800b888:	1a5e19e0 1b5b1add 1c541bd8 1d4b1cd0     ..^...[...T...K.
 800b898:	1e401dc6 1f311eb9 20201fa9 210c2096     ..@...1...  . .!
 800b8a8:	21f42181 22da2268 23bc234b 249a242c     .!.!h"."K#.#,$.$
 800b8b8:	25762508 264d25e2 272126b7 27f02789     .%v%.%M&.&!'.'.'
 800b8c8:	28bc2857 29842921 2a4829e6 2b072aa8     W(.(!).).)H*.*.+
 800b8d8:	2bc22b65 2c792c1e 2d2b2cd3 2dd92d83     e+.+.,y,.,+-.-.-
 800b8e8:	2e822e2e 2f262ed5 2fc62f76 30603013     ......&/v/./.0`0
 800b8f8:	30f530ab 3186313e 321131cc 32973255     .0.0>1.1.1.2U2.2
 800b908:	331832d8 33943357 340a33cf 347b3443     .2.3W3.3.3.4C4{4
 800b918:	34e634b1 354b3519 35ac357c 360635d9     .4.4.5K5|5.5.5.6
 800b928:	365b3631 36aa3683 36f336cf 37363715     16[6.6.6.6.6.767
 800b938:	37743756 37ab3790 37dd37c5 380937f4     V7t7.7.7.7.7.7.8
 800b948:	382f381d 384f383f 3868385c 387c3873     .8/8?8O8\8h8s8|8
 800b958:	388a3884 3892388f 38933893 388f3892     .8.8.8.8.8.8.8.8
 800b968:	3885388b 3874387d 385e386a 38413850     .8.8}8t8j8^8P8A8
 800b978:	381f3831 37f6380b 37c837e0 379337ae     18.8.8.7.7.7.7.7
 800b988:	37593777 37183739 36d236f6 368636ad     w7Y797.7.6.6.6.6
 800b998:	3634365e 35dc3609 357f35ae 351b354e     ^646.6.5.5.5N5.5
 800b9a8:	34b234e8 3444347c 33d0340a 33563394     .4.4|4D4.4.3.3V3
 800b9b8:	32d73317 32533295 31c9320e 313a3182     .3.2.2S2.2.1.1:1
 800b9c8:	30a530f0 300c3059 2f6d2fbd 2eca2f1c     .0.0Y0.0./m/./..
 800b9d8:	2e222e76 2d742dcc 2cc22d1c 2c0c2c68     v."..-t-.-.,h,.,
 800b9e8:	2b502baf 2a912af1 29cd2a2f 29042969     .+P+.*.*/*.)i).)
 800b9f8:	2838289e 276727d0 269226fd 25b92626     .(8(.'g'.&.&&&.%
 800ba08:	24dd254c 23fd246d 2319238b 223222a6     L%.$m$.#.#.#."2"
 800ba18:	214721bd 205920d0 1f681fe1 1e741eee     .!G!. Y ..h...t.
 800ba28:	1d7d1df9 1c831d00 1b871c05 1a871b07     ..}.............
 800ba38:	19861a07 18821904 177c17ff 167416f8     ..........|...t.
 800ba48:	156a15ef 145e14e4 135113d8 124212ca     ..j...^...Q...B.
 800ba58:	113111ba 102010a9 0f0d0f96 0df90e83     ..1... .........
 800ba68:	0ce40d6f 0bcf0c5a 0ab90b44 09a20a2d     o...Z...D...-...
 800ba78:	088b0917 07740800 065d06e8 054605d1     ......t...]...F.
 800ba88:	042f04ba 031803a3 0202028d 00ec0177     ../.........w...
 800ba98:	ffd70062 fec3ff4d fdb0fe3a fc9ffd27     b...M...:...'...
 800baa8:	fb8efc16 fa7ffb06 f971f9f8 f865f8eb     ..........q...e.
 800bab8:	f75bf7e0 f652f6d6 f54cf5cf f448f4ca     ..[...R...L...H.
 800bac8:	f346f3c7 f247f2c6 f14af1c8 f050f0cc     ..F...G...J...P.
 800bad8:	ef58efd4 ee64eede ed72edeb ec84ecfb     ..X...d...r.....
 800bae8:	eb99ec0e eab1eb24 e9cdea3e e8ece95c     ....$...>...\...
 800baf8:	e80fe87d e735e7a2 e660e6ca e58fe5f7     }.....5...`.....
 800bb08:	e4c1e527 e3f8e45c e333e395 e273e2d3     '...\.....3...s.
 800bb18:	e1b7e214 e0ffe15b e04de0a5 df9edff5     ....[.....M.....
 800bb28:	def5df49 de51dea2 ddb1de00 dd17dd63     I.....Q.....c...
 800bb38:	dc81dccb dbf1dc39 db66dbab dae1db23     ....9.....f.#...
 800bb48:	da60daa0 d9e5da22 d970d9aa d900d937     ..`.".....p.7...
 800bb58:	d896d8ca d831d862 d7d2d800 d778d7a4     ....b.1.......x.
 800bb68:	d724d74d d6d6d6fd d68ed6b2 d64cd66c     M.$.........l.L.
 800bb78:	d60fd62d d5d8d5f3 d5a8d5bf d57dd591     -.............}.
 800bb88:	d558d569 d538d547 d51fd52b d50cd515     i.X.G.8.+.......
 800bb98:	d4fed504 d4f7d4fa d4f5d4f5 d4fad4f7     ................
 800bba8:	d504d4fe d514d50b d52ad51e d545d537     ..........*.7.E.
 800bbb8:	d567d555 d58ed57a d5bbd5a4 d5eed5d4     U.g.z...........
 800bbc8:	d626d609 d664d645 d6a8d685 d6f1d6cc     ..&.E.d.........
 800bbd8:	d740d718 d794d769 d7edd7c0 d84cd81c     ..@.i.........L.
 800bbe8:	d8b0d87d d919d8e4 d987d94f d9fad9c0     }.......O.......
 800bbf8:	da73da36 daf0dab1 db72db30 dbf9dbb5     6.s.....0.r.....
 800bc08:	dc84dc3e dd14dccc dda9dd5e de42ddf5     >.......^.....B.
 800bc18:	dedfde90 df81df2f e026dfd3 e0d0e07b     ..../.....&.{...
 800bc28:	e17de126 e22fe1d6 e2e4e289 e39de340     &.}.../.....@...
 800bc38:	e459e3fa e518e4b8 e5dbe579 e6a1e63e     ..Y.....y...>...
 800bc48:	e76ae705 e836e7d0 e905e89d e9d6e96d     ..j...6.....m...
 800bc58:	eaaaea40 eb81eb15 ec59ebed ed34ecc7     @.........Y...4.
 800bc68:	ee11eda2 eef0ee80 efd1ef60 f0b3f042     ........`...B...
 800bc78:	f197f125 f27cf209 f363f2ef f44bf3d7     %.....|...c...K.
 800bc88:	f533f4bf f61df5a8 f707f692 f7f2f77c     ..3.........|...
 800bc98:	f8ddf867 f9c9f953 fab4fa3f fba0fb2a     g...S...?...*...
 800bca8:	fc8cfc16 fd77fd02 fe63fded ff4dfed8     ......w...c...M.
 800bcb8:	0037ffc2 012000ac 02090195 02f0027c     ..7... .....|...
 800bcc8:	03d60363 04ba0448 059e052c 067f060f     c...H...,.......
 800bcd8:	075f06ef 083d07ce 091908ac 09f30987     .._...=.........
 800bce8:	0acb0a5f 0ba00b36 0c730c0a 0d430cdc     _...6.....s...C.
 800bcf8:	0e110daa 0edb0e76 0fa30f40 10681006     ....v...@.....h.
 800bd08:	112910c9 11e71188 12a11244 135812fd     ..).....D.....X.
 800bd18:	140b13b2 14bb1464 15671511 160e15bb     ....d.....g.....
 800bd28:	16b21660 17511702 17ec179f 18831838     `.....Q.....8...
 800bd38:	191518cc 19a3195c 1a2c19e8 1ab01a6e     ....\.....,.n...
 800bd48:	1b2f1af0 1baa1b6d 1c1f1be5 1c901c58     ../.m.......X...
 800bd58:	1cfb1cc6 1d621d2f 1dc31d93 1e1e1df1     ..../.b.........
 800bd68:	1e751e4a 1ec51e9e 1f111eec 1f571f34     J.u.........4.W.
 800bd78:	1f971f78 1fd21fb5 20071fed 2036201f     x.......... . 6 
 800bd88:	205f204b 20832072 20a12093 20b920ae     K _ r . . . . . 
 800bd98:	20cb20c3 20d820d2 20de20dc 20df20df     . . . . . . . . 
 800bda8:	20d920dd 20ce20d4 20bd20c6 20a620b2     . . . . . . . . 
 800bdb8:	20892098 20662078 203d2052 200e2026     . . x f R = & . 
 800bdc8:	1fda1ff5 1f9f1fbd 1f5f1f80 1f191f3d     .........._.=...
 800bdd8:	1ecd1ef4 1e7c1ea5 1e241e51 1dc71df7     ......|.Q.$.....
 800bde8:	1d651d97 1cfd1d32 1c8f1cc7 1c1c1c56     ..e.2.......V...
 800bdf8:	1ba41be1 1b261b66 1aa31ae5 1a1b1a5f     ....f.&....._...
 800be08:	198d19d4 18fb1944 186318af 17c61815     ....D.....c.....
 800be18:	17251776 167f16d3 15d4162a 1525157d     v.%.....*...}.%.
 800be28:	147114cc 13b91415 12fc135b 123b129c     ..q.....[.....;.
 800be38:	117711da 10ae1113 0fe11048 0f100f79     ..w.....H...y...
 800be48:	0e3c0ea7 0d640dd1 0c890cf7 0bab0c1a     ..<...d.........
 800be58:	0ac90b3a 09e40a57 08fc0971 08120887     :...W...q.......
 800be68:	0725079c 063506ad 054205bc 044e04c8     ..%...5...B...N.
 800be78:	035703d3 025e02db 016401e1 006700e6     ..W...^...d...g.
 800be88:	ff69ffe8 fe6afeea fd69fdea fc67fce8     ..i...j...i...g.
 800be98:	fb64fbe6 fa60fae2 f95bf9de f856f8d9     ..d...`...[...V.
 800bea8:	f751f7d4 f64bf6ce f545f5c8 f43ff4c2     ..Q...K...E...?.
 800beb8:	f339f3bc f233f2b6 f12ef1b0 f029f0ac     ..9...3.......).
 800bec8:	ef26efa7 ee23eea4 ed21eda2 ec21eca1     ..&...#...!...!.
 800bed8:	eb21eba1 ea24eaa2 e928e9a6 e82ee8ab     ..!...$...(.....
 800bee8:	e736e7b2 e640e6ba e54ce5c6 e45be4d3     ..6...@...L...[.
 800bef8:	e36ce3e3 e280e2f6 e197e20b e0b1e124     ..l.........$...
 800bf08:	dfcee03f deeedf5e de12de80 dd39dda5     ?...^.........9.
 800bf18:	dc64dcce db93dbfb dac6db2c d9fdda61     ..d.....,...a...
 800bf28:	d938d99a d878d8d8 d7bcd819 d705d760     ..8...x.....`...
 800bf38:	d652d6ab d5a5d5fb d4fcd550 d458d4a9     ..R.....P.....X.
 800bf48:	d3bad408 d321d36d d28dd2d6 d1ffd245     ....m.!.....E...
 800bf58:	d177d1ba d0f4d134 d077d0b5 d000d03b     ..w.4.....w.;...
 800bf68:	cf8fcfc7 cf24cf59 cec0cef1 ce61ce90     ....Y.$.......a.
 800bf78:	ce09ce35 cdb8cde0 cd6dcd92 cd29cd4a     5.........m.J.).
 800bf88:	ccebcd09 ccb4cccf cc84cc9b cc5acc6e     ............n.Z.
 800bf98:	cc38cc48 cc1ccc29 cc08cc11 cbfacc00     H.8.)...........
 800bfa8:	cbf4cbf6 cbf5cbf3 cbfdcbf8 cc0ccc03     ................
 800bfb8:	cc22cc16 cc3fcc30 cc64cc51 cc90cc79     ..".0.?.Q.d.y...
 800bfc8:	ccc4cca9 ccfecce0 cd40cd1e cd89cd64     ..........@.d...
 800bfd8:	cddacdb1 ce32ce05 ce91ce60 cef7cec3     ......2.`.......
 800bfe8:	cf65cf2d cfdacf9e d056d017 d0d9d096     -.e.......V.....
 800bff8:	d163d11d d1f5d1ab d28dd240 d32dd2dc     ..c.....@.....-.
 800c008:	d3d3d37f d480d429 d535d4da d5f0d591     ....).....5.....
 800c018:	d6b2d650 d77ad715 d849d7e1 d91fd8b3     P.....z...I.....
 800c028:	d9fbd98c daddda6b dbc6db51 dcb5dc3c     ....k...Q...<...
 800c038:	ddaadd2e dea5de26 dfa6df24 e0ace028     ....&...$...(...
 800c048:	e1b9e132 e2cbe241 e3e2e356 e4ffe470     2...A...V...p...
 800c058:	e621e590 e749e6b5 e875e7de e9a6e90d     ..!...I...u.....
 800c068:	eadcea41 ec17eb79 ed56ecb6 ee9aedf8     A...y.....V.....
 800c078:	efe2ef3d f12ef087 f27df1d5 f3d1f327     =.........}.'...
 800c088:	f528f47c f683f5d5 f7e1f732 f942f891     |.(.....2.....B.
 800c098:	faa7f9f4 fc0efb5a fd78fcc3 fee4fe2e     ....Z.....x.....
 800c0a8:	0053ff9b 01c4010b 0337027d 04ac03f2     ..S.....}.7.....
 800c0b8:	06230567 079b06df 09150858 0a9009d2     g.#.....X.......
 800c0c8:	0c0b0b4d 0d880cca 0f050e46 10830fc4     M.......F.......
 800c0d8:	12011142 137f12c0 14fd143e 167b15bc     B.......>.....{.
 800c0e8:	17f8173a 197518b7 1af11a33 1c6c1baf     :.....u.3.....l.
 800c0f8:	1de61d29 1f5f1ea3 20d6201a 224b2191     )....._.. . .!K"
 800c108:	23be2305 25302477 269f25e7 280b2755     .#.#w$0%.%.&U'.(
 800c118:	297528c1 2add2a29 2c412b8f 2da22cf2     .(u))*.*.+A,.,.-
 800c128:	2f002e51 305a2fad 31b03106 3303325a     Q.././Z0.1.1Z2.3
 800c138:	345233ab 359c34f8 36e23640 38243784     .3R4.4.5@6.6.7$8
 800c148:	396138c3 3a9939fd 3bcc3b33 3cfa3c63     .8a9.9.:3;.;c<.<
 800c158:	3e223d8e 3f453eb4 40623fd4 417a40ef     .=">.>E?.?b@.@zA
 800c168:	428b4203 43964312 449c441a 459a451c     .B.B.C.C.D.D.E.E
 800c178:	46934617 4784470c 486f47fa 495348e2     .F.F.G.G.GoH.HSI
 800c188:	4a2f49c2 4b054a9b 4bd34b6d 4c9a4c37     .I/J.J.KmK.K7L.L
 800c198:	4d594cfa 4e114db6 4ec04e69 4f684f15     .LYM.M.NiN.N.OhO
 800c1a8:	50084fb9 50a05055 513050e9 51b75174     .O.PUP.P.P0QtQ.Q
 800c1b8:	523651f7 52ac5272 531a52e5 5380534e     .Q6RrR.R.R.SNS.S
 800c1c8:	53dd53af 54315408 547c5457 54be549e     .S.S.T1TWT|T.T.T
 800c1d8:	54f754dc 55285511 554f553c 556d555f     .T.T.U(U<UOU_UmU
 800c1e8:	55825579 558e5589 55905590 558a558e     yU.U.U.U.U.U.U.U
 800c1f8:	557a5583 5561556f 553e5551 5512552a     .UzUoUaUQU>U*U.U
 800c208:	54dd54f9 549f54bf 5457547c 54065430     .T.T.T.T|TWT0T.T
 800c218:	53ab53da 5347537b 52da5312 526452a0     .S.S{SGS.S.R.RdR
 800c228:	51e45225 515b51a1 50c95113 502e507d     %R.Q.Q[Q.Q.P}P.P
 800c238:	4f8a4fdd 4edc4f34 4e264e82 4d664dc7     .O.O4O.N.N&N.MfM
 800c248:	4c9e4d03 4bcd4c36 4af34b61 4a104a82     .M.L6L.KaK.J.J.J
 800c258:	4924499b 483148ac 473447b3 462f46b3     .I$I.H1H.G4G.F/F
 800c268:	452245aa 440d4499 42f0437f 41ca425e     .E"E.D.D.C.B^B.A
 800c278:	409d4134 3f684003 3e2b3eca 3ce73d8a     4A.@.@h?.>+>.=.<
 800c288:	3b9b3c42 3a483af2 38ed399b 378c383e     B<.;.:H:.9.8>8.7
 800c298:	362436d9 34b5356d 333f33fb 31c33282     .6$6m5.4.3?3.2.1
 800c2a8:	30403102 2eb72f7c 2d282df1 2b942c5f     .1@0|/...-(-_,.+
 800c2b8:	29f92ac7 2859292a 26b32787 250925df     .*.)*)Y(.'.&.%.%
 800c2c8:	23592431 21a4227f 1feb20c8 1e2d1f0c     1$Y#.".!. ....-.
 800c2d8:	1c6a1d4c 1aa41b88 18d919bf 170b17f2     L.j.............
 800c2e8:	15391622 1363144e 118a1277 0faf109d     ".9.N.c.w.......
 800c2f8:	0dd00ec0 0bef0ce0 0a0b0afd 08250918     ..............%.
 800c308:	063d0731 04520548 0267035d 007a0170     1.=.H.R.].g.p.z.
 800c318:	fe8bff82 fc9cfd93 faabfba4 f8baf9b3     ................
 800c328:	f6c9f7c2 f4d7f5d0 f2e5f3de f0f4f1ed     ................
 800c338:	ef03effb ed12ee0a eb22ec1a e934ea2b     ..........".+.4.
 800c348:	e746e83d e55ae650 e370e465 e187e27b     =.F.P.Z.e.p.{...
 800c358:	dfa0e093 ddbcdeae dbdadccb d9fbdaea     ................
 800c368:	d81fd90d d646d732 d470d55a d29dd386     ....2.F.Z.p.....
 800c378:	d0ced1b5 cf03cfe8 cd3cce1f cb7acc5b     ..........<.[.z.
 800c388:	c9bbca9a c802c8de c64dc727 c49dc575     ........'.M.u...
 800c398:	c2f3c3c7 c14dc21f bfaec07d be14bee0     ......M.}.......
 800c3a8:	bc80bd49 baf2bbb8 b96aba2d b7e9b8a9     I.......-.j.....
 800c3b8:	b66eb72a b4fab5b3 b38db443 b227b2d9     *.n.....C.....'.
 800c3c8:	b0c8b176 af70b01b ae20aec8 acd8ad7b     v.....p... .{...
 800c3d8:	ab98ac37 aa5faafa a92ea9c6 a806a899     7....._.........
 800c3e8:	a6e6a775 a5cfa659 a4c0a546 a3b9a43b     u...Y...F...;...
 800c3f8:	a2bca339 a1c7a240 a0dba150 9ff9a069     9...@...P...i...
 800c408:	9f209f8b 9e509eb7 9d899deb 9ccc9d29     .. ...P.....)...
 800c418:	9c199c71 9b6f9bc2 9acf9b1d 9a389a82     q.....o.......8.
 800c428:	99ac99f1 99299969 98b098ec 98429878     ....i.).....x.B.
 800c438:	97dd980e 978397af 9733975a 96ed970e     ........Z.3.....
 800c448:	96b196ce 967f9697 9658966a 963b9648     ........j.X.H.;.
 800c458:	96289630 96209623 96229620 962e9627     0.(.#. . .".'...
 800c468:	96459638 96669654 9691967a 96c796ab     8.E.T.f.z.......
 800c478:	970696e5 9750972a 97a59779 980397d3     ....*.P.y.......
 800c488:	986c9836 98de98a4 995b991c 99e2999d     6.l.......[.....
 800c498:	9a739a29 9b0d9abf 9bb29b5e 9c609c07     ).s.....^.....`.
 800c4a8:	9d189cba 9dd99d77 9ea49e3d 9f789f0d     ....w...=.....x.
 800c4b8:	a0569fe6 a13da0c9 a22da1b4 a327a2a9     ..V...=...-...'.
 800c4c8:	a429a3a7 a534a4ae a648a5bd a765a6d5     ..)...4...H...e.
 800c4d8:	a88aa7f6 a9b7a920 aaedaa51 ac2bab8b     .... ...Q.....+.
 800c4e8:	ad71accd aebfae17 b014af69 b172b0c2     ..q.....i.....r.
 800c4f8:	b2d6b223 b442b38c b5b6b4fb b730b672     #.....B.....r.0.
 800c508:	b8b1b7f0 ba39b974 bbc7baff bd5cbc91     ....t.9.......\.
 800c518:	bef7be29 c098bfc7 c23fc16b c3ebc314     ).......k.?.....
 800c528:	c59ec4c4 c755c679 c912c833 cad4c9f2     ....y.U.3.......
 800c538:	cc9acbb6 ce65cd7f d035cf4d d209d11e     ......e.M.5.....
 800c548:	d3e1d2f4 d5bdd4ce d79cd6ac d97fd88d     ................
 800c558:	db66da72 dd4fdc5a df3bde45 e12be033     r.f.Z.O.E.;.3.+.
 800c568:	e31ce223 e510e416 e706e60b e8fee802     #...............
 800c578:	eaf8e9fb ecf3ebf5 eef0edf1 f0edefee     ................
 800c588:	f2ecf1ec f4ebf3eb f6ebf5eb f8ebf7eb     ................
 800c598:	faebf9eb fcebfbeb feebfdeb 00eaffeb     ................
 800c5a8:	02e901ea 04e703e8 06e405e5 08df07e1     ................
 800c5b8:	0ad909dc 0cd10bd5 0ec70dcc 10bc0fc2     ................
 800c5c8:	12ae11b5 149d13a6 168a1594 18741780     ..............t.
 800c5d8:	1a5c1968 1c3f1b4e 1e201d30 1ffd1f0f     h.\.N.?.0. .....
 800c5e8:	21d620ea 23ac22c1 257d2495 274a2664     . .!.".#.$}%d&J'
 800c5f8:	2913282f 2ad729f5 2c962bb7 2e502d73     /(.).).*.+.,s-P.
 800c608:	30052f2b 31b530de 3360328b 35053433     +/.0.0.1.2`334.5
 800c618:	36a435d5 383d3771 39d13908 3b5e3a98     .5.6q7=8.9.9.:^;
 800c628:	3ce53c22 3e663da6 3fe03f24 4153409a     "<.<.=f>$?.?.@SA
 800c638:	42c0420a 44254373 458444d5 46db4630     .B.BsC%D.D.E0F.F
 800c648:	482b4784 497448d0 4ab54a15 4bef4b53     .G+H.HtI.J.JSK.K
 800c658:	4d204c89 4e4b4db6 4f6d4edd 50874ffb     .L M.MKN.NmO.O.P
 800c668:	51995111 52a3521f 53a45325 549e5422     .Q.Q.R.R%S.S"T.T
 800c678:	558f5517 56775604 575756e8 582f57c4     .U.U.VwV.VWW.W/X
 800c688:	58fd5897 59c35961 5a815a23 5b355adc     .X.XaY.Y#Z.Z.Z5[
 800c698:	5be15b8c 5c845c33 5d1e5cd2 5daf5d67     .[.[3\.\.\.]g].]
 800c6a8:	5e375df4 5eb65e77 5f2c5ef2 5f995f63     .]7^w^.^.^,_c_._
 800c6b8:	5ffd5fcc 6057602b 60a96081 60f260cf     ._._+`W`.`.`.`.`
 800c6c8:	61326113 6169614e 61966181 61bb61aa     .a2aNaia.a.a.a.a
 800c6d8:	61d761ca 61ea61e1 61f361f0 61f461f5     .a.a.a.a.a.a.a.a
 800c6e8:	61ec61f2 61dc61e5 61c261d0 61a061b2     .a.a.a.a.a.a.a.a
 800c6f8:	6175618b 6141615c 61046124 60bf60e3     .aua\aAa$a.a.`.`
 800c708:	6072609a 601c6048 5fbe5fee 5f575f8c     .`r`H`.`._._._W_
 800c718:	5ee95f21 5e725eae 5df35e33 5d6c5db0     !_.^.^r^3^.].]l]
 800c728:	5cdd5d25 5c465c93 5ba85bf8 5b025b56     %].\.\F\.[.[V[.[
 800c738:	5a545aac 599f59fb 58e35942 581f5882     .ZTZ.Y.YBY.X.X.X
 800c748:	575557bb 568356ed 55aa5618 54cb553c     .WUW.V.V.V.U<U.T
 800c758:	53e55459 52f85370 52055280 510c518a     YT.SpS.R.R.R.Q.Q
 800c768:	500d508d 4f074f8a 4dfb4e82 4cea4d73     .P.P.O.O.N.MsM.L
 800c778:	4bd34c5f 4ab74b45 49954a26 486d4902     _L.KEK.J&J.I.ImH
 800c788:	474147d8 461046a9 44da4575 439f443d     .GAG.F.FuE.D=D.C
 800c798:	425f4300 411b41be 3fd34078 3e873f2e     .C_B.A.Ax@.?.?.>
 800c7a8:	3d373ddf 3be33c8d 3a8b3b37 393039de     .=7=.<.;7;.:.909
 800c7b8:	37d13881 366f3721 350a35bd 33a23457     .8.7!7o6.5.5W4.3
 800c7c8:	323832ed 30ca3181 2f5b3013 2de92ea2     .282.1.0.0[/...-
 800c7d8:	2c742d2f 2afe2bba 29862a42 280c28c9     /-t,.+.*B*.).(.(
 800c7e8:	2691274f 251425d3 23962455 221722d7     O'.&.%.%U$.#."."
 800c7f8:	20972157 1f161fd7 1d951e55 1c131cd4     W!. ....U.......
 800c808:	1a901b51 190e19cf 178b184c 160816ca     Q.......L.......
 800c818:	14861547 130413c5 11831243 100210c2     G.......C.......
 800c828:	0e820f42 0d030dc2 0b850c44 0a080ac6     B.......D.......
 800c838:	088c094a 071207cf 059a0656 042304de     J.......V.....#.
 800c848:	02ae0369 013c01f5 ffcb0083 fe5cff13     i.....<.......\.
 800c858:	fcf0fda6 fb87fc3b fa20fad3 f8bbf96d     ....;..... .m...
 800c868:	f75af80a f5fbf6aa f49ff54d f347f3f3     ..Z.....M.....G.
 800c878:	f1f2f29c f0a0f148 ef51eff8 ee06eeab     ....H.....Q.....
 800c888:	ecbfed62 eb7cec1d ea3ceadb e900e99d     b.....|...<.....
 800c898:	e7c8e864 e694e72e e565e5fc e439e4cf     d.........e...9.
 800c8a8:	e312e3a5 e1f0e281 e0d2e160 dfb8e044     ........`...D...
 800c8b8:	dea3df2d dd92de1a dc86dd0c db80dc02     -...............
 800c8c8:	da7ddafe d980d9fe d888d903 d794d80d     ..}.............
 800c8d8:	d6a6d71c d5bdd631 d4d8d54a d3f9d468     ....1...J...h...
 800c8e8:	d31fd38c d24bd2b4 d17bd1e2 d0b1d116     ......K...{.....
 800c8f8:	cfecd04e cf2dcf8c ce72cecf cdbdce17     N.....-...r.....
 800c908:	cd0ecd65 cc63ccb8 cbbfcc10 cb1fcb6e     e.....c.....n...
 800c918:	ca85cad1 c9f0ca3a c961c9a8 c8d7c91b     ....:.....a.....
 800c928:	c853c894 c7d3c812 c75ac796 c6e5c71f     ..S.......Z.....
 800c938:	c676c6ad c60cc640 c5a8c5d9 c548c577     ..v.@.......w.H.
 800c948:	c4eec51b c49ac4c3 c44ac471 c400c424     ........q.J.$...
 800c958:	c3bac3dc c37ac39a c33fc35c c309c323     ......z.\.?.#...
 800c968:	c2d8c2f0 c2acc2c1 c285c298 c262c273     ............s.b.
 800c978:	c245c253 c22cc238 c218c222 c209c210     S.E.8.,.".......
 800c988:	c1fec203 c1f8c1fa c1f6c1f7 c1f9c1f7     ................
 800c998:	c200c1fc c20cc206 c21cc213 c230c225     ............%.0.
 800c9a8:	c248c23b c264c256 c285c274 c2a9c296     ;.H.V.d.t.......
 800c9b8:	c2d1c2bd c2fdc2e7 c32dc315 c361c346     ..........-.F.a.
 800c9c8:	c398c37c c3d2c3b5 c410c3f1 c452c431     |...........1.R.
 800c9d8:	c497c474 c4dfc4bb c52ac504 c579c551     t.........*.Q.y.
 800c9e8:	c5cac5a1 c61fc5f4 c676c64a c6d0c6a3     ........J.v.....
 800c9f8:	c72dc6ff c78dc75d c7efc7be c854c821     ..-.].......!.T.
 800ca08:	c8bbc887 c925c8f0 c991c95b c9ffc9c8     ......%.[.......
 800ca18:	ca6fca37 cae2caa8 cb56cb1b cbcccb91     7.o.......V.....
 800ca28:	cc44cc08 ccbecc81 cd3accfc cdb7cd78     ..D.......:.x...
 800ca38:	ce36cdf7 ceb7ce76 cf38cef7 cfbccf7a     ..6.v.....8.z...
 800ca48:	d040cffe d0c6d083 d14dd109 d1d5d191     ..@.......M.....
 800ca58:	d25ed219 d2e8d2a3 d373d32d d3ffd3b9     ..^.....-.s.....
 800ca68:	d48bd445 d519d4d2 d5a7d560 d635d5ee     E.......`.....5.
 800ca78:	d6c5d67d d754d70c d7e4d79c d875d82d     }.....T.....-.u.
 800ca88:	d906d8bd d997d94e da28d9e0 dabada71     ....N.....(.q...
 800ca98:	db4cdb03 dbdddb95 dc6fdc26 dd01dcb8     ..L.....&.o.....
 800caa8:	dd93dd4a de25dddc deb7de6e df48df00     J.....%.n.....H.
 800cab8:	dfdadf91 e06be022 e0fce0b3 e18ce144     ....".k.....D...
 800cac8:	e21de1d5 e2ade265 e33ce2f5 e3cce384     ....e.....<.....
 800cad8:	e45ae413 e4e9e4a2 e577e530 e604e5bd     ..Z.....0.w.....
 800cae8:	e691e64a e71de6d7 e7a9e763 e834e7ef     J.......c.....4.
 800caf8:	e8bfe87a e949e904 e9d3e98e ea5cea17     z.....I.......\.
 800cb08:	eae4eaa0 eb6beb28 ebf3ebaf ec79ec36     ....(.k.....6.y.
 800cb18:	ecffecbc ed84ed41 ee08edc6 ee8cee4a     ....A.......J...
 800cb28:	ef0feece ef92ef51 f014efd3 f095f055     ....Q.......U...
 800cb38:	f116f0d6 f196f156 f216f1d6 f295f255     ....V.......U...
 800cb48:	f313f2d4 f391f352 f40ef3cf f48af44c     ....R.......L...
 800cb58:	f507f4c9 f582f544 f5fdf5c0 f678f63b     ....D.......;.x.
 800cb68:	f6f2f6b5 f76cf72f f7e5f7a8 f85ef821     ..../.l.....!.^.
 800cb78:	f8d6f89a f94ef912 f9c6f98a fa3dfa02     ......N.......=.
 800cb88:	fab4fa79 fb2bfaf0 fba2fb66 fc18fbdd     y.....+.f.......
 800cb98:	fc8efc53 fd04fcc9 fd7afd3f fdeffdb5     S.......?.z.....
 800cba8:	fe65fe2a fedafea0 ff50ff15 ffc5ff8a     *.e.......P.....
 800cbb8:	003affff 00af0075 012500ea 019a015f     ..:.u.....%._...
 800cbc8:	021001d5 0285024a 02fb02c0 03710336     ....J.......6.q.
 800cbd8:	03e703ac 045d0422 04d40499 054b050f     ....".].......K.
 800cbe8:	05c20586 063905fd 06b10675 072906ed     ......9.u.....).
 800cbf8:	07a10765 081a07de 08930857 090d08d0     e.......W.......
 800cc08:	0987094a 0a0209c4 0a7d0a3f 0af80abb     J.......?.}.....
 800cc18:	0b750b36 0bf10bb3 0c6e0c30 0cec0cad     6.u.....0.n.....
 800cc28:	0d6a0d2b 0de90daa 0e690e29 0ee90ea9     +.j.....).i.....
 800cc38:	0f6a0f29 0feb0faa 106d102c 10f010ae     ).j.....,.m.....
 800cc48:	11731131 11f711b5 127b1239 130012be     1.s.....9.{.....
 800cc58:	13861343 140c13c9 14941450 151b14d7     C.......P.......
 800cc68:	15a3155f 162c15e8 16b61671 174016fb     _.....,.q.....@.
 800cc78:	17cb1785 18561810 18e2189c 196e1928     ......V.....(.n.
 800cc88:	19fb19b5 1a881a42 1b161acf 1ba51b5d     ....B.......]...
 800cc98:	1c331bec 1cc31c7b 1d521d0a 1de21d9a     ..3.{.....R.....
 800cca8:	1e731e2a 1f031ebb 1f941f4c 20251fdd     *.s.....L.....% 
 800ccb8:	20b7206e 214820ff 21da2191 226c2223     n . . H!.!.!#"l"
 800ccc8:	22fe22b5 23902347 242223d9 24b3246a     ."."G#.#.#"$j$.$
 800ccd8:	254524fc 25d7258e 2668261f 26f926b1     .$E%.%.%.&h&.&.&
 800cce8:	278a2742 281b27d2 28ab2863 293a28f3     B'.'.'.(c(.(.(:)
 800ccf8:	29ca2982 2a582a11 2ae62a9f 2b742b2d     .).).*X*.*.*-+t+
 800cd08:	2c002bba 2c8c2c46 2d172cd2 2da12d5c     .+.,F,.,.,.-\-.-
 800cd18:	2e2a2de6 2eb22e6e 2f392ef6 2fbf2f7c     .-*.n.....9/|/./
 800cd28:	30433001 30c73085 31483108 31c93189     .0C0.0.0.1H1.1.1
 800cd38:	32483208 32c53287 33413303 33bb337e     .2H2.2.2.3A3~3.3
 800cd48:	343333f7 34a9346e 351d34e4 35903557     .334n4.4.4.5W5.5
 800cd58:	360035c8 366e3637 36da36a4 3744370f     .5.676n6.6.6.7D7
 800cd68:	37ab3778 381037de 38723841 38d238a2     x7.7.7.8A8r8.8.8
 800cd78:	392f3900 3989395c 39e039b5 3a353a0b     .9/9\9.9.9.9.:5:
 800cd88:	3a863a5e 3ad53aae 3b203afb 3b683b44     ^:.:.:.:.: ;D;h;
 800cd98:	3bad3b8b 3bef3bce 3c2d3c0e 3c673c4a     .;.;.;.;.<-<J<g<
 800cda8:	3c9e3c83 3cd23cb9 3d023cea 3d2e3d18     .<.<.<.<.<.=.=.=
 800cdb8:	3d563d42 3d7a3d69 3d9b3d8b 3db73da9     B=V=i=z=.=.=.=.=
 800cdc8:	3dcf3dc4 3de33dda 3df33dec 3dff3df9     .=.=.=.=.=.=.=.=
 800cdd8:	3e063e03 3e093e08 3e073e08 3e013e05     .>.>.>.>.>.>.>.>
 800cde8:	3df63dfc 3de73def 3dd33ddd 3dba3dc7     .=.=.=.=.=.=.=.=
 800cdf8:	3d9d3dac 3d7a3d8c 3d533d67 3d273d3e     .=.=.=z=g=S=>='=
 800ce08:	3cf63d0f 3cc03cdc 3c853ca3 3c453c65     .=.<.<.<.<.<e<E<
 800ce18:	3bff3c23 3bb53bdb 3b653b8e 3b113b3c     #<.;.;.;.;e;<;.;
 800ce28:	3ab73ae4 3a573a88 39f33a26 398939bf     .:.:.:W:&:.9.9.9
 800ce38:	391a3952 38a538e0 382c3869 37ac37ed     R9.9.8.8i8,8.7.7
 800ce48:	3728376b 369e36e4 360f3657 357a35c5     k7(7.6.6W6.6.5z5
 800ce58:	34e0352e 34403491 339c33ef 32f13347     .5.4.4@4.3.3G3.2
 800ce68:	3242329a 318d31e8 30d23130 30133073     .2B2.1.101.0s0.0
 800ce78:	2f4e2fb1 2e842ee9 2db42e1d 2ce02d4b     ./N/.......-K-.,
 800ce88:	2c062c73 2b272b97 2a422ab5 295929ce     s,.,.+'+.*B*.)Y)
 800ce98:	286b28e3 277727f2 267f26fc 25822601     .(k(.'w'.&.&.&.%
 800cea8:	247f2501 237923fd 226d22f3 215c21e5     .%.$.#y#."m".!\!
 800ceb8:	204720d2 1f2d1fbb 1e0f1e9f 1ced1d7e     . G ..-.....~...
 800cec8:	1bc61c5a 1a9a1b30 196b1a03 183718d1     Z...0.....k...7.
 800ced8:	16ff179b 15c31662 14831524 134013e2     ....b...$.....@.
 800cee8:	11f9129d 10ae1154 0f5f1007 0e0d0eb7     ....T....._.....
 800cef8:	0cb80d63 0b600c0c 0a040ab2 08a50955     c.....`.....U...
 800cf08:	074407f5 05df0692 0478052c 030f03c4     ..D.....,.x.....
 800cf18:	01a30259 003400ec fec3ff7c fd51fe0a     Y.....4.|.....Q.
 800cf28:	fbdcfc96 fa65fb21 f8edf9a9 f773f830     ....!.e.....0.s.
 800cf38:	f5f7f6b5 f47af539 f2fcf3bb f17df23d     ....9.z.....=.}.
 800cf48:	effdf0bd ee7cef3d ecfbedbc eb79ec3a     ....=.|.....:.y.
 800cf58:	e9f7eab8 e874e935 e6f1e7b3 e56fe630     ....5.t.....0.o.
 800cf68:	e3ece4ae e26ae32b e0e9e1aa df68e028     ....+.j.....(.h.
 800cf78:	dde8dea8 dc69dd28 daebdbaa d96eda2c     ....(.i.....,.n.
 800cf88:	d7f3d8b0 d679d736 d501d5bd d38bd445     ....6.y.....E...
 800cf98:	d216d2d0 d0a4d15d cf35cfec cdc7ce7e     ....].....5.~...
 800cfa8:	cc5dcd12 caf5cba8 c990ca42 c82ec8de     ..].....B.......
 800cfb8:	c6cfc77e c574c621 c41cc4c8 c2c8c372     ~...!.t.....r...
 800cfc8:	c178c220 c02cc0d1 bee4bf87 bda0be41      .x...,.....A...
 800cfd8:	bc60bcff bb25bbc2 b9efba8a b8beb956     ..`...%.....V...
 800cfe8:	b792b827 b66ab6fd b548b5d9 b42cb4ba     '.....j...H...,.
 800cff8:	b315b3a0 b204b28c b0f8b17d aff2b075     ........}...u...
 800d008:	aef3af72 adfaae75 ad07ad7f ac1aac8f     r...u...........
 800d018:	ab34aba6 aa55aac3 a97ca9e7 a8aaa912     ..4...U...|.....
 800d028:	a7e0a844 a71ca77d a660a6bd a5aba604     D...}.....`.....
 800d038:	a4fda553 a457a4a9 a3b9a407 a322a36c     S.....W.....l.".
 800d048:	a293a2da a20ca24f a18da1cc a116a151     ....O.......Q...
 800d058:	a0a8a0de a041a073 9fe3a011 9f8d9fb7     ....s.A.........
 800d068:	9f409f65 9efb9f1c 9ebe9edb 9e8a9ea3     e.@.............
 800d078:	9e5f9e74 9e3d9e4d 9e239e2f 9e139e1a     t._.M.=./.#.....
 800d088:	9e0b9e0d 9e0c9e0a 9e159e0f 9e289e1e     ..............(.
 800d098:	9e449e35 9e699e55 9e969e7e 9ecd9eb1     5.D.U.i.~.......
 800d0a8:	9f0d9eec 9f569f30 9fa89f7e a0029fd4     ....0.V.~.......
 800d0b8:	a066a033 a0d3a09c a149a10d a1c8a188     3.f.......I.....
 800d0c8:	a250a20b a2e1a298 a37ba32d a41ea3cc     ..P.....-.{.....
 800d0d8:	a4caa473 a57ea523 a63ca5dc a702a69e     s...#.~...<.....
 800d0e8:	a7d0a768 a8a8a83b a988a917 aa70a9fb     h...;.........p.
 800d0f8:	ab61aae8 ac5babdd ad5cacda ae66ade0     ..a...[...\...f.
 800d108:	af78aeee b092b004 b1b4b122 b2dfb249     ..x....."...I...
 800d118:	b410b376 b54ab4ac b68bb5ea b7d4b72f     v.....J...../...
 800d128:	b924b87b ba7bb9cf bbdabb2a bd3fbc8c     {.$...{.*.....?.
 800d138:	beacbdf5 c01fbf65 c199c0db c31ac259     ....e.......Y...
 800d148:	c4a1c3dd c62ec567 c7c2c6f7 c95bc88e     ....g.........[.
 800d158:	cafaca2a cc9fcbcc ce4acd74 cffacf21     *.......t.J.!...
 800d168:	d1afd0d4 d369d28c d528d448 d6ecd60a     ......i.H.(.....
 800d178:	d8b5d7d0 da82d99b dc53db6a de29dd3e     ........j.S.>.).
 800d188:	e002df15 e1dfe0f0 e3c0e2cf e5a3e4b1     ................
 800d198:	e78be697 e975e87f eb62ea6b ed51ec59     ......u.k.b.Y.Q.
 800d1a8:	ef43ee4a f138f03d f32ef233 f526f42a     J.C.=.8.3...*.&.
 800d1b8:	f720f623 f91bf81e fb18fa1a fd16fc17     #. .............
 800d1c8:	ff15fe15 01140014 03140214 05140414     ................
 800d1d8:	07140614 09140814 0b140a14 0d130c14     ................
 800d1e8:	0f120e13 110f1011 130c120e 1507140a     ................
 800d1f8:	17011604 18f917fd 1aef19f4 1ce31be9     ................
 800d208:	1ed41ddc 20c41fcc 22b021ba 249923a5     ....... .!.".#.$
 800d218:	2680258d 28632772 2a422953 2c1e2b31     .%.&r'c(S)B*1+.,
 800d228:	2df62d0b 2fca2ee1 319a30b2 33653280     .-.-.../.0.1.2e3
 800d238:	352b3449 36ed360d 38aa37cc 3a613986     I4+5.6.6.7.8.9a:
 800d248:	3c143b3b 3dc03ceb 3f673e94 41084038     ;;.<.<.=.>g?8@.A
 800d258:	42a341d6 4438436e 45c64500 474e468b     .A.BnC8D.E.E.FNG
 800d268:	48cf480f 4a49498d 4bbd4b04 4d294c73     .H.H.IIJ.K.KsL)M
 800d278:	4e8d4ddc 4feb4f3d 51405096 528e51e8     .M.N=O.O.P@Q.Q.R
 800d288:	53d45332 55125474 564855ae 577556df     2S.StT.U.UHV.VuW
 800d298:	589a5809 59b7592a 5acb5a42 5bd65b51     .X.X*Y.YBZ.ZQ[.[
 800d2a8:	5cd85c58 5dd25d56 5ec25e4b 5fa95f36     X\.\V].]K^.^6_._
 800d2b8:	60876019 615b60f2 622661c2 62e76288     .`.`.`[a.a&b.b.b
 800d2c8:	639f6345 644d63f8 64f264a1 658c6540     Ec.c.cMd.d.d@e.e
 800d2d8:	661d65d6 66a46662 672166e3 6793675b     .e.fbf.f.f!g[g.g
 800d2e8:	67fc67c9 685a682c 68af6886 68f968d5     .g.g,hZh.h.h.h.h
 800d2f8:	6938691a 696e6954 69996985 69ba69ab     .i8iTini.i.i.i.i
 800d308:	69d169c7 69dd69d8 69df69df 69d769dc     .i.i.i.i.i.i.i.i
 800d318:	69c469cf 69a769b7 69806995 694e6968     .i.i.i.i.i.ihiNi
 800d328:	69126931 68cc68f1 687c68a5 68226850     1i.i.h.h.h|hPh"h
 800d338:	67bd67f1 674f6787 66d66713 66536696     .g.g.gOg.g.f.fSf
 800d348:	65c7660e 6530657d 649064e2 63e6643d     .f.e}e0e.d.d=d.c
 800d358:	6333638e 627662d6 61af6214 60df6148     .c3c.bvb.b.aHa.`
 800d368:	60066074 5f245f96 5e385eaf 5d435dbf     t`.`._$_.^8^.]C]
 800d378:	5c465cc6 5b3f5bc4 5a305ab9 591959a6     .\F\.[?[.Z0Z.Y.Y
 800d388:	57f9588a 56d15766 55a05639 54675505     .X.WfW.V9V.U.UgT
 800d398:	532753c8 51df5284 508f5137 4f374fe4     .S'S.R.Q7Q.P.O7O
 800d3a8:	4dd84e89 4c724d26 4b054bbc 49914a4c     .N.M&MrL.K.KLJ.I
 800d3b8:	481648d5 46954756 450d45d2 437f4447     .H.HVG.F.E.EGD.C
 800d3c8:	41eb42b6 4051411f 3eb23f82 3d0c3de0     .B.A.AQ@.?.>.=.=
 800d3d8:	3b623c38 39b23a8a 37fd38d8 36443721     8<b;.:.9.8.7!7D6
 800d3e8:	34853565 32c333a4 30fc31e0 2f313017     e5.4.3.2.1.0.01/
 800d3f8:	2d622e4a 2b8f2c79 29b92aa5 27e028cd     J.b-y,.+.*.).(.'
 800d408:	260426f2 24252515 22432334 205f2151     .&.&.%%$4#C"Q!_ 
 800d418:	1e781f6c 1c8f1d84 1aa51b9a 18b919af     l.x.............
 800d428:	16cb17c2 14dd15d4 12ed13e5 10fc11f5     ................
 800d438:	0f0b1004 0d1a0e12 0b280c21 09360a2f     ........!.(./.6.
 800d448:	0745083d 0554064c 0363045b 0174026c     =.E.L.T.[.c.l.t.
 800d458:	ff85007d fd98fe8f fbadfca2 f9c2fab7     }...............
 800d468:	f7daf8ce f5f4f6e7 f410f502 f22ff31f     ............../.
 800d478:	f050f13f ee75ef62 ec9ced88 eac6ebb1     ?.P.b.u.........
 800d488:	e8f4e9dd e726e80d e55be640 e395e477     ......&.@.[.w...
 800d498:	e1d2e2b3 e014e0f3 de5bdf37 dca6dd80     ........7.[.....
 800d4a8:	daf6dbce d94cda20 d7a6d878 d606d6d5     .... .L.x.......
 800d4b8:	d46bd538 d2d7d3a0 d148d20e cfbfd083     8.k.......H.....
 800d4c8:	ce3ccefd ccc0cd7d cb4acc04 c9dbca92     ..<.}.....J.....
 800d4d8:	c873c926 c712c7c1 c5b7c664 c464c50d     &.s.....d.....d.
 800d4e8:	c318c3bd c1d4c275 c097c135 bf62bffc     ....u...5.....b.
 800d4f8:	be35becb bd0fbda1 bbf2bc80 baddbb66     ..5.........f...
 800d508:	b9d0ba55 b8cbb94c b7ceb84c b6dbb753     U...L...L...S...
 800d518:	b5efb664 b50cb57d b432b49e b361b3c9     d...}.....2...a.
 800d528:	b299b2fc b1d9b238 b123b17d b075b0cb     ....8...}.#...u.
 800d538:	afd1b022 af36af82 aea4aeec ae1bae5e     ".....6.....^...
 800d548:	ad9badda ad25ad5f acb8aced ac54ac84     ...._.%.......T.
 800d558:	abf9ac25 aba8abcf ab60ab83 ab22ab40     %.........`.@.".
 800d568:	aaedab06 aac1aad5 aa9eaaae aa85aa90     ................
 800d578:	aa75aa7c aa6faa71 aa71aa6f aa7daa76     |.u.q.o.o.q.v.}.
 800d588:	aa92aa86 aab0aaa0 aad7aac3 ab08aaee     ................
 800d598:	ab41ab23 ab83ab61 abceaba8 ac22abf7     #.A.a.........".
 800d5a8:	ac7fac50 ace5acb1 ad53ad1a adc9ad8d     P.........S.....
 800d5b8:	ae48ae08 aecfae8b af5faf16 aff7afaa     ..H......._.....
 800d5c8:	b097b046 b13fb0ea b1eeb196 b2a6b249     F.....?.....I...
 800d5d8:	b365b305 b42cb3c8 b4fab492 b5d0b564     ..e...,.....d...
 800d5e8:	b6acb63d b790b71d b87bb805 b96cb8f3     =.........{...l.
 800d5f8:	ba65b9e8 bb63bae3 bc69bbe5 bd74bced     ..e...c...i...t.
 800d608:	be85bdfc bf9dbf10 c0bac02b c1ddc14b     ........+...K...
 800d618:	c305c271 c433c39c c566c4cc c69ec602     q.....3...f.....
 800d628:	c7dbc73c c91dc87b ca63c9bf cbadcb07     <...{.....c.....
 800d638:	ccfccc54 ce4fcda5 cfa5cef9 d0ffd052     T.....O.....R...
 800d648:	d25dd1ae d3bed30d d522d470 d68ad5d6     ..].....p.".....
 800d658:	d7f4d73e d960d8aa dacfda18 dc41db88     >.....`.......A.
 800d668:	ddb4dcfa df29de6e e0a0dfe5 e219e15c     ....n.).....\...
 800d678:	e393e2d6 e50ee450 e68ae5cc e807e748     ....P.......H...
 800d688:	e984e8c5 eb02ea43 ec80ebc1 edfeed3f     ....C.......?...
 800d698:	ef7ceebd f0faf03b f277f1b9 f3f4f335     ..|.;.....w.5...
 800d6a8:	f56ff4b2 f6eaf62d f864f7a7 f9dcf920     ..o.-.....d. ...
 800d6b8:	fb53fa98 fcc8fc0d fe3bfd82 ffacfef4     ..S.......;.....
 800d6c8:	011b0064 028701d1 03f1033c 055804a5     d.......<.....X.
 800d6d8:	06bd060b 081e076e 097c08cd 0ad70a2a     ....n.....|.*...
 800d6e8:	0c2e0b83 0d820cd8 0ed10e2a 101d0f78     ........*...x...
 800d6f8:	116510c2 12a91207 13e81349 15231486     ..e.....I.....#.
 800d708:	165915be 178a16f2 18b61821 19de194a     ..Y.....!...J...
 800d718:	1b001a6f 1c1d1b8f 1d341ca9 1e461dbe     o.........4...F.
 800d728:	1f531ecd 20591fd7 215a20db 225521d9     ..S...Y . Z!.!U"
 800d738:	234a22d1 243923c3 252224ae 26042594     ."J#.#9$.$"%.%.&
 800d748:	26e02673 27b6274c 2885281e 294d28ea     s&.&L'.'.(.(.(M)
 800d758:	2a0f29af 2aca2a6e 2b7f2b25 2c2c2bd6     .).*n*.*%+.+.+,,
 800d768:	2cd22c80 2d722d23 2e0a2dbf 2e9c2e54     .,.,#-r-.-..T...
 800d778:	2f262ee2 2fa92f69 30252fe8 309a3061     ..&/i/././%0a0.0
 800d788:	310830d2 316e313c 31cd319f 322531fa     .0.1<1n1.1.1.1%2
 800d798:	3276324e 32bf329b 330132e1 333b331f     N2v2.2.2.2.3.3;3
 800d7a8:	336f3356 339b3386 33c033ae 33dd33cf     V3o3.3.3.3.3.3.3
 800d7b8:	33f333e9 340233fc 340a3407 340b340c     .3.3.3.4.4.4.4.4
 800d7c8:	34053409 33f733ff 33e333ee 33c733d6     .4.4.3.3.3.3.3.3
 800d7d8:	33a533b7 337b3391 334b3364 33143330     .3.3.3{3d3K303.3
 800d7e8:	32d632f6 329232b5 3247326d 31f6321f     .2.2.2.2m2G2.2.1
 800d7f8:	319e31ca 313f316f 30db310e 307030a6     .1.1o1?1.1.0.0p0
 800d808:	2fff3038 2f882fc4 2f0b2f4a 2e882ecb     80./././J/./....
 800d818:	2e002e45 2d722dba 2cde2d29 2c452c92     E....-r-)-.,.,E,
 800d828:	2ba72bf7 2b032b56 2a5a2aaf 29ad2a04     .+.+V+.+.*Z*.*.)
 800d838:	28fa2954 2843289f 278727e6 26c72727     T).(.(C(.'.'''.&
 800d848:	26022665 2539259e 246c24d3 239b2404     e&.&.%9%.$l$.$.#
 800d858:	22c62331 21ed225a 2111217f 203120a1     1#."Z".!.!.!. 1 
 800d868:	1f4e1fc0 1e681edb 1d7f1df4 1c931d09     ..N...h.........
 800d878:	1ba41c1c 1ab31b2c 19bf1a39 18c91945     ....,...9...E...
 800d888:	17d1184d 16d71754 15db1659 14de155d     M...T...Y...]...
 800d898:	13de145e 12de135e 11dc125d 10d9115b     ^...^...]...[...
 800d8a8:	0fd61058 0ed10f53 0dcc0e4f 0cc60d49     X...S...O...I...
 800d8b8:	0bc00c43 0aba0b3d 09b40a37 08ae0931     C...=...7...1...
 800d8c8:	07a9082b 06a40726 059f0621 049b051d     +...&...!.......
 800d8d8:	03980419 02960317 01950215 00960115     ................
 800d8e8:	ff980017 fe9bff19 fda1fe1e fca8fd24     ............$...
 800d8f8:	fbb1fc2c fabdfb37 f9cafa43 f8daf952     ,...7...C...R...
 800d908:	f7edf863 f703f778 f61bf68e f536f5a8     c...x.........6.
 800d918:	f454f4c5 f376f3e5 f29bf308 f1c3f22e     ..T...v.........
 800d928:	f0eff158 f01ef086 ef51efb7 ee88eeec     X.........Q.....
 800d938:	edc4ee25 ed03ed63 ec46eca4 eb8eebea     %...c.....F.....
 800d948:	eadaeb33 ea2bea82 e980e9d5 e8dae92c     3.....+.....,...
 800d958:	e839e889 e79ce7ea e704e750 e672e6bb     ..9.....P.....r.
 800d968:	e5e4e62b e55ce5a0 e4d9e51a e45be499     +.....\.......[.
 800d978:	e3e3e41e e370e3a9 e302e338 e29ae2cd     ......p.8.......
 800d988:	e238e268 e1dbe208 e183e1ae e132e15a     h.8.........Z.2.
 800d998:	e0e6e10b e0a0e0c2 e060e07f e025e042     ..........`.B.%.
 800d9a8:	dff1e00a dfc2dfd9 df99dfad df76df87     ..............v.
 800d9b8:	df59df67 df42df4d df31df39 df26df2b     g.Y.M.B.9.1.+.&.
 800d9c8:	df20df22 df21df20 df27df23 df34df2d     ". . .!.#.'.-.4.
 800d9d8:	df46df3c df5edf51 df7cdf6c dfa0df8d     <.F.Q.^.l.|.....
 800d9e8:	dfc9dfb4 dff8dfe0 e02de012 e068e04a     ..........-.J.h.
 800d9f8:	e0a8e087 e0eee0cb e13ae113 e18ae161     ..........:.a...
 800da08:	e1e1e1b5 e23ce20e e29de26c e304e2d0     ......<.l.......
 800da18:	e36fe339 e3e0e3a7 e455e41a e4d0e492     9.o.......U.....
 800da28:	e54fe50f e5d3e591 e65ce617 e6eae6a3     ..O.......\.....
 800da38:	e77ce733 e813e7c7 e8aee860 e94de8fd     3.|.....`.....M.
 800da48:	e9f1e99f ea98ea44 eb44eaee ebf4eb9b     ....D.....D.....
 800da58:	eca7ec4d ed5eed02 ee18edbb eed6ee77     M.....^.....w...
 800da68:	ef97ef36 f05ceff9 f124f0bf f1eef189     6.....\...$.....
 800da78:	f2bcf255 f38cf323 f45ff3f5 f534f4c9     U...#....._...4.
 800da88:	f60cf5a0 f6e6f678 f7c2f753 f8a0f831     ....x...S...1...
 800da98:	f980f910 fa61f9f0 fb45fad3 fc29fbb7     ......a...E...).
 800daa8:	fd0ffc9c fdf6fd83 fedffe6a ffc8ff53     ........j...S...
 800dab8:	00b2003d 019c0127 02880212 037302fd     =...'.........s.
 800dac8:	045f03e9 054b04d5 063605c0 072206ac     .._...K...6...".
 800dad8:	080d0798 08f80883 09e2096d 0acc0a57     ........m...W...
 800dae8:	0bb40b40 0c9c0c28 0d830d10 0e680df6     @...(.........h.
 800daf8:	0f4c0eda 102e0fbd 110f109f 11ee117f     ..L.............
 800db08:	12cb125d 13a61338 147e1412 155514ea     ]...8.....~...U.
 800db18:	162915bf 16fa1692 17c91762 1895182f     ..).....b.../...
 800db28:	195e18fa 1a2419c1 1ae71a86 1ba61b47     ..^...$.....G...
 800db38:	1c621c05 1d1b1cbf 1dd01d76 1e821e29     ..b.....v...)...
 800db48:	1f2f1ed9 1fd91f84 207e202c 212020d0     ../....., ~ .  !
 800db58:	21bd216f 2256220a 22eb22a1 237b2333     o!.!."V"."."3#{#
 800db68:	240623c1 248d244a 250f24cf 258c254e     .#.$J$.$.$.%N%.%
 800db78:	260525c9 2678263f 26e626b0 274f271b     .%.&?&x&.&.&.'O'
 800db88:	27b32782 281227e3 286b283f 28bf2896     .'.'.'.(?(k(.(.(
 800db98:	290e28e7 29572933 299b297a 29d929ba     .(.)3)W)z).).).)
 800dba8:	2a1129f6 2a442a2b 2a712a5b 2a982a85     .).*+*D*[*q*.*.*
 800dbb8:	2aba2aaa 2ad52ac8 2aeb2ae1 2afb2af4     .*.*.*.*.*.*.*.*
 800dbc8:	2b052b01 2b0a2b08 2b082b0a 2b012b05     .+.+.+.+.+.+.+.+
 800dbd8:	2af32afb 2ae02aea 2ac72ad4 2aa72ab8     .*.*.*.*.*.*.*.*
 800dbe8:	2a822a96 2a572a6e 2a272a40 29f02a0c     .*.*n*W*@*'*.*.)
 800dbf8:	29b329d2 29712993 2929294d 28db2902     .).).)q)M))).).(
 800dc08:	288728b2 282d285b 27ce27ff 2769279d     .(.([(-(.'.'.'i'
 800dc18:	26ff2735 268f26c8 261a2655 259f25dd     5'.&.&.&U&.&.%.%
 800dc28:	251e255f 249924dc 240e2454 237e23c6     _%.%.$.$T$.$.#~#
 800dc38:	22e82334 224e229c 21ae21ff 210a215d     4#."."N".!.!]!.!
 800dc48:	206120b6 1fb2200a 1f001f5a 1e481ea4     . a . ..Z.....H.
 800dc58:	1d8c1deb 1ccc1d2c 1c071c6a 1b3e1ba3     ....,...j.....>.
 800dc68:	1a701ad8 199f1a08 18ca1935 17f0185d     ..p.....5...]...
 800dc78:	17131782 163216a3 154e15c1 146614db     ......2...N...f.
 800dc88:	137b13f1 128d1304 119b1214 10a71121     ..{.........!...
 800dc98:	0faf102b 0eb50f33 0db80e37 0cb90d39     +...3...7...9...
 800dca8:	0bb70c38 0ab30b35 09ad0a30 08a40929     8...5...0...)...
 800dcb8:	079a081f 068e0714 05800607 047104f9     ..............q.
 800dcc8:	036003e9 024f02d8 013c01c5 002800b2     ..`...O...<...(.
 800dcd8:	ff13ff9d fdfdfe88 fce7fd72 fbd0fc5c     ........r...\...
 800dce8:	fab9fb45 f9a2fa2e f88bf917 f774f7ff     E.............t.
 800dcf8:	f65df6e8 f546f5d2 f430f4bb f31bf3a5     ..]...F...0.....
 800dd08:	f206f290 f0f2f17c efdff069 eeceef56     ....|...i...V...
 800dd18:	edbdee45 ecaeed35 eba1ec27 ea95eb1b     E...5...'.......
 800dd28:	e98bea10 e883e907 e77de800 e679e6fb     ..........}...y.
 800dd38:	e578e5f8 e478e4f8 e37ce3fa e282e2ff     ..x...x...|.....
 800dd48:	e18be206 e097e111 dfa6e01e deb8df2f     ............/...
 800dd58:	ddcdde42 dce6dd59 dc02dc74 db22db92     B...Y...t.....".
 800dd68:	da46dab3 d96dd9d9 d898d902 d7c7d82f     ..F...m...../...
 800dd78:	d6fbd761 d632d696 d56ed5d0 d4afd50e     a.....2...n.....
 800dd88:	d3f3d450 d33dd397 d28bd2e3 d1ddd233     P.....=.....3...
 800dd98:	d135d189 d092d0e3 cff3d042 cf5acfa6     ..5.....B.....Z.
 800dda8:	cec5cf0f ce36ce7d cdaccdf1 cd28cd6a     ....}.6.....j.(.
 800ddb8:	cca9cce8 cc2fcc6b cbbbcbf5 cb4dcb83     ....k./.......M.
 800ddc8:	cae4cb17 ca80cab1 ca23ca51 c9cbc9f6     ........Q.#.....
 800ddd8:	c979c9a1 c92dc952 c8e7c909 c8a6c8c6     ..y.R.-.........
 800dde8:	c86cc888 c837c851 c809c81f c7e0c7f4     ..l.Q.7.........
 800ddf8:	c7bec7ce c7a1c7af c78bc795 c77ac782     ..............z.
 800de08:	c770c774 c76cc76d c76dc76c c775c770     t.p.m.l.l.m.p.u.
 800de18:	c783c77b c797c78c c7b0c7a3 c7d0c7c0     {...............
 800de28:	c7f6c7e2 c822c80b c854c83a c88bc86f     ......".:.T.o...
 800de38:	c8c9c8a9 c90cc8ea c955c930 c9a4c97c     ........0.U.|...
 800de48:	c9f9c9ce ca53ca26 cab4ca83 cb19cae6     ....&.S.........
 800de58:	cb84cb4e cbf5cbbc cc6bcc30 cce7cca8     N.......0.k.....
 800de68:	cd68cd27 cdeecdaa ce79ce33 cf0acec1     '.h.....3.y.....
 800de78:	cf9fcf54 d039cfec d0d9d089 d17dd12a     T.....9.....*.}.
 800de88:	d226d1d1 d2d4d27c d386d32c d43dd3e1     ..&.|...,.....=.
 800de98:	d4f8d49a d5b7d557 d67bd619 d743d6de     ....W.....{...C.
 800dea8:	d80fd7a8 d8ded876 d9b2d948 da89da1d     ....v...H.......
 800deb8:	db65daf7 dc43dbd3 dd25dcb4 de0bdd97     ..e...C...%.....
 800dec8:	def3de7e dfdfdf69 e0cee056 e1bfe146     ~...i...V...F...
 800ded8:	e2b4e239 e3abe32f e4a4e427 e5a1e522     9.../...'..."...
 800dee8:	e69fe61f e7a0e71f e8a2e821 e9a7e924     ........!...$...
 800def8:	eaaeea2a ebb6eb31 ecc0ec3b edcbed45     *...1...;...E...
 800df08:	eed8ee51 efe6ef5f f0f5f06d f205f17d     Q..._...m...}...
 800df18:	f316f28e f428f39f f53bf4b1 f64ef5c4     ......(...;...N.
 800df28:	f761f6d7 f875f7eb f989f8ff fa9dfa13     ..a...u.........
 800df38:	fbb0fb26 fcc4fc3a fdd7fd4e feeafe61     &...:...N...a...
 800df48:	fffcff73 010e0085 021f0196 032f02a7     s............./.
 800df58:	043e03b6 054b04c5 065805d2 076306de     ..>...K...X...c.
 800df68:	086d07e8 097508f1 0a7b09f8 0b7f0afd     ..m...u...{.....
 800df78:	0c820c01 0d830d03 0e810e02 0f7d0f00     ..............}.
 800df88:	10770ffb 116f10f3 126411ea 135612dd     ..w...o...d...V.
 800df98:	144613ce 153314bd 161d15a8 17031690     ..F...3.........
 800dfa8:	17e71776 18c81858 19a51937 1a7f1a13     v...X...7.......
 800dfb8:	1b561aeb 1c291bc0 1cf91c91 1dc51d5f     ..V...)....._...
 800dfc8:	1e8d1e29 1f511ef0 20121fb2 20ce2071     ).....Q.... q . 
 800dfd8:	2187212b 223c21e2 22ec2294 23982343     +!.!.!<"."."C#.#
 800dfe8:	244023ed 24e42493 25842534 261f25d2     .#@$.$.$4%.%.%.&
 800dff8:	26b5266b 274826ff 27d5278f 285e281a     k&.&.&H'.'.'.(^(
 800e008:	28e328a1 29632924 29de29a1 2a552a1a     .(.($)c).).).*U*
 800e018:	2ac72a8e 2b342afe 2b9c2b69 2c002bcf     .*.*.*4+i+.+.+.,
 800e028:	2c5f2c30 2cb92c8d 2d0f2ce4 2d5f2d37     0,_,.,.,.,.-7-_-
 800e038:	2dab2d85 2df22dcf 2e342e13 2e712e53     .-.-.-.-..4.S.q.
 800e048:	2ea92e8d 2edd2ec3 2f0b2ef5 2f352f21     .........../!/5/
 800e058:	2f5a2f48 2f7b2f6b 2f962f89 2fad2fa2     H/Z/k/{/././././
 800e068:	2fbf2fb7 2fcd2fc6 2fd52fd2 2fd92fd8     ././././././././
 800e078:	2fd92fda 2fd42fd7 2fca2fd0 2fbc2fc4     ././././././././
 800e088:	2fa92fb3 2f922f9e 2f772f85 2f572f68     ./././././w/h/W/
 800e098:	2f332f46 2f0b2f1f 2ede2ef5 2ead2ec6     F/3/././........
 800e0a8:	2e792e94 2e402e5d 2e032e22 2dc22de3     ..y.].@."....-.-
 800e0b8:	2d7e2da1 2d352d5a 2ce92d10 2c9a2cc2     .-~-Z-5-.-.,.,.,
 800e0c8:	2c462c70 2bef2c1b 2b952bc2 2b372b66     p,F,.,.+.+.+f+7+
 800e0d8:	2ad62b07 2a722aa4 2a0a2a3e 299f29d5     .+.*.*r*>*.*.).)
 800e0e8:	29322969 28c128fa 284e2888 27d72813     i)2).(.(.(N(.(.'
 800e0f8:	275e279b 26e32721 266526a4 25e42625     .'^'!'.&.&e&%&.%
 800e108:	256125a3 24dc251f 24542498 23cb2410     .%a%.%.$.$T$.$.#
 800e118:	233f2385 22b122f9 2222226a 219121da     .#?#."."j""".!.!
 800e128:	20fe2147 206920b4 1fd3201e 1f3c1f87     G!. . i . ....<.
 800e138:	1ea31eef 1e091e56 1d6d1dbb 1cd11d1f     ....V.....m.....
 800e148:	1c331c82 1b951be4 1af61b46 1a561aa6     ..3.....F.....V.
 800e158:	19b61a06 19141965 187318c4 17d11822     ....e.....s."...
 800e168:	172f1780 168c16dd 15e9163b 15471598     ../.....;.....G.
 800e178:	14a414f5 14011453 135f13b0 12bd130e     ....S....._.....
 800e188:	121b126c 117911ca 10d81129 10381088     l.....y.).....8.
 800e198:	0f980fe8 0ef90f48 0e5b0eaa 0dbd0e0c     ....H.....[.....
 800e1a8:	0d210d6f 0c850cd3 0beb0c38 0b510b9e     o.!.....8.....Q.
 800e1b8:	0ab90b05 0a220a6d 098c09d7 08f80942     ....m.".....B...
 800e1c8:	086508ae 07d3081c 0744078b 06b506fc     ..e.......D.....
 800e1d8:	0628066f 059d05e3 05140559 048d04d0     o.(.....Y.......
 800e1e8:	04070449 038303c5 03010342 028102c1     I.......B.......
 800e1f8:	02030242 018701c5 010d014a 009500d1     B.......J.......
 800e208:	0020005a ffacffe5 ff3aff73 fecbff03     Z. .....s.:.....
 800e218:	fe5efe94 fdf3fe29 fd8bfdbf fd25fd58     ..^.).......X.%.
 800e228:	fcc1fcf3 fc5ffc90 fc00fc2f fba3fbd1     ......_./.......
 800e238:	fb48fb75 faf0fb1c fa9afac5 fa46fa70     u.H.........p.F.
 800e248:	f9f5fa1e f9a6f9cd f95af980 f910f934     ..........Z.4...
 800e258:	f8c8f8eb f882f8a5 f83ff860 f7fef81e     ........`.?.....
 800e268:	f7c0f7df f783f7a1 f749f766 f711f72d     ........f.I.-...
 800e278:	f6dcf6f6 f6a8f6c2 f677f690 f648f65f     ..........w._.H.
 800e288:	f61bf631 f5f0f606 f5c8f5dc f5a1f5b4     1...............
 800e298:	f57cf58e f55af56b f539f549 f51af529     ..|.k.Z.I.9.)...
 800e2a8:	f4fdf50b f4e2f4ef f4c8f4d5 f4b1f4bc     ................
 800e2b8:	f49bf4a5 f486f490 f474f47d f462f46b     ........}.t.k.b.
 800e2c8:	f453f45a f445f44b f438f43e f42cf432     Z.S.K.E.>.8.2.,.
 800e2d8:	f422f427 f41af41e f412f416 f40cf40f     '.".............
 800e2e8:	f406f409 f402f404 f3fff400 f3fcf3fd     ................
 800e2f8:	f3fbf3fc f3faf3fb f3fbf3fa f3fbf3fb     ................
 800e308:	f3fdf3fc f3fff3fe f402f400 f405f403     ................
 800e318:	f409f407 f40df40a f411f40f f415f413     ................
 800e328:	f41af418 f41ff41c f424f421 f429f426     ........!.$.&.).
 800e338:	f42df42b f432f430 f437f435 f43bf439     +.-.0.2.5.7.9.;.
 800e348:	f43ff43d f443f441 f446f445 f449f448     =.?.A.C.E.F.H.I.
 800e358:	f44cf44b f44ef44d f44ff44f f450f450     K.L.M.N.O.O.P.P.
 800e368:	f450f450 f44ff44f f44df44e f44bf44c     P.P.O.O.N.M.L.K.
 800e378:	f448f449 f443f446 f43ef441 f438f43b     I.H.F.C.A.>.;.8.
 800e388:	f430f434 f428f42c f41ef423 f413f419     4.0.,.(.#.......
 800e398:	f407f40d f3f9f400 f3ebf3f2 f3dbf3e3     ................
 800e3a8:	f3c9f3d2 f3b6f3c0 f3a2f3ac f38cf397     ................
 800e3b8:	f375f381 f35cf368 f341f34f f325f334     ..u.h.\.O.A.4.%.
 800e3c8:	f308f317 f2e8f2f8 f2c8f2d8 f2a5f2b7     ................
 800e3d8:	f281f293 f25bf26e f233f247 f20af21f     ....n.[.G.3.....
 800e3e8:	f1dff1f5 f1b3f1c9 f184f19c f154f16c     ............l.T.
 800e3f8:	f122f13b f0eff109 f0b9f0d4 f082f09e     ;.".............
 800e408:	f04af066 f00ff02d efd3eff1 ef96efb5     f.J.-...........
 800e418:	ef56ef76 ef15ef36 eed2eef4 ee8eeeb1     v.V.6...........
 800e428:	ee48ee6c ee01ee25 edb8eddd ed6eed93     l.H.%.........n.
 800e438:	ed22ed48 ecd5ecfb ec86ecad ec36ec5e     H.".........^.6.
 800e448:	ebe5ec0d eb92ebbb eb3eeb68 eae9eb13     ........h.>.....
 800e458:	ea92eabe ea3bea67 e9e2ea0f e989e9b6     ....g.;.........
 800e468:	e92ee95c e8d3e901 e877e8a5 e81ae848     \.........w.H...
 800e478:	e7bce7eb e75de78d e6fee72e e69ee6ce     ......].........
 800e488:	e63ee66e e5dde60e e57ce5ad e51be54b     n.>.......|.K...
 800e498:	e4b9e4ea e457e488 e3f5e426 e393e3c4     ......W.&.......
 800e4a8:	e331e362 e2cfe300 e26ee29f e20ce23d     b.1.......n.=...
 800e4b8:	e1abe1dc e14be17b e0eae11b e08be0bb     ....{.K.........
 800e4c8:	e02ce05b dfcedffd df70df9f df14df42     [.,.......p.B...
 800e4d8:	deb8dee6 de5ede8b de05de31 ddadddd9     ......^.1.......
 800e4e8:	dd56dd81 dd01dd2b dcaddcd7 dc5bdc83     ..V.+.........[.
 800e4f8:	dc0adc32 dbbbdbe2 db6edb94 db23db48     2.........n.H.#.
 800e508:	dadadafe da93dab6 da4eda70 da0bda2c     ........p.N.,...
 800e518:	d9cbd9eb d98dd9ac d952d96f d919d935     ........o.R.5...
 800e528:	d8e3d8fd d8afd8c9 d87fd897 d851d868     ............h.Q.
 800e538:	d826d83b d7ffd812 d7dbd7ec d7b9d7ca     ;.&.............
 800e548:	d79bd7aa d781d78e d76ad775 d756d760     ........u.j.`.V.
 800e558:	d746d74e d73ad740 d732d736 d72dd72f     N.F.@.:.6.2./.-.
 800e568:	d72cd72c d72fd72d d736d732 d742d73b     ,.,.-./.2.6.;.B.
 800e578:	d751d749 d764d75a d77cd770 d798d78a     I.Q.Z.d.p.|.....
 800e588:	d7b8d7a8 d7ddd7ca d806d7f1 d834d81d     ..............4.
 800e598:	d866d84d d89dd881 d8d9d8ba d919d8f8     M.f.............
 800e5a8:	d95ed93b d9a7d982 d9f6d9ce da49da1f     ;.^...........I.
 800e5b8:	daa1da74 dafedacf db5fdb2e dbc6db92     t........._.....
 800e5c8:	dc32dbfb dca2dc69 dd18dcdc dd92dd54     ..2.i.......T...
 800e5d8:	de11ddd1 de96de53 df1fdeda dfaddf66     ....S.......f...
 800e5e8:	e041dff6 e0d9e08c e176e127 e219e1c7     ..A.....'.v.....
 800e5f8:	e2c0e26b e36ce315 e41de3c4 e4d3e477     k.....l.....w...
 800e608:	e58ee530 e64de5ed e712e6af e7dbe776     0.....M.....v...
 800e618:	e8a9e841 e97be912 ea53e9e7 eb2feac0     A.....{...S.../.
 800e628:	ec0feb9f ecf5ec81 eddeed69 eeccee55     ........i...U...
 800e638:	efbfef45 f0b5f039 f1b0f132 f2aff22f     E...9...2.../...
 800e648:	f3b3f331 f4baf436 f5c5f53f f6d5f64d     1...6...?...M...
 800e658:	f7e8f75e f8fef873 fa19f98b fb37faa7     ^...s.........7.
 800e668:	fc58fbc7 fd7dfcea fea5fe11 ffd1ff3b     ..X...}.....;...
 800e678:	00ff0068 02310198 036502ca 049c0400     h.....1...e.....
 800e688:	05d60539 07120674 085107b2 099308f2     9...t.....Q.....
 800e698:	0ad60a34 0c1c0b79 0d630cbf 0ead0e08     4...y.....c.....
 800e6a8:	0ff80f52 1145109e 129311ec 13e3133b     R.....E.....;...
 800e6b8:	1534148b 168615dc 17d8172f 192c1882     ..4...../.....,.
 800e6c8:	1a8119d6 1bd61b2b 1d2b1c80 1e811dd6     ....+.....+.....
 800e6d8:	1fd71f2c 212c2082 228221d7 23d7232d     ,.... ,!.!."-#.#
 800e6e8:	252c2482 268025d6 27d4272a 2926287d     .$,%.%.&*'.'}(&)
 800e6f8:	2a7829cf 2bc82b20 2d172c70 2e642dbe     .)x* +.+p,.-.-d.
 800e708:	2fb02f0a 30fa3055 3242319e 338832e5     ././U0.0.1B2.2.3
 800e718:	34cb342a 360c356c 374b36ac 388637e9     *4.4l5.6.6K7.7.8
 800e728:	39bf3923 3af53a5a 3c283b8f 3d573cc0     #9.9Z:.:.;(<.<W=
 800e738:	3e823ded 3faa3f17 40cf403d 41ef415f     .=.>.?.?=@.@_A.A
 800e748:	430b427d 44234397 453644ad 464545be     }B.C.C#D.D6E.EEF
 800e758:	474f46cb 485547d3 495548d5 4a5049d3     .FOG.GUH.HUI.IPJ
 800e768:	4b464acc 4c374bbf 4d224cad 4e074d95     .JFK.K7L.L"M.M.N
 800e778:	4ee64e77 4fc04f54 5093502a 516050fb     wN.NTO.O*P.P.P`Q
 800e788:	522751c5 52e85288 53a25345 545553fc     .Q'R.R.RES.S.SUT
 800e798:	550154ac 55a65555 564555f6 56dc5691     .T.UUU.U.UEV.V.V
 800e7a8:	576c5725 57f457b1 58755835 58ee58b3     %WlW.W.W5XuX.X.X
 800e7b8:	59605928 59ca5996 5a2c59fc 5a865a5a     (Y`Y.Y.Y.Y,ZZZ.Z
 800e7c8:	5ad85ab0 5b225afe 5b645b44 5b9d5b82     .Z.Z.Z"[D[d[.[.[
 800e7d8:	5bce5bb7 5bf75be4 5c175c08 5c2f5c24     .[.[.[.[.\.\$\/\
 800e7e8:	5c3e5c37 5c445c42 5c425c44 5c365c3d     7\>\B\D\D\B\=\6\
 800e7f8:	5c225c2d 5c055c15 5bdf5bf4 5bb15bc9     -\"\.\.\.[.[.[.[
 800e808:	5b795b96 5b385b5a 5aee5b14 5a9c5ac6     .[y[Z[8[.[.Z.Z.Z
 800e818:	5a405a6f 59db5a0e 596d59a5 58f55932     oZ@Z.Z.Y.YmY2Y.X
 800e828:	587558b6 57ec5832 575957a4 56be570d     .XuX2X.W.WYW.W.V
 800e838:	5619566d 556c55c4 54b55511 53f55456     mV.V.UlU.U.TVT.S
 800e848:	532d5392 525b52c5 518151ef 509e5110     .S-S.R[R.Q.Q.Q.P
 800e858:	4fb25029 4ebd4f38 4dbf4e3f 4cb94d3d     )P.O8O.N?N.M=M.L
 800e868:	4bab4c33 4a934b20 49744a05 484c48e1     3L.K K.J.JtI.HLH
 800e878:	471c47b5 45e34680 44a24544 435a43ff     .G.G.F.EDE.D.CZC
 800e888:	420942b3 40b1415e 3f514002 3de93e9e     .B.B^A.@.@Q?.>.=
 800e898:	3c7a3d33 3b033bc0 39853a45 380038c4     3=z<.;.;E:.9.8.8
 800e8a8:	3674373b 34e135ac 33473415 31a73278     ;7t6.5.4.4G3x2.1
 800e8b8:	300030d4 2e522f2a 2c9f2d79 2ae52bc3     .0.0*/R.y-.,.+.*
 800e8c8:	29252a06 27602843 2595267b 23c424ad     .*%)C(`'{&.%.$.#
 800e8d8:	21ef22da 20142102 1e341f24 1c4f1d42     .".!.!. $.4.B.O.
 800e8e8:	1a651b5b 1878196f 1685177f 148f158b     [.e.o.x.........
 800e8f8:	12951393 10971197 0e960f97 0c910d94     ................
 800e908:	0a890b8d 087e0984 06710778 04600569     ......~.x.q.i.`.
 800e918:	024e0357 00390144 fe22ff2e fc0afd16     W.N.D.9...".....
 800e928:	f9effafd f7d4f8e2 f5b7f6c6 f39af4a9     ................
 800e938:	f17cf28b ef5df06c ed3eee4d eb1fec2e     ..|.l.].M.>.....
 800e948:	e900ea0f e6e1e7f0 e4c3e5d2 e2a6e3b4     ................
 800e958:	e089e197 de6edf7b dc54dd61 da3cdb48     ....{.n.a.T.H.<.
 800e968:	d826d931 d612d71b d400d508 d1f0d2f8     1.&.............
 800e978:	cfe4d0ea cddacede cbd3ccd6 c9d0cad1     ................
 800e988:	c7d0c8cf c5d4c6d2 c3dcc4d8 c1e8c2e2     ................
 800e998:	bff9c0f0 be0ebf03 bc28bd1b ba48bb37     ..........(.7.H.
 800e9a8:	b86cb959 b696b780 b4c5b5ad b2fab3df     Y.l.............
 800e9b8:	b135b217 af77b055 adbfae9a ac0dace5     ..5.U.w.........
 800e9c8:	aa63ab37 a8bfa990 a722a7f0 a58da657     7.c.......".W...
 800e9d8:	a3ffa4c5 a279a33b a0fba1b9 9f84a03f     ....;.y.....?...
 800e9e8:	9e169ecc 9cb19d63 9b549c01 99ff9aa8     ....c.....T.....
 800e9f8:	98b39958 97719811 963796d3 9507959e     X.....q...7.....
 800ea08:	93e09472 92c39350 91af9237 90a59129     r...P...7...)...
 800ea18:	8fa59024 8eaf8f29 8dc38e38 8ce28d51     $...)...8...Q...
 800ea28:	8c0b8c75 8b3e8ba3 8a7c8adc 89c58a1f     u.....>...|.....
 800ea38:	8918896d 887788c6 87e0882a 87558799     m.....w.*.....U.
 800ea48:	86d48713 865f8698 85f58628 859685c4     ......_.(.......
 800ea58:	8542856b 84fa851d 84be84db 848d84a4     k.B.............
 800ea68:	84688479 844e8459 84408445 843d843d     y.h.Y.N.E.@.=.=.
 800ea78:	84468440 845b844f 847c846a 84a88490     @.F.O.[.j.|.....
 800ea88:	84e084c2 85238500 85728549 85cd859f     ......#.I.r.....
 800ea98:	863485ff 86a6866c 872486e4 87ae8767     ..4.l.....$.g...
 800eaa8:	884387f7 88e38891 898f8938 8a4689e9     ..C.....8.....F.
 800eab8:	8b098aa6 8bd78b6e 8cb08c42 8d948d21     ....n...B...!...
 800eac8:	8e848e0b 8f7e8eff 90838fff 9193910a     ......~.........
 800ead8:	92ae921f 93d3933f 9503946a 963e959f     ....?...j.....>.
 800eae8:	978296df 98d19829 9a2a997c 9b8d9ada     ....)...|.*.....
 800eaf8:	9cfa9c42 9e709db4 9ff09f2f a179a0b3     B.....p./.....y.
 800eb08:	a30ca241 a4a8a3d9 a64ca579 a7faa722     A.......y.L."...
 800eb18:	a9b0a8d4 ab6eaa8e ad35ac51 af04ae1c     ......n.Q.5.....
 800eb28:	b0dbafef b2bab1ca b4a1b3ac b68fb597     ................
 800eb38:	b884b788 ba80b981 bc83bb81 be8dbd87     ................
 800eb48:	c09dbf94 c2b3c1a7 c4d0c3c1 c6f2c5e0     ................
 800eb58:	c91ac805 cb48ca30 cd7acc60 cfb2ce95     ....0.H.`.z.....
 800eb68:	d1eed0d0 d42fd30e d675d551 d8bed799     ....../.Q.u.....
 800eb78:	db0cd9e4 dd5ddc34 dfb1de86 e209e0dd     ....4.].........
 800eb88:	e463e336 e6c1e592 e921e7f0 eb83ea52     6.c.......!.R...
 800eb98:	ede7ecb5 f04def1a f2b5f181 f51ef3e9     ......M.........
 800eba8:	f788f652 f9f2f8bd fc5efb28 fecafd94     R.......(.^.....

0800ebb8 <major_table>:
 800ebb8:	013a0000 03ae0274 062204e8 0895075b     ..:.t.....".[...
 800ebc8:	0b0709ce 0d780c40 0fe80eb0 1256111f     ....@.x.......V.
 800ebd8:	14c2138c 172d15f8 19941861 1bfa1ac7     ......-.a.......
 800ebe8:	1e5c1d2b 20bb1f8c 231721ea 25702444     +.\.... .!.#D$p%
 800ebf8:	27c4269b 2a1528ed 2c612b3c 2ea92d86     .&.'.(.*<+a,.-..
 800ec08:	30ec2fcb 332a320c 35633448 3797367e     ./.0.2*3H4c5~6.7
 800ec18:	39c538af 3bed3ada 3e0f3cff 402b3f1d     .8.9.:.;.<.>.?+@
 800ec28:	42404136 444e4348 46564553 48564757     6A@BHCNDSEVFWGVH
 800ec38:	4a504954 4c414b49 4e2b4d37 500d4f1d     TIPJIKAL7M+N.O.P
 800ec48:	51e750fb 53b952d1 5582549f 57435664     .P.Q.R.S.T.UdVCW
 800ec58:	58fb5820 5aaa59d4 5c505b7e 5dec5d1f      X.X.Y.Z~[P\.].]
 800ec68:	5f805eb7 61096046 628961ca 63ff6345     .^._F`.a.a.bEc.c
 800ec78:	656b64b6 66cd661d 6824677a 697168cc     .dke.f.fzg$h.hqi
 800ec88:	6ab46a14 6bec6b51 6d196c84 6e3b6dab     .j.jQk.k.l.m.m;n
 800ec98:	6f526ec8 705f6fda 716070e1 725571dc     .nRo.o_p.p`q.qUr
 800eca8:	734072cc 741f73b1 74f2748a 75ba7558     .r@s.s.t.t.tXu.u
 800ecb8:	7676761a 772776d0 77cc777b 7865781a     .vvv.v'w{w.w.xex
 800ecc8:	78f278ad 79737934 79e979af 7a527a1f     .x.x4ysy.y.y.zRz
 800ecd8:	7aaf7a82 7b017ad9 7b467b25 7b7f7b64     .z.z.z.{%{F{d{.{
 800ece8:	7bac7b97 7bce7bbf 7be37bda 7bec7be9     .{.{.{.{.{.{.{.{
 800ecf8:	7be97bec 7bda7be3 7bbf7bce 7b997bad     .{.{.{.{.{.{.{.{
 800ed08:	7b667b81 7b277b48 7add7b04 7a877ab3     .{f{H{'{.{.z.z.z
 800ed18:	7a257a57 79b779f0 793e797c 78ba78fd     Wz%z.y.y|y>y.x.x
 800ed28:	78297873 778e77dd 76e7773c 7635768f     sx)x.w.w<w.v.v5v
 800ed38:	757875d8 74b07515 73dd7448 72ff736f     .uxu.u.tHt.sos.r
 800ed48:	7216728c 7123719e 702570a5 6f1d6fa3     .r.r.q#q.p%p.o.o
 800ed58:	6e0b6e95 6cef6d7e 6bc86c5d 6a986b31     .n.n~m.l]l.k1k.j
 800ed68:	695e69fc 681b68be 66ce6776 65786624     .i^i.h.hvg.f$fxe
 800ed78:	641964ca 62b16366 614061fa 5fc76085     .d.dfc.b.a@a.`._
 800ed88:	5e455f07 5cbb5d81 5b295bf3 598f5a5d     ._E^.].\.[)[]Z.Y
 800ed98:	57ed58bf 56445719 5493556c 52dc53b8     .X.W.WDVlU.T.S.R
 800eda8:	511d51fd 4f58503b 4d8c4e72 4bb94ca3     .Q.Q;PXOrN.M.L.K
 800edb8:	49e14ace 480248f2 461e4711 4434452a     .J.I.H.H.G.F*E4D
 800edc8:	4245433e 4051414c 3e583f55 3c5b3d5a     >CEBLAQ@U?X>Z=[<
 800edd8:	3a583b5a 38523956 3648374d 34393541     Z;X:V9R8M7H6A594
 800ede8:	32283331 3012311d 2dfa2f07 2bdf2ced     13(2.1.0./.-.,.+
 800edf8:	29c12ad0 27a128b1 257e2690 235a246c     .*.).(.'.&~%l$Z#
 800ee08:	21332247 1f0c2020 1ce21df7 1ab81bcd     G"3!  ..........
 800ee18:	188d19a3 16611777 1435154b 1209131f     ....w.a.K.5.....
 800ee28:	0fdc10f3 0db00ec6 0b850c9a 095a0a6f     ............o.Z.
 800ee38:	07300845 0507061b 02e003f3 00ba01cd     E.0.............
 800ee48:	fe96ffa8 fc74fd85 fa54fb64 f837f945     ......t.d.T.E.7.
 800ee58:	f61df72a f405f510 f1f0f2fa efdff0e7     *...............
 800ee68:	edd1eed8 ebc7eccc e9c1eac3 e7bfe8bf     ................
 800ee78:	e5c1e6bf e3c8e4c4 e1d3e2cd dfe3e0da     ................
 800ee88:	ddf8deed dc13dd05 da33db22 d858d945     ........".3.E.X.
 800ee98:	d683d76d d4b5d59b d2ecd3cf d129d20a     m.............).
 800eea8:	cf6dd04a cdb8ce92 cc09ccdf ca61cb34     J.m.........4.a.
 800eeb8:	c8c0c990 c726c7f2 c594c65c c409c4cd     ......&.\.......
 800eec8:	c285c346 c10ac1c7 bf96c04f be2abedf     F.......O.....*.
 800eed8:	bcc6bd77 bb6abc17 ba17bac0 b8ccb970     w.....j.....p...
 800eee8:	b78ab82a b650b6ec b51eb5b6 b3f6b489     *.....P.........
 800eef8:	b2d6b365 b1c0b24a b0b2b138 afaeb02f     e...J...8.../...
 800ef08:	aeb2af2f adc0ae38 acd7ad4b abf8ac66     /...8...K...f...
 800ef18:	ab22ab8b aa55aaba a992a9f2 a8d8a934     .."...U.....4...
 800ef28:	a828a87f a781a7d3 a6e4a731 a651a699     ..(.....1.....Q.
 800ef38:	a5c7a60b a547a586 a4d0a50a a464a499     ......G.......d.
 800ef48:	a401a431 a3a7a3d3 a357a37e a311a333     1.......~.W.3...
 800ef58:	a2d5a2f2 a2a2a2ba a278a28c a258a267     ..........x.g.X.
 800ef68:	a242a24c a235a23a a232a232 a237a233     L.B.:.5.2.2.3.7.
 800ef78:	a247a23e a25fa252 a281a26f a2aca295     >.G.R._.o.......
 800ef88:	a2e0a2c5 a31da2fd a363a33e a3b1a389     ........>.c.....
 800ef98:	a409a3dc a469a438 a4d2a49c a543a50a     ....8.i.......C.
 800efa8:	a5bda57f a63fa5fd a6caa684 a75ca712     ......?.......\.
 800efb8:	a7f7a7a9 a899a847 a944a8ee a9f6a99c     ....G.....D.....
 800efc8:	aaafaa51 ab70ab0f ac38abd3 ad08ac9f     Q.....p...8.....
 800efd8:	addead72 aebcae4c afa0af2d b08bb015     r...L...-.......
 800efe8:	b17db103 b274b1f8 b372b2f3 b477b3f4     ..}...t...r...w.
 800eff8:	b581b4fb b691b608 b7a6b71b b8c1b833     ............3...
 800f008:	b9e1b951 bb07ba73 bc31bb9b bd61bcc8     Q...s.....1...a.
 800f018:	be95bdfa bfcdbf30 c10ac06b c24bc1aa     ....0...k.....K.
 800f028:	c391c2ee c4dac435 c626c580 c777c6ce     ....5.....&...w.
 800f038:	c8cac820 ca21c975 cb7bcace ccd8cc29      ...u.!...{.)...
 800f048:	ce37cd87 cf99cee8 d0fdd04b d264d1b0     ..7.....K.....d.
 800f058:	d3ccd318 d537d481 d6a3d5ec d810d759     ......7.....Y...
 800f068:	d97fd8c7 daefda36 dc5fdba7 ddd1dd18     ....6....._.....
 800f078:	df43de8a e0b6dffd e229e16f e39ce2e3     ..C.....o.).....
 800f088:	e50fe456 e682e5c9 e7f5e73c e967e8ae     V.......<.....g.
 800f098:	ead8ea20 ec49eb91 edb8ed01 ef27ee70      .....I.....p.'.
 800f0a8:	f094efde f1fff14a f369f2b5 f4d2f41e     ....J.....i.....
 800f0b8:	f638f585 f79cf6ea f8fef84e fa5ef9ae     ..8.....N.....^.
 800f0c8:	fbbbfb0d fd16fc69 fe6efdc2 ffc2ff18     ....i.....n.....
 800f0d8:	0114006c 026301bc 03ae0309 04f60453     l.....c.....S...
 800f0e8:	063b0599 077c06dc 08b9081b 09f20956     ..;...|.....V...
 800f0f8:	0b270a8d 0c580bc0 0d850cef 0eae0e1a     ..'...X.........
 800f108:	0fd20f40 10f11062 120c117f 13221298     @...b.........".
 800f118:	143413ac 154114bb 164815c5 174b16ca     ..4...A...H...K.
 800f128:	184817ca 194018c5 1a3419bb 1b211aab     ..H...@...4...!.
 800f138:	1c091b96 1cec1c7c 1dca1d5c 1ea11e36     ....|...\...6...
 800f148:	1f731f0b 20401fda 210720a4 21c82168     ..s...@ . .!h!.!
 800f158:	22832226 233822de 23e82391 2491243d     &"."."8#.#.#=$.$
 800f168:	253524e4 25d22584 266a261f 26fc26b4     .$5%.%.%.&j&.&.&
 800f178:	27882743 280d27cb 288d284e 290728cb     C'.'.'.(N(.(.(.)
 800f188:	297b2942 29e829b2 2a502a1d 2ab22a82     B){).).).*P*.*.*
 800f198:	2b0d2ae0 2b632b39 2bb32b8c 2bfd2bd8     .*.+9+c+.+.+.+.+
 800f1a8:	2c412c1f 2c7f2c60 2cb72c9b 2ce92cd1     .,A,`,.,.,.,.,.,
 800f1b8:	2d162d00 2d3c2d2a 2d5e2d4e 2d792d6c     .-.-*-<-N-^-l-y-
 800f1c8:	2d8f2d85 2d9f2d98 2daa2da5 2daf2dad     .-.-.-.-.-.-.-.-
 800f1d8:	2daf2db0 2da92dad 2d9e2da5 2d8e2d97     .-.-.-.-.-.-.-.-
 800f1e8:	2d792d84 2d5f2d6d 2d402d50 2d1b2d2e     .-y-m-_-P-@-.-.-
 800f1f8:	2cf22d07 2cc42cdc 2c922cac 2c5a2c77     .-.,.,.,.,.,w,Z,
 800f208:	2c1e2c3d 2bde2bff 2b992bbc 2b502b75     =,.,.+.+.+.+u+P+
 800f218:	2b032b2a 2ab22adb 2a5c2a88 2a032a30     *+.+.*.*.*\*0*.*
 800f228:	29a629d5 29452976 28e12913 287928ad     .).)v)E).).(.(y(
 800f238:	280d2843 279e27d6 272c2766 26b726f2     C(.(.'.'f','.&.&
 800f248:	263f267b 25c42602 25462585 24c52506     {&?&.&.%.%F%.%.$
 800f258:	24422484 23bc23ff 23342378 22aa22ef     .$B$.#.#x#4#."."
 800f268:	221d2264 218e21d6 20fe2146 206b20b5     d".".!.!F!. . k 
 800f278:	1fd72022 1f421f8d 1eaa1ef6 1e121e5e     " ....B.....^...
 800f288:	1d781dc5 1cdd1d2a 1c411c8f 1ba31bf2     ..x.*.....A.....
 800f298:	1b061b55 1a671ab6 19c81a17 19281978     U.....g.....x.(.
 800f2a8:	188818d8 17e71837 17461797 16a616f6     ....7.....F.....
 800f2b8:	16051655 156415b5 14c41514 14241474     U.....d.....t.$.
 800f2c8:	138413d4 12e51334 12461296 11a911f7     ....4.....F.....
 800f2d8:	110c115a 106f10bd 0fd41022 0f3a0f87     Z.....o.".....:.
 800f2e8:	0ea10eee 0e0a0e56 0d740dbf 0cdf0d29     ....V.....t.)...
 800f2f8:	0c4c0c95 0bba0c03 0b2a0b72 0a9c0ae3     ..L.....r.*.....
 800f308:	0a0f0a55 098509ca 08fd0941 087608b9     U.......A.....v.
 800f318:	07f20834 077007b1 06f00730 067206b1     4.....p.0.....r.
 800f328:	05f70635 057f05bb 05080543 049504ce     5.......C.......
 800f338:	0424045c 03b503ec 034a037f 02e10315     \.$.......J.....
 800f348:	027b02ad 02170249 01b701e7 01590188     ..{.I.........Y.
 800f358:	00ff012c 00a700d3 0053007d 0001002a     ,.......}.S.*...
 800f368:	ffb3ffd9 ff67ff8c ff1fff43 fedafefc     ......g.C.......
 800f378:	fe97feb8 fe58fe78 fe1dfe3a fde4fe00     ....x.X.:.......
 800f388:	fdaffdc9 fd7cfd95 fd4dfd64 fd21fd37     ......|.d.M.7.!.
 800f398:	fcf8fd0c fcd3fce5 fcb0fcc1 fc91fca0     ................
 800f3a8:	fc75fc83 fc5cfc68 fc46fc51 fc33fc3c     ..u.h.\.Q.F.<.3.
 800f3b8:	fc23fc2b fc17fc1d fc0dfc11 fc06fc09     +.#.............
 800f3c8:	fc02fc04 fc02fc02 fc04fc02 fc09fc06     ................
 800f3d8:	fc10fc0c fc1bfc15 fc28fc21 fc38fc30     ........!.(.0.8.
 800f3e8:	fc4bfc41 fc60fc55 fc78fc6c fc92fc85     A.K.U.`.l.x.....
 800f3f8:	fcaffca0 fccefcbe fcf0fcdf fd14fd01     ................
 800f408:	fd3afd26 fd62fd4d fd8cfd77 fdb9fda2     &.:.M.b.w.......
 800f418:	fde7fdd0 fe18fdff fe4afe30 fe7efe64     ........0.J.d.~.
 800f428:	feb4fe99 feebfecf ff24ff07 ff5fff41     ..........$.A._.
 800f438:	ff9bff7c ffd8ffb9 0017fff7 00570036     |...........6.W.
 800f448:	00980077 00da00b8 011d00fb 0161013f     w...........?.a.
 800f458:	01a60183 01eb01c8 0232020e 02780255     ..........2.U.x.
 800f468:	02c0029c 030802e4 0350032c 03990374     ........,.P.t...
 800f478:	03e103bd 042a0406 0473044f 04bc0497     ......*.O.s.....
 800f488:	050504e0 054d0529 05950571 05dd05ba     ....).M.q.......
 800f498:	06250601 066c0648 06b2068f 06f806d5     ..%.H.l.........
 800f4a8:	073d071b 0781075f 07c407a3 080707e6     ..=._...........
 800f4b8:	08480827 08880868 08c708a8 090508e6     '.H.h...........
 800f4c8:	09410923 097c095f 09b50999 09ed09d1     #.A._.|.........
 800f4d8:	0a230a08 0a580a3e 0a8b0a72 0abc0aa4     ..#.>.X.r.......
 800f4e8:	0aeb0ad4 0b180b02 0b430b2e 0b6d0b58     ..........C.X.m.
 800f4f8:	0b940b80 0bb90ba7 0bdb0bca 0bfc0bec     ................
 800f508:	0c1a0c0b 0c360c28 0c4f0c43 0c660c5b     ....(.6.C.O.[.f.
 800f518:	0c7a0c71 0c8c0c84 0c9b0c94 0ca80ca2     q.z.............
 800f528:	0cb20cad 0cb90cb6 0cbe0cbc 0cc00cbf     ................
 800f538:	0cbf0cc0 0cbb0cbd 0cb40cb8 0cab0cb0     ................
 800f548:	0c9e0ca5 0c8f0c97 0c7d0c86 0c670c72     ..........}.r.g.
 800f558:	0c4f0c5c 0c340c42 0c160c25 0bf50c06     \.O.B.4.%.......
 800f568:	0bd10be3 0ba90bbd 0b7f0b95 0b520b69     ............i.R.
 800f578:	0b220b3b 0aef0b09 0ab90ad4 0a800a9d     ;.".............
 800f588:	0a440a62 0a050a25 09c309e4 097e09a1     b.D.%.........~.
 800f598:	0937095b 08ec0912 089e08c6 084e0877     [.7.........w.N.
 800f5a8:	07fb0825 07a507d1 074d0779 06f1071f     %.......y.M.....
 800f5b8:	069306c3 06330663 05cf0601 056a059d     ....c.3.......j.
 800f5c8:	05010536 049704cc 04290460 03ba03f2     6.......`.).....
 800f5d8:	03480381 02d4030e 025d0299 01e40221     ..H.......].!...
 800f5e8:	016a01a7 00ed012c 006e00ae ffed002e     ..j.,.....n.....
 800f5f8:	ff6bffac fee6ff29 fe60fea3 fdd8fe1c     ..k.).....`.....
 800f608:	fd4ffd94 fcc4fd09 fc37fc7e fba9fbf0     ..O.....~.7.....
 800f618:	fb1afb62 fa89fad2 f9f8fa41 f965f9ae     b.......A.....e.
 800f628:	f8d1f91b f83cf887 f7a7f7f2 f710f75b     ......<.....[...
 800f638:	f679f6c5 f5e1f62d f549f595 f4b0f4fc     ..y.-.....I.....
 800f648:	f416f463 f37df3ca f2e3f330 f249f296     c.....}.0.....I.
 800f658:	f1aff1fc f115f162 f07bf0c8 efe2f02f     ....b.....{./...
 800f668:	ef48ef95 eeafeefc ee17ee63 ed7fedcb     ..H.....c.......
 800f678:	ece8ed33 ec51ec9c ebbbec06 eb26eb71     3.....Q.....q.&.
 800f688:	ea92eadc ea00ea49 e96ee9b7 e8dde926     ....I.....n.&...
 800f698:	e84ee896 e7c1e807 e734e77a e6aae6ef     ..N.....z.4.....
 800f6a8:	e621e665 e599e5dd e514e556 e490e4d2     e.!.....V.......
 800f6b8:	e40fe44f e38fe3cf e312e350 e297e2d4     O.......P.......
 800f6c8:	e21ee25a e1a8e1e2 e133e16d e0c2e0fa     Z.......m.3.....
 800f6d8:	e053e08a dfe7e01d df7ddfb2 df16df49     ..S.......}.I...
 800f6e8:	deb2dee4 de52de82 ddf4de22 dd99ddc6     ......R.".......
 800f6f8:	dd41dd6c dcecdd16 dc9bdcc3 dc4ddc73     l.A.........s.M.
 800f708:	dc02dc27 dbbbdbde db77db98 db36db56     '.........w.V.6.
 800f718:	dafadb18 dac0dadc da8bdaa5 da59da71     ............q.Y.
 800f728:	da2bda41 da00da15 d9dad9ec d9b7d9c8     A.+.............
 800f738:	d998d9a7 d97dd98a d966d971 d953d95c     ......}.q.f.\.S.
 800f748:	d944d94b d939d93e d932d935 d92fd930     K.D.>.9.5.2.0./.
 800f758:	d930d92f d935d932 d93ed939 d94bd944     /.0.2.5.9.>.D.K.
 800f768:	d95dd954 d972d967 d98cd97f d9aad99b     T.].g.r.........
 800f778:	d9ccd9ba d9f2d9df da1cda07 da4bda33     ............3.K.
 800f788:	da7dda63 dab4da98 daeedad0 db2ddb0d     c.}...........-.
 800f798:	db70db4e dbb6db93 dc01dbdb dc50dc28     N.p.........(.P.
 800f7a8:	dca3dc79 dcf9dcce dd54dd26 ddb3dd83     y.......&.T.....
 800f7b8:	de15dde3 de7bde47 dee5deaf df52df1b     ....G.{.......R.
 800f7c8:	dfc4df8b e038dffe e0b1e074 e12de0ef     ......8.t.....-.
 800f7d8:	e1ade16c e230e1ee e2b6e272 e340e2fa     l.....0.r.....@.
 800f7e8:	e3cde386 e45de414 e4f0e4a6 e587e53b     ......].....;...
 800f7f8:	e620e5d3 e6bde66e e75ce70c e7fee7ad     .. .n.....\.....
 800f808:	e8a3e850 e94be8f6 e9f5e99f eaa2ea4b     P.....K.....K...
 800f818:	eb51eaf9 ec03eba9 ecb7ec5c ed6ded11     ..Q.....\.....m.
 800f828:	ee25edc9 eedfee82 ef9cef3d f05aeffb     ..%.....=.....Z.
 800f838:	f11af0ba f1dcf17b f2a0f23e f365f302     ....{...>.....e.
 800f848:	f42bf3c8 f4f3f48f f5bcf557 f687f621     ..+.....W...!...
 800f858:	f752f6ec f81ff7b8 f8ecf885 f9baf953     ..R.........S...
 800f868:	fa89fa22 fb59faf1 fc29fbc1 fcf9fc91     ".....Y...).....
 800f878:	fdcafd62 fe9cfe33 ff6dff04 003effd6     b...3.....m...>.
 800f888:	011000a7 01e10178 02b2024a 0383031a     ....x...J.......
 800f898:	045303eb 052304bb 05f2058b 06c10659     ..S...#.....Y...
 800f8a8:	078e0728 085b07f5 092708c1 09f2098d     (.....[...'.....
 800f8b8:	0abc0a57 0b840b20 0c4b0be8 0d110cae     W... .....K.....
 800f8c8:	0dd50d73 0e970e36 0f580ef8 10170fb8     s...6.....X.....
 800f8d8:	10d41076 11901132 124911ec 130012a5     v...2.....I.....
 800f8e8:	13b5135b 1467140e 151814c0 15c5156f     [.....g.....o...
 800f8f8:	1671161b 171916c5 17bf176d 18631811     ..q.....m.....c.
 800f908:	190318b3 19a11952 1a3b19ee 1ad31a88     ....R.....;.....
 800f918:	1b681b1e 1bf91bb1 1c871c41 1d121ccd     ..h.....A.......
 800f928:	1d9a1d57 1e1e1ddd 1e9f1e5f 1f1d1edf     W......._.......
 800f938:	1f971f5a 200d1fd2 20802047 20ef20b8     Z...... G . . . 
 800f948:	215a2125 21c2218e 222621f4 22862256     %!Z!.!.!.!&"V"."
 800f958:	22e222b4 233a230e 238e2365 23df23b7     .".".#:#e#.#.#.#
 800f968:	242b2405 24732450 24b82496 24f824d8     .$+$P$s$.$.$.$.$
 800f978:	25342517 256d2551 25a12587 25d125b9     .%4%Q%m%.%.%.%.%
 800f988:	25fd25e7 26242611 26482637 26672658     .%.%.&$&7&H&X&g&
 800f998:	26832676 269a268f 26ad26a4 26bc26b5     v&.&.&.&.&.&.&.&
 800f9a8:	26c726c2 26ce26cb 26d026d0 26cf26d0     .&.&.&.&.&.&.&.&
 800f9b8:	26ca26cd 26c026c5 26b326ba 26a126aa     .&.&.&.&.&.&.&.&
 800f9c8:	268c2697 2672267f 26552664 26342645     .&.&.&r&d&U&E&4&
 800f9d8:	260f2622 25e625fb 25b925d0 258925a1     "&.&.%.%.%.%.%.%
 800f9e8:	2555256f 251d2539 24e12500 24a224c2     o%U%9%.%.%.$.$.$
 800f9f8:	24602482 241a243d 23d123f6 238423ab     .$`$=$.$.#.#.#.#
 800fa08:	2334235c 22e0230a 228a22b6 2230225d     \#4#.#."."."]"0"
 800fa18:	21d32202 217421a4 21112143 20ab20de     .".!.!t!C!.!. . 
 800fa28:	20432077 1fd8200e 1f6a1fa1 1ef91f32     w C . ....j.2...
 800fa38:	1e861ec0 1e111e4c 1d991dd5 1d1f1d5c     ....L.......\...
 800fa48:	1ca21ce1 1c231c63 1ba31be3 1b201b61     ....c.#.....a. .
 800fa58:	1a9b1ade 1a151a58 198c19d1 19021948     ....X.......H...
 800fa68:	187718bd 17ea1830 175b17a2 16cb1713     ..w.0.....[.....
 800fa78:	163a1683 15a715f1 1514155e 147f14ca     ..:.....^.......
 800fa88:	13ea1435 1354139f 12bd1308 12251271     5.....T.....q.%.
 800fa98:	118d11d9 10f41140 105b10a7 0fc1100e     ....@.....[.....
 800faa8:	0f270f74 0e8d0eda 0df30e40 0d590da6     t.'.....@.....Y.
 800fab8:	0cc00d0d 0c260c73 0b8d0bd9 0af30b40     ....s.&.....@...
 800fac8:	0a5b0aa7 09c30a0f 092b0977 089508e0     ..[.....w.+.....
 800fad8:	07ff0849 076907b4 06d5071f 0642068b     I.....i.......B.
 800fae8:	05b005f9 051f0567 048f04d7 04000448     ....g.......H...
 800faf8:	037303ba 02e8032d 025e02a2 01d50219     ..s.-.....^.....
 800fb08:	014e0191 00c9010b 00460087 ffc40005     ..N.......F.....
 800fb18:	ff45ff84 fec7ff06 fe4bfe89 fdd2fe0e     ..E.......K.....
 800fb28:	fd5bfd96 fce5fd20 fc73fcac fc02fc3a     ..[. .....s.:...
 800fb38:	fb94fbcb fb28fb5e fabffaf3 fa58fa8b     ....^.(.......X.
 800fb48:	f9f4fa26 f992f9c3 f933f962 f8d7f904     &.......b.3.....
 800fb58:	f87df8a9 f826f851 f7d2f7fb f780f7a9     ..}.Q.&.........
 800fb68:	f732f759 f6e6f70b f69df6c1 f657f67a     Y.2.........z.W.
 800fb78:	f614f635 f5d4f5f4 f597f5b5 f55cf579     5...........y.\.
 800fb88:	f525f540 f4f1f50b f4c0f4d8 f491f4a8     @.%.............
 800fb98:	f466f47b f43ef451 f418f42b f3f6f407     {.f.Q.>.+.......
 800fba8:	f3d7f3e6 f3baf3c8 f3a1f3ad f38bf395     ................
 800fbb8:	f377f381 f367f36f f359f35f f34ef353     ..w.o.g._.Y.S.N.
 800fbc8:	f347f34a f342f344 f33ff340 f340f33f     J.G.D.B.@.?.?.@.
 800fbd8:	f344f341 f34af346 f353f34e f35ef358     A.D.F.J.N.S.X.^.
 800fbe8:	f36cf365 f37df374 f391f387 f3a6f39b     e.l.t.}.........
 800fbf8:	f3bff3b2 f3daf3cc f3f7f3e8 f416f406     ................
 800fc08:	f438f427 f45cf44a f482f46f f4abf496     '.8.J.\.o.......
 800fc18:	f4d5f4c0 f502f4eb f530f519 f560f548     ..........0.H.`.
 800fc28:	f592f579 f5c6f5ac f5fcf5e1 f633f617     y.............3.
 800fc38:	f66cf64f f6a6f689 f6e2f6c4 f71ff701     O.l.............
 800fc48:	f75ef73e f79df77d f7def7be f820f7ff     >.^.}......... .
 800fc58:	f863f841 f8a7f885 f8ebf8c9 f931f90e     A.c...........1.
 800fc68:	f977f954 f9bef99a fa05f9e1 fa4dfa29     T.w.........).M.
 800fc78:	fa95fa71 faddfab9 fb26fb02 fb6ffb4a     q.........&.J.o.
 800fc88:	fbb8fb93 fc01fbdc fc49fc25 fc92fc6e     ........%.I.n...
 800fc98:	fcdafcb6 fd22fcfe fd6afd46 fdb1fd8e     ......".F.j.....
 800fca8:	fdf8fdd5 fe3efe1b fe83fe60 fec7fea5     ......>.`.......
 800fcb8:	ff0bfee9 ff4dff2c ff8fff6e ffcfffaf     ....,.M.n.......
 800fcc8:	000effef 004c002d 0089006a 00c400a6     ....-.L.j.......
 800fcd8:	00fd00e1 0135011a 016c0151 01a10186     ......5.Q.l.....
 800fce8:	01d401ba 020501ec 0234021d 0261024b     ..........4.K.a.
 800fcf8:	028c0277 02b602a1 02dd02c9 030102ef     w...............
 800fd08:	03240313 03440334 03620353 037d0370     ..$.4.D.S.b.p.}.
 800fd18:	0396038a 03ac03a1 03c003b6 03d103c9     ................
 800fd28:	03df03d8 03eb03e5 03f403f0 03fa03f7     ................
 800fd38:	03fd03fc 03fd03fe 03fb03fc 03f503f8     ................
 800fd48:	03ed03f1 03e103e7 03d303da 03c103ca     ................
 800fd58:	03ac03b7 039403a1 037a0387 035c036b     ..........z.k.\.
 800fd68:	033a034b 03160329 02ee0303 02c402da     K.:.)...........
 800fd78:	029602ad 0265027e 0231024b 01f90215     ....~.e.K.1.....
 800fd88:	01bf01dc 018101a0 01400161 00fc011f     ........a.@.....
 800fd98:	00b500d9 006b0090 001e0045 ffcdfff6     ......k.E.......
 800fda8:	ff7affa4 ff24ff4f fecafef7 fe6efe9c     ..z.O.$.......n.
 800fdb8:	fe0efe3e fdacfdde fd47fd7a fce0fd14     >.......z.G.....
 800fdc8:	fc75fcab fc08fc3f fb98fbd0 fb25fb5f     ..u.?......._.%.
 800fdd8:	fab0faeb fa38fa74 f9bef9fb f942f980     ....t.8.......B.
 800fde8:	f8c3f902 f841f882 f7bef800 f738f77b     ......A.....{.8.
 800fdf8:	f6b1f6f5 f627f66c f59cf5e2 f50ef555     ....l.'.....U...
 800fe08:	f47ff4c7 f3eef437 f35bf3a5 f2c7f311     ....7.....[.....
 800fe18:	f231f27c f19af1e6 f102f14e f068f0b5     |.1.....N.....h.
 800fe28:	efcef01b ef32ef80 ee95eee4 edf8ee47     ......2.....G...
 800fe38:	ed5aeda9 ecbbed0a ec1bec6b eb7bebcb     ..Z.....k.....{.
 800fe48:	eadbeb2b ea3aea8b e99ae9ea e8f9e949     +.....:.....I...
 800fe58:	e858e8a8 e7b8e808 e717e767 e677e6c7     ..X.....g.....w.
 800fe68:	e5d8e627 e539e588 e49be4ea e3fde44c     '.....9.....L...
 800fe78:	e361e3af e2c5e313 e22be278 e192e1de     ..a.....x.+.....
 800fe88:	e0fae146 e063e0ae dfcfe019 df3cdf85     F.....c.......<.
 800fe98:	deaadef3 de1bde62 dd8dddd4 dd02dd48     ....b.......H...
 800fea8:	dc79dcbd dbf2dc35 db6edbb0 daecdb2d     ..y.5.....n.-...
 800feb8:	da6ddaad d9f1da2f d978d9b4 d901d93c     ..m./.....x.<...
 800fec8:	d88ed8c7 d81ed855 d7b1d7e7 d748d77c     ....U.......|.H.
 800fed8:	d6e2d714 d67fd6b0 d621d64f d5c6d5f3     ........O.!.....
 800fee8:	d56fd59a d51cd545 d4cdd4f4 d482d4a7     ..o.E...........
 800fef8:	d43cd45e d3fad41a d3bcd3da d383d39f     ^.<.............
 800ff08:	d34ed368 d31fd336 d2f3d308 d2cdd2e0     h.N.6...........
 800ff18:	d2acd2bc d290d29d d278d283 d266d26f     ..........x.o.f.
 800ff28:	d259d25f d252d255 d24fd250 d253d250     _.Y.U.R.P.O.P.S.
 800ff38:	d25bd256 d269d261 d27dd272 d296d288     V.[.a.i.r.}.....
 800ff48:	d2b5d2a4 d2d9d2c6 d303d2ee d333d31b     ..............3.
 800ff58:	d369d34e d3a5d386 d3e6d3c5 d42ed409     N.i.............
 800ff68:	d47bd454 d4cfd4a4 d528d4fb d587d557     T.{.......(.W...
 800ff78:	d5ecd5b9 d658d621 d6c9d690 d740d704     ....!.X.......@.
 800ff88:	d7bed77e d841d7ff d8cad885 d95ad911     ~.....A.......Z.
 800ff98:	d9efd9a4 da8ada3c db2cdada dbd3db7f     ....<.....,.....
 800ffa8:	dc80dc29 dd33dcd9 ddecdd8f deaade4a     ).....3.....J...
 800ffb8:	df6fdf0c e039dfd3 e109e0a0 e1dee173     ..o...9.....s...
 800ffc8:	e2bae24b e39ae329 e480e40d e56ce4f5     K...).........l.
 800ffd8:	e65de5e4 e753e6d7 e84ee7d0 e94fe8ce     ..]...S...N...O.
 800ffe8:	ea54e9d1 eb5fead9 ec6febe6 ed83ecf8     ..T..._...o.....
 800fff8:	ee9cee0f efbaef2a f0dcf04a f203f16f     ....*...J...o...
 8010008:	f32ef298 f45df3c5 f591f4f7 f6c8f62c     ......].....,...
 8010018:	f804f766 f943f8a3 fa86f9e4 fbcdfb29     f.....C.....)...
 8010028:	fd17fc72 fe64fdbd ffb5ff0c 0109005e     r.....d.....^...
 8010038:	025f01b4 03b9030c 05150467 067405c4     .._.....g.....t.
 8010048:	07d50724 09380886 0a9e09eb 0c050b51     $.....8.....Q...
 8010058:	0d6f0cba 0ed90e24 10460f90 11b410fd     ..o.$.....F.....
 8010068:	1323126b 149313db 1604154c 177616bd     k.#.....L.....v.
 8010078:	18e8182f 1a5b19a2 1bce1b15 1d421c88     /.....[.......B.
 8010088:	1eb51dfb 20281f6e 219a20e1 230c2253     ....n.( . .!S".#
 8010098:	247d23c5 25ed2535 275d26a5 28ca2814     .#}$5%.%.&]'.(.(
 80100a8:	2a372981 2ba22aed 2d0b2c57 2e722dbf     .)7*.*.+W,.-.-r.
 80100b8:	2fd82f25 313a3089 329b31eb 33f9334a     %/./.0:1.1.2J3.3
 80100c8:	355434a7 36ac3600 38013757 395238aa     .4T5.6.6W7.8.8R9
 80100d8:	3aa139fa 3beb3b46 3d323c8f 3e753dd4     .9.:F;.;.<2=.=u>
 80100e8:	3fb33f15 40ee4051 42244189 435542bd     .?.?Q@.@.A$B.BUC
 80100f8:	448143ec 45a94516 46cb463b 47e8475a     .C.D.E.E;F.FZG.G
 8010108:	49004875 4a12498a 4b1f4a99 4c254ba3     uH.I.I.J.J.K.K%L
 8010118:	4d264ca6 4e204da4 4f144e9b 50024f8c     .L&M.M N.N.O.O.P
 8010128:	50e95076 51c9515a 52a25236 5374530c     vP.PZQ.Q6R.R.StS
 8010138:	544053db 550354a2 55c05563 5675561b     .S@T.T.UcU.U.VuV
 8010148:	572256cd 57c85776 58665818 58fc58b2     .V"WvW.W.XfX.X.X
 8010158:	59895943 5a0f59cd 5a8c5a4e 5b015ac7     CY.Y.Y.ZNZ.Z.Z.[
 8010168:	5b6d5b38 5bd15ba0 5c2c5bff 5c7e5c56     8[m[.[.[.[,\V\~\
 8010178:	5cc85ca4 5d085ce9 5d405d25 5d6e5d58     .\.\.\.]%]@]X]n]
 8010188:	5d935d82 5db05da3 5dc35dba 5dcc5dc9     .].].].].].].].]
 8010198:	5dcd5dce 5dc35dc9 5db15dbb 5d955da4     .].].].].].].].]
 80101a8:	5d6f5d83 5d405d59 5d075d25 5cc55ce7     .]o]Y]@]%].].\.\
 80101b8:	5c795ca0 5c235c4f 5bc45bf5 5b5b5b91     .\y\O\#\.[.[.[[[
 80101c8:	5ae95b23 5a6c5aac 59e75a2b 595759a0     #[.Z.ZlZ+Z.Y.YWY
 80101d8:	58be590c 581b586e 576f57c6 56b95715     .Y.XnX.X.WoW.W.V
 80101e8:	55f9565a 55305596 545e54c8 538253f1     ZV.U.U0U.T^T.S.S
 80101f8:	529d5311 51af5227 50b75134 4fb65038     .S.R'R.Q4Q.P8P.O
 8010208:	4eac4f32 4d994e24 4c7d4d0c 4b584bec     2O.N$N.M.M}L.KXK
 8010218:	4a2a4ac2 48f44990 47b54856 466d4712     .J*J.I.HVH.G.GmF
 8010228:	451d45c6 43c54472 42644316 40fc41b1     .E.ErD.C.CdB.A.@
 8010238:	3f8b4044 3e123ed0 3c923d53 3b0a3bcf     D@.?.>.>S=.<.;.;
 8010248:	397b3a43 37e438b0 36463716 34a13574     C:{9.8.7.7F6t5.4
 8010258:	32f533cb 3142321c 2f883066 2dc82ea9     .3.2.2B1f0./...-
 8010268:	2c022ce6 2a352b1c 2863294d 268b2778     .,.,.+5*M)c(x'.&
 8010278:	24ad259d 22c923bc 20e121d6 1ef31fea     .%.$.#.".!. ....
 8010288:	1d001dfa 1b091c05 190d1a0b 170c180d     ................
 8010298:	1508160a 12ff1404 10f311f9 0ee30feb     ................
 80102a8:	0ccf0dda 0ab90bc5 08a009ad 06830792     ................
 80102b8:	04650574 02440354 00200132 fdfbff0e     t.e.T.D.2. .....
 80102c8:	fbd5fce8 f9acfac1 f783f898 f558f66e     ............n.X.
 80102d8:	f32df443 f101f217 eed5efeb eca8edbf     C.-.............
 80102e8:	ea7ceb92 e850e966 e625e73a e3fae50f     ..|.f.P.:.%.....
 80102f8:	e1d1e2e5 dfa8e0bc dd81de94 db5cdc6e     ............n.\.
 8010308:	d939da4a d717d828 d4f8d608 d2dcd3ea     J.9.(...........
 8010318:	d0c3d1cf ceaccfb7 cc99cda2 ca89cb91     ................
 8010328:	c87dc983 c675c779 c472c573 c272c371     ..}.y.u.s.r.q.r.
 8010338:	c077c174 be81bf7b bc90bd88 baa4bb99     t.w.{...........
 8010348:	b8beb9b0 b6ddb7cd b502b5ef b32db417     ..............-.
 8010358:	b15fb245 af97b07a add5aeb5 ac1bacf7     E._.z...........
 8010368:	aa67ab40 a8bba990 a716a7e8 a579a647     @.g.........G.y.
 8010378:	a3e4a4ae a257a31c a0d2a193 9f55a012     ......W.......U.
 8010388:	9de19e9a 9c759d2a 9b129bc3 99b99a64     ....*.u.....d...
 8010398:	9868990f 972197c3 95e39681 94af9548     ..h...!.....H...
 80103a8:	93859419 926592f4 914e91d8 904290c7     ......e...N...B.
 80103b8:	8f408fc0 8e498ec3 8d5c8dd1 8c7a8cea     ..@...I...\...z.
 80103c8:	8ba28c0d 8ad68b3b 8a148a74 895e89b8     ....;...t.....^.
 80103d8:	88b28907 88128861 877e87c7 86f48738     ....a.....~.8...
 80103e8:	867786b4 8605863c 859e85d0 8543856f     ..w.<.......o.C.
 80103f8:	84f4851a 84b184d1 84798494 844e8462     ..........y.b.N.
 8010408:	842e843c 841a8423 84138415 84178413     <...#...........
 8010418:	8427841e 84448434 846c8457 84a18485     ..'.4.D.W.l.....
 8010428:	84e184bf 852e8506 85868559 85eb85b7     ........Y.......
 8010438:	865b8622 86d88698 8760871b 87f587a9     ".[.......`.....
 8010448:	88958843 894188e9 89f8899b 8abb8a58     C.....A.....X...
 8010458:	8b8a8b21 8c658bf6 8d4a8cd6 8e3c8dc2     !.....e...J...<.
 8010468:	8f388eb9 90408fbb 915390c8 927191e0     ..8...@...S...q.
 8010478:	939a9304 94cd9432 960b956b 975496af     ....2...k.....T.
 8010488:	98a897fd 9a059955 9b6d9ab8 9cdf9c25     ....U.....m.%...
 8010498:	9e5b9d9c 9fe19f1d a170a0a7 a309a23b     ..[.......p.;...
 80104a8:	a4aba3d9 a657a580 a80ba730 a9c8a8e8     ......W.0.......
 80104b8:	ab8eaaaa ad5cac74 af33ae47 b112b022     ....t.\.G.3."...
 80104c8:	b2f9b204 b4e8b3ef b6deb5e2 b8dbb7dc     ................
 80104d8:	bae0b9dd bcecbbe5 befebdf4 c118c00a     ................
 80104e8:	c337c227 c55dc449 c788c672 c9bac8a0     '.7.I.].r.......
 80104f8:	cbf0cad4 ce2ccd0e d06ecf4c d2b4d190     ......,.L.n.....
 8010508:	d4fed3d8 d74dd625 d9a0d876 dbf7dacb     ....%.M.v.......
 8010518:	de52dd24 e0b0df80 e311e1e0 e575e443     $.R.........C.u.
 8010528:	e7dce6a8 ea45e910 ecb1eb7b ef1eede7     ......E.{.......
 8010538:	f18df055 f3fef2c5 f670f537 f8e3f7a9     U.......7.p.....
 8010548:	fb56fa1c fdcafc90 003eff04 02b30178     ..V.......>.x...
 8010558:	052703ed 079a0660 0a0d08d3 0c7e0b46     ..'.`.......F.~.
 8010568:	0eef0db7 115d1026 13cb1294 16361500     ....&.].......6.
 8010578:	189e176a 1b0519d2 1d681c37 1fc91e99     j.......7.h.....
 8010588:	222620f8 24802354 26d625ac 29282800     . &"T#.$.%.&.(()
 8010598:	2b772a50 2dc02c9c 30052ee3 32453126     P*w+.,.-...0&1E2
 80105a8:	34803364 36b6359c 38e637cf 3b1139fc     d3.4.5.6.7.8.9.;
 80105b8:	3d353c24 3f533e45 416b4060 437c4275     $<5=E>S?`@kAuB|C
 80105c8:	45874483 478a4689 49864889 4b7b4a82     .D.E.F.G.H.I.J{K
 80105d8:	4d684c73 4f4d4e5c 512b503d 53005216     sLhM\NMO=P+Q.R.S
 80105e8:	54cc53e7 569155b0 584c576f 59ff5927     .S.T.U.VoWLX'Y.Y
 80105f8:	5ba85ad5 5d495c7a 5edf5e15 606d5fa7     .Z.[z\I].^.^._m`
 8010608:	61f16130 636b62af 64db6424 6640658f     0a.a.bkc$d.d.e@f
 8010618:	679c66ef 68ed6846 6a346992 6b706ad3     .f.gFh.h.i4j.jpk
 8010628:	6ca26c0a 6dc86d36 6ee46e58 6ff56f6e     .l.l6m.mXn.nno.o
 8010638:	70fa7079 71f47179 72e3726d 73c77357     yp.pyq.qmr.rWs.s
 8010648:	749f7434 756c7507 762d75ce 76e27689     4t.t.ulu.u-v.v.v
 8010658:	778b7738 782977dc 78bb7873 794178ff     8w.w.w)xsx.x.xAy
 8010668:	79bb797f 7a2979f4 7a8b7a5c 7ae17ab8     .y.y.y)z\z.z.z.z
 8010678:	7b2c7b08 7b6a7b4c 7b9c7b84 7bc27bb0     .{,{L{j{.{.{.{.{
 8010688:	7bdc7bd0 7bea7be4 7bec7bec 7be27be8     .{.{.{.{.{.{.{.{
 8010698:	7bcc7bd8 7baa7bbc 7b7c7b94 7b427b60     .{.{.{.{.{|{`{B{
 80106a8:	7afc7b20 7aab7ad5 7a4d7a7e 79e57a1a      {.z.z.z~zMz.z.y
 80106b8:	797079ac 78f07931 786478ac 77cd781a     .ypy1y.x.xdx.x.w
 80106c8:	772b777e 767e76d6 75c57623 75017564     ~w+w.v~v#v.udu.u
 80106d8:	7432749b 735973c7 727572e8 718671fe     .t2t.sYs.rur.q.q
 80106e8:	708c710a 6f88700b 6e7a6f02 6d626def     .q.p.p.o.ozn.mbm
 80106f8:	6c3f6cd2 6b136baa 69dd6a79 689d693e     .l?l.k.kyj.i>i.h
 8010708:	675467fa 660266ac 64a66555 634263f5     .gTg.f.fUe.d.cBc
 8010718:	61d5628c 605f611b 5ee05fa1 5d5a5e1e     .b.a.a_`._.^.^Z]
 8010728:	5bcb5c93 5a345b00 58955965 56ef57c3     .\.[.[4ZeY.X.W.V
 8010738:	55415619 538c5468 51d052af 500e50f0     .VAUhT.S.R.Q.P.P
 8010748:	4e444f2a 4c744d5d 4a9e4b8a 48c249b1     *ODN]MtL.K.J.I.H
 8010758:	46e047d2 44f945ed 430c4403 411a4214     .G.F.E.D.D.C.B.A
 8010768:	3f23401f 3d273e26 3b273c27 39223a25     .@#?&>'='<';%:"9
 8010778:	3719381e 350c3613 32fc3405 30e831f2     .8.7.6.5.4.2.1.0
 8010788:	2ed12fdd 2cb72dc4 2a9a2ba9 287b298b     ./...-.,.+.*.){(
 8010798:	2659276a 24352548 22102323 1fe920fc     j'Y&H%5$##.". ..
 80107a8:	1dc01ed4 1b961cab 196b1a81 17401855     ..........k.U.@.
 80107b8:	1514162a 12e713fd 10bb11d1 0e8f0fa5     *...............
 80107c8:	0c630d79 0a380b4d 080d0922 05e406f9     y.c.M.8.".......
 80107d8:	03bc04d0 019602a9 ff710083 fd4efe5f     ..........q._.N.
 80107e8:	fb2efc3e f90ffa1e f6f4f801 f4dbf5e7     >...............
 80107f8:	f2c5f3d0 f0b2f1bb eea3efaa ec97ed9d     ................
 8010808:	ea90eb93 e88ce98d e68ce78c e491e58e     ................
 8010818:	e29be395 e0a9e1a1 debcdfb2 dcd4ddc8     ................
 8010828:	daf2dbe3 d915da03 d73ed829 d56dd655     ........).>.U.m.
 8010838:	d3a2d487 d1ddd2be d01ed0fd ce66cf41     ............A.f.
 8010848:	ccb4cd8c cb0acbde c966ca37 c7c9c897     ........7.f.....
 8010858:	c634c6fe c4a6c56c c31fc3e2 c1a1c25f     ..4.l......._...
 8010868:	c02ac0e4 bebbbf71 bd53be06 bbf4bca3     ..*.q.....S.....
 8010878:	ba9ebb48 b94fb9f6 b80ab8ab b6ccb76a     H.....O.....j...
 8010888:	b597b631 b46cb500 b348b3d9 b22eb2ba     1.....l...H.....
 8010898:	b11db1a4 b015b098 af16af94 ae20ae9a     .............. .
 80108a8:	ad33ada8 ac50acc0 ab76abe2 aaa6ab0d     ..3...P...v.....
 80108b8:	a9dfaa41 a921a97f a86da8c6 a7c3a817     A.....!...m.....
 80108c8:	a722a771 a68ba6d5 a5fda643 a579a5ba     q.".....C.....y.
 80108d8:	a4ffa53b a48ea4c5 a427a459 a3caa3f7     ;.......Y.'.....
 80108e8:	a376a39f a32ca350 a2eca30b a2b5a2cf     ..v.P.,.........
 80108f8:	a288a29d a264a275 a24aa256 a239a240     ....u.d.V.J.@.9.
 8010908:	a232a234 a234a232 a23fa239 a254a249     4.2.2.4.9.?.I.T.
 8010918:	a272a262 a299a285 a2caa2b0 a303a2e5     b.r.............
 8010928:	a345a323 a391a36a a3e5a3ba a442a412     #.E.j.........B.
 8010938:	a4a7a473 a515a4dd a58ca54f a60aa5ca     s.......O.......
 8010948:	a692a64d a721a6d8 a7b8a76b a857a807     M.....!.k.....W.
 8010958:	a8ffa8aa a9aea955 aa64aa08 ab22aac2     ....U.....d...".
 8010968:	abe7ab84 acb4ac4d ad88ad1d ae63adf4     ....M.........c.
 8010978:	af44aed2 b02cafb7 b11bb0a3 b211b195     ..D...,.........
 8010988:	b30cb28e b40eb38c b516b491 b623b59c     ..............#.
 8010998:	b736b6ac b84fb7c2 b96db8de ba91b9fe     ..6...O...m.....
 80109a8:	bbb9bb24 bce7bc4f be19bd7f bf50beb4     $...O.........P.
 80109b8:	c08bbfed c1cac12a c30ec26c c456c3b1     ....*...l.....V.
 80109c8:	c5a1c4fb c6f0c648 c842c799 c998c8ed     ....H.....B.....
 80109d8:	caf0ca44 cc4ccb9e cdaaccfb cf0bce5b     D.....L.....[...
 80109e8:	d06fcfbd d1d4d121 d33cd288 d4a5d3f0     ..o.!.....<.....
 80109f8:	d611d55b d77ed6c7 d8ecd835 da5bd9a3     [.....~.5.....[.
 8010a08:	dbccdb13 dd3ddc84 deafddf6 e022df68     ......=.....h.".
 8010a18:	e195e0db e308e24e e47be3c1 e5eee534     ....N.....{.4...
 8010a28:	e761e6a7 e8d3e81a ea45e98c ebb6eafd     ..a.......E.....
 8010a38:	ed26ec6e ee94eddd f002ef4b f16ef0b8     n.&.....K.....n.
 8010a48:	f2d9f224 f442f38e f5a9f4f6 f70ef65c     $.....B.....\...
 8010a58:	f871f7c0 f9d2f922 fb30fa81 fc8bfbde     ..q.".....0.....
 8010a68:	fde4fd38 ff3afe90 008effe4 01de0136     8.....:.....6...
 8010a78:	032a0284 047403cf 05ba0517 06fc065b     ..*...t.....[...
 8010a88:	083a079c 097508d8 0aac0a11 0bdf0b46     ..:...u.....F...
 8010a98:	0d0d0c76 0e370da3 0f5d0ecb 107f0fef     v.....7...].....
 8010aa8:	119c110e 12b41228 13c7133e 14d6144f     ....(...>...O...
 8010ab8:	15df155b 16e41662 17e31764 18de1861     [...b...d...a...
 8010ac8:	19d31959 1ac31a4c 1bad1b39 1c921c20     Y...L...9... ...
 8010ad8:	1d721d03 1e4c1ddf 1f201eb7 1fef1f88     ..r...L... .....
 8010ae8:	20b82054 217b211a 223921db 22f02295     T . .!{!.!9"."."
 8010af8:	23a2234a 244e23f9 24f424a2 25942545     J#.#.#N$.$.$E%.%
 8010b08:	262e25e2 26c22679 2751270a 27d92795     .%.&y&.&.'Q'.'.'
 8010b18:	285b281b 28d7289a 294d2913 29bd2986     .([(.(.(.)M).).)
 8010b28:	2a2729f3 2a8b2a5a 2ae92abb 2b422b16     .)'*Z*.*.*.*.+B+
 8010b38:	2b942b6b 2be02bba 2c262c04 2c662c47     k+.+.+.+.,&,G,f,
 8010b48:	2ca12c84 2cd62cbc 2d052cee 2d2e2d1a     .,.,.,.,.,.-.-.-
 8010b58:	2d512d40 2d6f2d61 2d872d7b 2d992d91     @-Q-a-o-{-.-.-.-
 8010b68:	2da62da0 2dae2dab 2db02daf 2dac2daf     .-.-.-.-.-.-.-.-
 8010b78:	2da32da8 2d952d9d 2d822d8d 2d6a2d77     .-.-.-.-.-.-w-j-
 8010b88:	2d4d2d5c 2d2a2d3c 2d032d17 2cd72cee     \-M-<-*-.-.-.,.,
 8010b98:	2ca62cbf 2c712c8c 2c372c55 2bf82c18     .,.,.,q,U,7,.,.+
 8010ba8:	2bb52bd7 2b6e2b92 2b232b49 2ad32afb     .+.+.+n+I+#+.*.*
 8010bb8:	2a7f2aaa 2a272a54 29cc29fa 296c299d     .*.*T*'*.).).)l)
 8010bc8:	2909293b 28a328d6 2839286e 27cb2802     ;).).(.(n(9(.(.'
 8010bd8:	275a2793 26e62721 266f26ab 25f52633     .'Z'!'.&.&o&3&.%
 8010be8:	257825b7 24f92539 247724b8 23f22435     .%x%9%.$.$w$5$.#
 8010bf8:	236b23af 22e12326 2255229c 21c8220f     .#k#&#."."U".".!
 8010c08:	21382180 20a620ef 2013205d 1f7e1fc8     .!8!. . ] . ..~.
 8010c18:	1ee71f32 1e4f1e9b 1db51e02 1d1b1d68     2.....O.....h...
 8010c28:	1c7f1ccd 1be21c31 1b451b94 1aa61af6     ....1.....E.....
 8010c38:	1a071a57 196819b8 18c81918 18271878     W.....h.....x.'.
 8010c48:	178717d7 16e61736 16451696 15a515f5     ....6.....E.....
 8010c58:	15041554 146414b4 13c41414 13241374     T.....d.....t.$.
 8010c68:	128612d5 11e81237 114a1199 10ae10fc     ....7.....J.....
 8010c78:	10121060 0f780fc5 0ede0f2b 0e460e92     `.....x.+.....F.
 8010c88:	0db00dfb 0d1a0d65 0c860cd0 0bf40c3d     ....e.......=...
 8010c98:	0b630bac 0ad40b1c 0a470a8e 09bc0a02     ..c.......G.....
 8010ca8:	09330977 08ac08ef 08270869 07a407e5     w.3.....i.'.....
 8010cb8:	07230763 06a406e3 06280666 05af05eb     c.#.....f.(.....
 8010cc8:	05370573 04c304fd 04510489 03e10419     s.7.......Q.....
 8010cd8:	037503ab 030b033f 02a302d7 023f0271     ..u.?.......q.?.
 8010ce8:	01dd020e 017f01ae 01230150 00ca00f6     ........P.#.....
 8010cf8:	0074009f 0021004a ffd2fff9 ff85ffab     ..t.J.!.........
 8010d08:	ff3bff60 fef5ff18 feb2fed3 fe71fe91     `.;...........q.
 8010d18:	fe34fe52 fdfafe17 fdc4fddf fd90fda9     R.4.............
 8010d28:	fd60fd77 fd32fd49 fd08fd1d fce1fcf5     w.`.I.2.........
 8010d38:	fcbefccf fc9dfcad fc80fc8e fc66fc72     ............r.f.
 8010d48:	fc4efc5a fc3afc44 fc29fc31 fc1bfc22     Z.N.D.:.1.)."...
 8010d58:	fc10fc15 fc08fc0c fc04fc06 fc02fc02     ................
 8010d68:	fc02fc02 fc06fc04 fc0dfc09 fc16fc11     ................
 8010d78:	fc22fc1c fc31fc2a fc43fc3a fc57fc4d     ..".*.1.:.C.M.W.
 8010d88:	fc6efc62 fc87fc7a fca3fc95 fcc1fcb2     b.n.z...........
 8010d98:	fce2fcd1 fd05fcf3 fd2afd17 fd52fd3e     ..........*.>.R.
 8010da8:	fd7bfd66 fda7fd91 fdd4fdbd fe04fdec     f.{.............
 8010db8:	fe36fe1d fe69fe4f fe9efe83 fed5feb9     ..6.O.i.........
 8010dc8:	ff0dfef1 ff47ff2a ff82ff65 ffbfffa1     ....*.G.e.......
 8010dd8:	fffdffde 003d001d 007d005d 00bf009e     ......=.].}.....
 8010de8:	010200e0 01450123 018a0168 01cf01ad     ....#.E.h.......
 8010df8:	021501f2 025c0239 02a30280 02eb02c7     ....9.\.........
 8010e08:	0333030f 037b0357 03c403a0 040d03e9     ..3.W.{.........
 8010e18:	04560431 049f047a 04e804c3 0530050c     1.V.z.........0.
 8010e28:	05790554 05c1059d 060805e5 0650062c     T.y.........,.P.
 8010e38:	06960673 06dc06b9 072106ff 07660744     s.........!.D.f.
 8010e48:	07aa0788 07ec07cb 082e080d 086f084e     ............N.o.
 8010e58:	08ae088e 08ec08cd 0929090b 09640947     ..........).G.d.
 8010e68:	099e0982 09d709bb 0a0e09f3 0a430a29     ............).C.
 8010e78:	0a770a5d 0aa80a90 0ad80ac1 0b060af0     ].w.............
 8010e88:	0b320b1d 0b5c0b48 0b840b71 0baa0b98     ..2.H.\.q.......
 8010e98:	0bce0bbc 0bef0bdf 0c0e0bff 0c2b0c1d     ..............+.
 8010ea8:	0c450c38 0c5d0c52 0c730c68 0c850c7c     8.E.R.].h.s.|...
 8010eb8:	0c960c8e 0ca30c9d 0cae0ca9 0cb70cb3     ................
 8010ec8:	0cbc0cba 0cbf0cbe 0cbf0cc0 0cbd0cbe     ................
 8010ed8:	0cb70cba 0caf0cb3 0ca30ca9 0c950c9d     ................
 8010ee8:	0c840c8d 0c700c7b 0c590c65 0c3f0c4d     ....{.p.e.Y.M.?.
 8010ef8:	0c220c31 0c020c13 0bdf0bf1 0bb90bcd     1.".............
 8010f08:	0b910ba5 0b650b7b 0b360b4e 0b040b1d     ....{.e.N.6.....
 8010f18:	0acf0aea 0a970ab3 0a5c0a7a 0a1f0a3e     ........z.\.>...
 8010f28:	09de09ff 099a09bc 09540977 090a092f     ........w.T./...
 8010f38:	08be08e4 086f0897 081d0846 07c807f3     ......o.F.......
 8010f48:	0770079d 07160744 06b906e8 065a068a     ..p.D.........Z.
 8010f58:	05f70629 059305c5 052b055f 04c204f7     )......._.+.....
 8010f68:	0455048c 03e7041e 037603ae 0302033c     ..U.......v.<...
 8010f78:	028d02c8 02150251 019b01d8 011f015d     ....Q.......]...
 8010f88:	00a100e0 00210061 ff9fffe0 ff1bff5e     ....a.!.....^...
 8010f98:	fe96fed9 fe0ffe53 fd86fdcb fcfbfd41     ....S.......A...
 8010fa8:	fc70fcb6 fbe2fc29 fb53fb9b fac3fb0c     ..p.).....S.....
 8010fb8:	fa32fa7b f9a0f9e9 f90cf956 f878f8c2     {.2.....V.....x.
 8010fc8:	f7e3f82d f74cf798 f6b5f701 f61ef66a     -.....L.....j...
 8010fd8:	f586f5d2 f4edf539 f454f4a0 f3baf407     ....9.....T.....
 8010fe8:	f321f36e f287f2d4 f1edf23a f153f1a0     n.!.....:.....S.
 8010ff8:	f0b9f106 f01ff06c ef86efd2 eeedef39     ....l.......9...
 8011008:	ee54eea0 edbcee08 ed24ed70 ec8decd9     ..T.....p.$.....
 8011018:	ebf7ec42 eb62ebac eaceeb18 ea3aea84     B.....b.......:.
 8011028:	e9a8e9f1 e917e95f e887e8cf e7f9e840     ...._.......@...
 8011038:	e76ce7b3 e6e1e726 e657e69c e5cfe613     ..l.&.....W.....
 8011048:	e549e58c e4c5e507 e442e483 e3c2e402     ..I.......B.....
 8011058:	e344e383 e2c8e306 e24ee28b e1d7e212     ..D.......N.....
 8011068:	e162e19c e0efe128 e07fe0b7 e012e048     ..b.(.......H...
 8011078:	dfa7dfdc df3fdf73 dedadf0c de78dea9     ....s.?.......x.
 8011088:	de19de48 ddbdddea dd64dd90 dd0edd38     H.........d.8...
 8011098:	dcbbdce4 dc6cdc93 dc1fdc45 dbd7dbfb     ......l.E.......
 80110a8:	db92dbb4 db50db70 db11db30 dad7daf4     ....p.P.0.......
 80110b8:	daa0dabb da6cda86 da3dda54 da11da26     ......l.T.=.&...
 80110c8:	d9e9d9fc d9c4d9d6 d9a4d9b4 d987d995     ................
 80110d8:	d96fd97b d95ad964 d949d951 d93dd942     {.o.d.Z.Q.I.B.=.
 80110e8:	d934d938 d92fd931 d92fd92f d932d930     8.4.1./././.0.2.
 80110f8:	d93ad936 d946d93f d955d94d d969d95f     6.:.?.F.M.U._.i.
 8011108:	d981d975 d99ed98f d9bed9ad d9e2d9d0     u...............
 8011118:	da0bd9f6 da38da21 da68da50 da9dda82     ....!.8.P.h.....
 8011128:	dad6dab9 db13daf4 db55db33 db9adb77     ........3.U.w...
 8011138:	dbe3dbbe dc30dc09 dc81dc58 dcd6dcab     ......0.X.......
 8011148:	dd2fdd02 dd8cdd5d ddedddbc de52de1f     ../.].........R.
 8011158:	debade85 df26def0 df96df5d e009dfcf     ......&.].......
 8011168:	e080e044 e0fbe0bd e179e13a e1fbe1ba     D.......:.y.....
 8011178:	e280e23d e308e2c4 e394e34e e423e3db     =.......N.....#.
 8011188:	e4b5e46b e54ae4ff e5e2e596 e67ee630     k.....J.....0.~.
 8011198:	e71ce6cc e7bde76c e861e80e e907e8b4     ....l.....a.....
 80111a8:	e9b0e95c ea5cea06 eb0beab3 ebbbeb63     \.....\.....c...
 80111b8:	ec6eec14 ed24ecc9 eddbed7f ee95ee38     ..n...$.....8...
 80111c8:	ef50eef2 f00eefaf f0cdf06d f18ef12e     ..P.....m.......
 80111d8:	f251f1f0 f316f2b3 f3dcf378 f4a3f43f     ..Q.....x...?...
 80111e8:	f56cf507 f636f5d0 f701f69b f7cdf766     ..l...6.....f...
 80111f8:	f89af833 f968f901 fa36f9cf fb06fa9e     3.....h...6.....
 8011208:	fbd6fb6e fca6fc3e fd77fd0e fe48fddf     n...>.....w...H.
 8011218:	ff19feb0 ffebff82 00bc0053 018d0125     ........S...%...
 8011228:	025e01f6 032f02c7 04000398 04d00468     ..^.../.....h...
 8011238:	059f0538 066e0607 073c06d5 080907a3     8.....n...<.....
 8011248:	08d60870 09a1093b 0a6b0a06 0b340ad0     p...;.....k...4.
 8011258:	0bfc0b98 0cc20c5f 0d870d24 0e4a0de8     ...._...$.....J.
 8011268:	0f0b0eab 0fcb0f6b 1089102a 114510e7     ....k...*.....E.
 8011278:	11ff11a2 12b7125b 136d1312 142013c7     ....[.....m... .
 8011288:	14d11479 15801529 162c15d7 16d61682     y...).....,.....
 8011298:	177d172a 182217d0 18c31873 19621913     *.}...".s.....b.
 80112a8:	19fe19b0 1a971a4b 1b2d1ae2 1bbf1b76     ....K.....-.v...
 80112b8:	1c4f1c07 1cdb1c95 1d641d20 1dea1da8     ..O..... .d.....
 80112c8:	1e6c1e2c 1eeb1eac 1f661f29 1fde1fa3     ,.l.....).f.....
 80112d8:	20522019 20c3208b 213020fa 21992165     . R . . . 0!e!.!
 80112e8:	21fe21cc 2260222f 22bd228f 231722eb     .!.!/"`".".".".#
 80112f8:	236d2343 23bf2397 240d23e6 24572432     C#m#.#.#.#.$2$W$
 8011308:	249d247a 24df24be 251d24fe 2557253a     z$.$.$.$.$.%:%W%
 8011318:	258c2572 25be25a6 25eb25d5 26152601     r%.%.%.%.%.%.&.&
 8011328:	263a2628 265b264b 2678266a 26912685     (&:&K&[&j&x&.&.&
 8011338:	26a6269c 26b726af 26c326bd 26cc26c8     .&.&.&.&.&.&.&.&
 8011348:	26d026ce 26d026d0 26cc26cf 26c426c9     .&.&.&.&.&.&.&.&
 8011358:	26b926bf 26a926b1 2695269f 267d2689     .&.&.&.&.&.&.&}&
 8011368:	26612670 26412652 261e2630 25f7260b     p&a&R&A&0&.&.&.%
 8011378:	25cb25e1 259c25b4 256a2584 2534254f     .%.%.%.%.%j%O%4%
 8011388:	24fa2517 24bc24db 247b249c 24362459     .%.$.$.$.${$Y$6$
 8011398:	23ee2413 23a323c9 2354237c 2302232c     .$.#.#.#|#T#,#.#
 80113a8:	22ad22d8 22542281 21f92227 219a21ca     ."."."T"'".!.!.!
 80113b8:	2139216a 20d42107 206d20a1 20032038     j!9!.!. . m 8 . 
 80113c8:	1f961fcd 1f271f5f 1eb51eee 1e401e7b     ...._.'.....{.@.
 80113d8:	1dc91e05 1d501d8d 1cd41d12 1c561c95     ......P.......V.
 80113e8:	1bd61c17 1b541b96 1ad01b13 1a4b1a8e     ......T.......K.
 80113f8:	19c31a07 193a197f 18af18f4 18221869     ......:.....i.".
 8011408:	179417db 1705174d 167416bd 15e2162b     ....M.....t.+...
 8011418:	154f1599 14bb1505 14261470 139013db     ..O.....p.&.....
 8011428:	12f91345 126212ad 11ca1216 1131117d     E.....b.....}.1.
 8011438:	109810e5 0fff104b 0f650fb2 0ecb0f18     ....K.....e.....
 8011448:	0e310e7e 0d970de4 0cfd0d4a 0c630cb0     ~.1.....J.....c.
 8011458:	0bca0c17 0b310b7d 0a980ae4 0a000a4c     ....}.1.....L...
 8011468:	096809b4 08d1091c 083a0886 07a507f0     ..h.......:.....
 8011478:	0710075a 067d06c6 05ea0633 055905a1     Z.....}.3.....Y.
 8011488:	04c80510 04390481 03ac03f2 031f0365     ......9.....e...
 8011498:	029502da 020b0250 018401c7 00fe0141     ....P.......A...
 80114a8:	007a00bc fff80039 ff77ffb7 fef9ff38     ..z.9.....w.8...
 80114b8:	fe7dfebb fe02fe3f fd8afdc6 fd14fd4f     ..}.?.......O...
 80114c8:	fca0fcda fc2ffc67 fbc0fbf7 fb53fb89     ....g./.......S.
 80114d8:	fae9fb1d fa81fab4 fa1cfa4e f9b9f9ea     ........N.......
 80114e8:	f959f988 f8fbf92a f8a0f8cd f848f874     ..Y.*.......t.H.
 80114f8:	f7f3f81d f7a1f7c9 f751f778 f704f72a     ........x.Q.*...
 8011508:	f6baf6df f673f696 f62ef650 f5edf60d     ......s.P.......
 8011518:	f5aff5ce f573f591 f53bf557 f505f520     ......s.W.;. ...
 8011528:	f4d3f4ec f4a3f4bb f477f48d f44df462     ..........w.b.M.
 8011538:	f427f43a f403f415 f3e3f3f3 f3c5f3d4     :.'.............
 8011548:	f3abf3b8 f393f39f f37ff389 f36df375     ............u.m.
 8011558:	f35ef365 f352f358 f349f34d f343f346     e.^.X.R.M.I.F.C.
 8011568:	f340f341 f33ff33f f342f340 f347f344     A.@.?.?.@.B.D.G.
 8011578:	f34ff34a f359f354 f366f35f f376f36e     J.O.T.Y._.f.n.v.
 8011588:	f388f37f f39df393 f3b5f3a9 f3cff3c1     ................
 8011598:	f3ebf3dc f409f3fa f42af41a f44ef43c     ..........*.<.N.
 80115a8:	f473f460 f49af486 f4c4f4af f4f0f4da     `.s.............
 80115b8:	f51df506 f54df535 f57ef565 f5b1f598     ....5.M.e.~.....
 80115c8:	f5e6f5cc f61df601 f655f639 f68ff672     ........9.U.r...
 80115d8:	f6caf6ac f707f6e8 f745f725 f784f764     ........%.E.d...
 80115e8:	f7c4f7a4 f805f7e5 f848f827 f88bf86a     ........'.H.j...
 80115f8:	f8d0f8ad f915f8f2 f95bf938 f9a1f97e     ........8.[.~...
 8011608:	f9e8f9c5 fa30fa0c fa78fa54 fac0fa9c     ......0.T.x.....
 8011618:	fb09fae5 fb52fb2d fb9bfb76 fbe3fbbf     ....-.R.v.......
 8011628:	fc2cfc08 fc75fc51 fcbdfc99 fd06fce2     ..,.Q.u.........
 8011638:	fd4dfd2a fd95fd71 fddcfdb8 fe22fdff     *.M.q.........".
 8011648:	fe67fe45 feacfe8a fef0fece ff33ff11     E.g...........3.
 8011658:	ff75ff54 ffb5ff95 fff5ffd5 00330014     T.u...........3.
 8011668:	00710052 00ac008f 00e600ca 011f0103     R.q.............
 8011678:	0156013b 018c0171 01bf01a6 01f101d9     ;.V.q...........
 8011688:	02210209 024f0239 027b0266 02a50291     ..!.9.O.f.{.....
 8011698:	02cd02ba 02f302e0 03160305 03370327     ............'.7.
 80116a8:	03560347 03720365 038c0380 03a30398     G.V.e.r.........
 80116b8:	03b803ae 03ca03c2 03da03d2 03e703e1     ................
 80116c8:	03f103ec 03f803f4 03fc03fa 03fe03fd     ................
 80116d8:	03fc03fd 03f803fa 03f003f4 03e603ec     ................
 80116e8:	03d903e0 03c803d1 03b503bf 039e03aa     ................
 80116f8:	03850392 03680377 03480358 03250337     ....w.h.X.H.7.%.
 8011708:	02ff0312 02d502ea 02a902bf 02790291     ..............y.
 8011718:	02460260 0210022b 01d701f4 019a01b9     `.F.+...........
 8011728:	015b017b 0118013a 00d200f5 008900ae     {.[.:...........
 8011738:	003d0063 ffee0016 ff9cffc5 ff46ff71     c.=.........q.F.
 8011748:	feeeff1b fe93fec1 fe35fe64 fdd4fe05     ........d.5.....
 8011758:	fd70fda2 fd09fd3d fca0fcd5 fc34fc6a     ..p.=.......j.4.
 8011768:	fbc5fbfd fb53fb8c fadffb19 fa68faa4     ......S.......h.
 8011778:	f9effa2c f974f9b2 f8f6f935 f875f8b6     ,.....t.5.....u.
 8011788:	f7f3f834 f76ef7b1 f6e7f72b f65ef6a3     4.....n.+.....^.
 8011798:	f5d4f619 f547f58d f4b8f500 f428f470     ......G.....p.(.
 80117a8:	f396f3df f302f34c f26df2b8 f1d7f222     ....L.....m."...
 80117b8:	f13ff18b f0a6f0f3 f00cf059 ef70efbe     ..?.....Y.....p.
 80117c8:	eed4ef22 ee37ee86 ed99ede8 ecfaed4a     ".....7.....J...
 80117d8:	ec5becab ebbbec0b eb1beb6b ea7beacb     ..[.....k.....{.
 80117e8:	e9daea2a e939e98a e898e8e9 e7f8e848     *.....9.....H...
 80117f8:	e757e7a7 e6b7e707 e617e667 e578e5c8     ..W.....g.....x.
 8011808:	e4dae529 e43ce48b e39fe3ed e303e351     ).....<.....Q...
 8011818:	e268e2b6 e1cfe21b e136e182 e09fe0eb     ..h.......6.....
 8011828:	e00ae055 df76dfc0 dee4df2d de54de9c     U.....v.-.....T.
 8011838:	ddc6de0d dd3add7f dcb0dcf4 dc28dc6c     ......:.....l.(.
 8011848:	dba3dbe5 db20db61 daa0dae0 da22da61     ....a. .....a.".
 8011858:	d9a8d9e5 d930d96c d8bcd8f6 d84ad883     ....l.0.......J.
 8011868:	d7dcd813 d771d7a6 d70ad73d d6a6d6d8     ......q.=.......
 8011878:	d646d676 d5ead617 d591d5bd d53dd566     v.F.........f.=.
 8011888:	d4ecd514 d4a0d4c5 d457d47b d414d435     ........{.W.5...
 8011898:	d3d4d3f3 d399d3b6 d363d37d d331d349     ........}.c.I.1.
 80118a8:	d304d31a d2dcd2ef d2b9d2ca d29ad2a9     ................
 80118b8:	d281d28d d26dd276 d25ed265 d254d258     ....v.m.e.^.X.T.
 80118c8:	d250d251 d251d250 d257d253 d263d25c     Q.P.P.Q.S.W.\.c.
 80118d8:	d274d26b d28bd27f d2a8d299 d2cad2b8     k.t.............
 80118e8:	d2f2d2dd d31fd308 d353d339 d38cd36f     ........9.S.o...
 80118f8:	d3ccd3ab d411d3ed d45cd435 d4add483     ........5.\.....
 8011908:	d503d4d7 d560d531 d5c3d591 d62cd5f7     ....1.`.......,.
 8011918:	d69bd663 d710d6d5 d78bd74d d80cd7cb     c.......M.......
 8011928:	d893d84f d920d8d8 d9b3d968 da4cd9fe     O..... .h.....L.
 8011938:	daeada9a db8fdb3c dc3adbe4 dcebdc92     ....<.....:.....
 8011948:	dda1dd45 de5eddff df20debe dfe8df83     E.....^... .....
 8011958:	e0b5e04e e188e11e e261e1f4 e340e2d0     N.........a...@.
 8011968:	e424e3b1 e50de498 e5fce584 e6f0e675     ..$.........u...
 8011978:	e7e9e76c e8e8e868 e9ebe969 eaf4ea6f     l...h...i...o...
 8011988:	ec01eb7a ed14ec8a ee2bed9f ef47eeb8     z.........+...G.
 8011998:	f067efd7 f18cf0f9 f2b6f221 f3e4f34c     ..g.....!...L...
 80119a8:	f515f47c f64bf5b0 f785f6e8 f8c3f824     |.....K.....$...
 80119b8:	fa05f963 fb4afaa7 fc93fbee fddffd38     c.....J.....8...
 80119c8:	ff2efe86 0080ffd7 01d6012b 032e0282     ........+.......
 80119d8:	048903dc 05e70538 07470697 08aa07f8     ....8.....G.....
 80119e8:	0a0e095c 0b750ac2 0cde0c29 0e480d93     \.....u.).....H.
 80119f8:	0fb40efe 1121106b 129011d9 14001348     ....k.!.....H...
 8011a08:	157014b8 16e21629 1854179b 19c7190d     ..p.).....T.....
 8011a18:	1b3a1a80 1cad1bf3 1e201d67 1f931eda     ..:.....g. .....
 8011a28:	2106204d 227821bf 23ea2331 255a24a2     M .!.!x"1#.#.$Z%
 8011a38:	26ca2612 28382781 29a528ef 2b112a5b     .&.&.'8(.(.)[*.+
 8011a48:	2c7b2bc6 2de32d2f 2f492e96 30ad2ffb     .+{,/-.-..I/./.0
 8011a58:	320e315e 336d32be 34c9341c 36233576     ^1.2.2m3.4.4v5#6
 8011a68:	377936ce 38cc3823 3a1b3974 3b673ac2     .6y7#8.8t9.:.:g;
 8011a78:	3cb03c0c 3df43d52 3f343e95 40713fd3     .<.<R=.=.>4?.?q@
 8011a88:	41a8410d 42db4242 440a4373 4533449f     .A.ABB.BsC.D.D3E
 8011a98:	465845c6 477746e8 48914805 49a5491c     .EXF.FwG.H.H.I.I
 8011aa8:	4ab44a2d 4bbd4b39 4cc04c3f 4dbd4d3f     -J.J9K.K?L.L?M.M
 8011ab8:	4eb34e39 4fa34f2c 508d5019 517050ff     9N.N,O.O.P.P.PpQ
 8011ac8:	524c51df 532152b7 53ef5389 54b65454     .QLR.R!S.S.STT.T
 8011ad8:	55765517 562e55d2 56de5687 57875733     .UvU.U.V.V.V3W.W
 8011ae8:	582857d8 58c15875 5951590a 59da5997     .W(XuX.X.YQY.Y.Y
 8011af8:	5a5b5a1c 5ad35a98 5b435b0c 5baa5b77     .Z[Z.Z.Z.[C[w[.[
 8011b08:	5c085bda 5c5e5c34 5cab5c86 5cef5cce     .[.\4\^\.\.\.\.\
 8011b18:	5d2a5d0e 5d5d5d45 5d865d72 5da65d97     .]*]E]]]r].].].]
 8011b28:	5dbc5db2 5dca5dc4 5dce5dcd 5dc85dcc     .].].].].].].].]
 8011b38:	5db95dc2 5da15dae 5d7f5d91 5d545d6b     .].].].].].]k]T]
 8011b48:	5d1f5d3b 5ce15d01 5c995cbe 5c475c71     ;].].].\.\.\q\G\
 8011b58:	5beb5c1a 5b865bba 5b185b50 5a9f5add     .\.[.[.[P[.[.Z.Z
 8011b68:	5a1d5a5f 599259d9 58fc5948 585d58ae     _Z.Z.Y.YHY.X.X]X
 8011b78:	57b5580a 5703575d 564756a6 558255e6     .X.W]W.W.VGV.U.U
 8011b88:	54b3551c 53db5449 52fa536c 520f5286     .U.TIT.SlS.R.R.R
 8011b98:	511b5196 501e509e 4f184f9c 4e084e91     .Q.Q.P.P.O.O.N.N
 8011ba8:	4cf04d7d 4bce4c60 4aa44b3a 49714a0c     }M.L`L.K:K.J.JqI
 8011bb8:	483648d5 46f14795 45a5464c 445044fb     .H6H.G.FLF.E.DPD
 8011bc8:	42f243a2 418d4241 401f40d7 3eaa3f66     .C.BAB.A.@.@f?.>
 8011bd8:	3d2d3dec 3ba83c6b 3a1b3ae2 38873952     .=-=k<.;.:.:R9.8
 8011be8:	36ec37bb 354a361c 33a13476 31f032c9     .7.6.6J5v4.3.2.1
 8011bf8:	303a3116 2e7c2f5c 2cb82d9b 2aee2bd4     .1:0\/|..-.,.+.*
 8011c08:	291e2a07 27482834 256d265b 238b247d     .*.)4(H'[&m%}$.#
 8011c18:	21a52299 1fb920b0 1dc81ec1 1bd31cce     .".!. ..........
 8011c28:	19d81ad6 17da18da 15d716d9 13d014d4     ................
 8011c38:	11c512cb 0fb610be 0da40eae 0b8f0c9a     ................
 8011c48:	09770a83 075c086a 053e064d 031e042e     ..w.j.\.M.>.....
 8011c58:	00fc020d fed7ffea fcb1fdc4 fa89fb9d     ................
 8011c68:	f860f975 f636f74b f40bf521 f1e0f2f5     u.`.K.6.!.......
 8011c78:	efb3f0c9 ed87ee9d eb5bec71 e92fea45     ........q.[.E./.
 8011c88:	e703e819 e4d8e5ed e2aee3c3 e085e199     ................
 8011c98:	de5ddf71 dc37dd4a da13db25 d7f1d902     q.].J.7.%.......
 8011ca8:	d5d1d6e1 d3b4d4c2 d199d2a6 cf82d08d     ................
 8011cb8:	cd6dce77 cb5ccc64 c94fca55 c745c849     w.m.d.\.U.O.I.E.
 8011cc8:	c53fc642 c33ec43e c141c23f bf49c045     B.?.>.>.?.A.E.I.
 8011cd8:	bd56be4f bb68bc5f b980ba73 b79db88d     O.V._.h.s.......
 8011ce8:	b5bfb6ad b3e8b4d3 b217b2ff b04cb131     ............1.L.
 8011cf8:	ae88af69 accbada9 ab15abef a965aa3c     i...........<.e.
 8011d08:	a7bea891 a61ea6ed a485a550 a2f5a3bc     ........P.......
 8011d18:	a16ca22f 9feca0ab 9e749f2f 9d059dbc     /.l...../.t.....
 8011d28:	9b9f9c51 9a429aef 98ee9997 97a39847     Q.....B.....G...
 8011d38:	96619701 952995c4 93fb9491 92d79368     ..a...).....h...
 8011d48:	91bc9248 90ac9133 8fa69028 8eab8f27     H...3...(...'...
 8011d58:	8db98e31 8cd38d45 8bf78c64 8b268b8d     1...E...d.....&.
 8011d68:	8a608ac2 89a58a01 88f6894c 885188a2     ..`.....L.....Q.
 8011d78:	87b88803 872a876f 86a886e7 8631866b     ....o.*.....k.1.
 8011d88:	85c685fa 85668594 8512853b 84ca84ed     ......f.;.......
 8011d98:	848e84ab 845e8474 8439844a 8421842c     ....t.^.J.9.,.!.
 8011da8:	84148419 84148413 841f8418 8437842a     ............*.7.
 8011db8:	845b8447 848a8471 84c684a7 850e84e8     G.[.q...........
 8011dc8:	85618536 85c18590 862d85f6 86a58667     6.a.......-.g...
 8011dd8:	872886e5 87b8876f 88538804 88fa88a5     ..(.o.....S.....
 8011de8:	89ad8952 8a6c8a0b 8b368ad0 8c0c8ba0     R.....l...6.....
 8011df8:	8ced8c7b 8dda8d62 8ed28e54 8fd58f52     {...b...T...R...
 8011e08:	90e4905b 91fd916f 9322928e 945193b8     [...o....."...Q.
 8011e18:	958b94ec 96d0962c 981f9776 997898ca     ....,...v.....x.
 8011e28:	9adc9a29 9c4a9b92 9dc29d05 9f449e82     ).....J.......D.
 8011e38:	a0cfa008 a264a199 a403a332 a5aaa4d5     ......d.2.......
 8011e48:	a75ba682 a915a837 aad7a9f5 aca2abbc     ..[.7...........
 8011e58:	ae76ad8b b052af63 b235b142 b421b32a     ..v.c.R.B.5.*.!.
 8011e68:	b614b519 b80fb710 ba11b90f bc1abb14     ................
 8011e78:	be29bd21 c040bf34 c25dc14e c480c36e     !.).4.@.N.].n...
 8011e88:	c6a9c594 c8d8c7c0 cb0dc9f2 cd47cc29     ............).G.
 8011e98:	cf86ce66 d1cad0a8 d413d2ee d660d539     f...........9.`.
 8011ea8:	d8b2d788 db07d9dc dd60dc33 dfbdde8e     ........3.`.....
 8011eb8:	e21de0ec e480e34e e6e6e5b2 e94ee819     ....N.........N.
 8011ec8:	ebb9ea83 ee25ecef f094ef5c f304f1cc     ......%.\.......
 8011ed8:	f575f43c f7e8f6ae fa5bf921 fccffb95     <.u.....!.[.....
 8011ee8:	ff43fe09 01b7007d 042b02f1 069f0565     ..C.}.....+.e...
 8011ef8:	091207d9 0b840a4b 0df50cbd 10640f2d     ....K.......-.d.
 8011f08:	12d2119c 153e1409 17a81673 1a0f18dc     ......>.s.......
 8011f18:	1c741b42 1ed61da5 21342006 23902263     B.t...... 4!c".#
 8011f28:	25e724bc 283b2712 2a8b2964 2cd62bb1     .$.%.';(d).*.+.,
 8011f38:	2f1d2dfb 3160303f 339d327f 35d434b9     .-./?0`1.2.3.4.5
 8011f48:	380736ee 3a34391e 3c5b3b48 3e7b3d6c     .6.8.94:H;[<l={>
 8011f58:	40963f89 42aa41a0 44b743b1 46bd45bb     .?.@.A.B.C.D.E.F
 8011f68:	48bc47bd 4ab449b9 4ca44bad 4e8c4d99     .G.H.I.J.K.L.M.N
 8011f78:	506d4f7d 5245515a 5415532e 55dd54fa     }OmPZQER.S.T.T.U
 8011f88:	579c56bd 59525878 5aff5a2a 5ca35bd2     .V.WxXRY*Z.Z.[.\
 8011f98:	5e3e5d72 5fcf5f08 61576094 62d56217     r]>^._._.`Wa.b.b
 8011fa8:	64496390 65b264ff 67126664 686867be     .cId.d.edf.g.ghh
 8011fb8:	69b3690e 6af36a54 6c296b8f 6d546cc0     .i.iTj.j.k)l.lTm
 8011fc8:	6e746de5 6f896f00 7093700f 71927114     .mtn.o.o.p.p.q.q
 8011fd8:	7285720d 736d72fb 744a73dd 751b74b4     .r.r.rms.sJt.t.u
 8011fe8:	75e1757f 769b763f 774976f3 77eb779c     .u.u?v.v.vIw.w.w
 8011ff8:	78827838 790d78c9 798c794e 79ff79c7     8x.x.x.yNy.y.y.y
 8012008:	7a657a34 7ac07a94 7b0f7ae9 7b527b32     4zez.z.z.z.{2{R{
 8012018:	7b897b6f 7bb47ba0 7bd37bc5 7be67bde     o{.{.{.{.{.{.{.{
 8012028:	7bec7bea 7be77beb 7bd67be0 7bb97bc9     .{.{.{.{.{.{.{.{
 8012038:	7b8f7ba5 7b5a7b76 7b197b3b 7acd7af4     .{.{v{Z{;{.{.z.z
 8012048:	7a747aa2 7a107a43 79a079d9 79257964     .ztzCz.z.y.ydy%y
 8012058:	789e78e3 780b7856 776d77be 76c4771a     .x.xVx.x.wmw.w.v
 8012068:	7610766c 755175b2 748674ed 73b1741d     lv.v.uQu.t.t.t.s
 8012078:	72d17343 71e6725d 70f1716d 6ff17072     Cs.r]r.qmq.prp.o
 8012088:	6ee76f6e 6dd36e5e 6cb56d45 6b8c6c22     no.n^n.mEm.l"l.k
 8012098:	6a5a6af4 691e69bd 67d9687d 668a6733     .jZj.i.i}h.g3g.f
 80120a8:	653365e0 63d26483 6268631e 60f561b0     .e3e.d.c.chb.a.`
 80120b8:	5f7a6039 5df75eba 5c6b5d32 5ad75ba2     9`z_.^.]2]k\.[.Z
 80120c8:	593c5a0b 5799586b 55ee56c4 543c5516     .Z<YkX.W.V.U.U<T
 80120d8:	52835360 50c351a4 4efc4fe0 4d2f4e16     `S.R.Q.P.O.N.N/M
 80120e8:	4b5b4c46 49824a6f 47a24892 45bd46b0     FL[KoJ.I.H.G.F.E
 80120f8:	43d244c8 41e242da 3fed40e8 3df33ef0     .D.C.B.A.@.?.>.=
 8012108:	3bf43cf4 39f13af3 37ea38ee 35df36e5     .<.;.:.9.8.7.6.5
 8012118:	33d034d8 31bd32c7 2fa730b3 2d8f2e9b     .4.3.2.1.0./...-
 8012128:	2b732c81 29542a64 27342844 25112622     .,s+d*T)D(4'"&.%
 8012138:	22ec23ff 20c521d9 1e9d1fb1 1c741d88     .#.".!. ......t.
 8012148:	1a491b5f 181e1934 15f21708 13c614dc     _.I.4...........
 8012158:	119912b0 0f6d1083 0d410e57 0b160c2b     ......m.W.A.+...
 8012168:	08eb0a00 06c107d6 049905ad 02720385     ..............r.
 8012178:	004c015f fe29ff3a fc07fd18 f9e8faf7     _.L.:.).........
 8012188:	f7cbf8d9 f5b1f6be f39af4a5 f186f290     ................
 8012198:	ef76f07d ed68ee6f eb5fec63 e95aea5c     }.v.o.h.c._.\.Z.
 80121a8:	e758e859 e55ce659 e363e45f e16fe269     Y.X.Y.\._.c.i.o.
 80121b8:	df81e077 dd97de8b dbb2dca4 d9d3dac2     w...............
 80121c8:	d7fad8e6 d626d70f d459d53f d291d374     ......&.?.Y.t...
 80121d8:	d0d0d1b0 cf15cff2 cd61ce3a cbb3cc89     ........:.a.....
 80121e8:	ca0dcadf c86dc93c c6d5c7a0 c544c60c     ....<.m.......D.
 80121f8:	c3bbc47f c239c2f9 c0bfc17b bf4cc005     ......9.{.....L.
 8012208:	bde2be96 bc80bd30 bb26bbd2 b9d4ba7c     ....0.....&.|...
 8012218:	b88bb92e b74ab7e9 b612b6ad b4e2b579     ......J.....y...
 8012228:	b3bcb44e b29eb32c b189b212 b07db102     N...,.........}.
 8012238:	af7baffb ae81aefd ad91ae08 acaaad1c     ..{.............
 8012248:	abccac3a aaf8ab61 aa2daa91 a96ca9cb     :...a.....-...l.
 8012258:	a8b4a90f a806a85c a761a7b2 a6c6a712     ....\.....a.....
 8012268:	a634a67c a5ada5ef a52ea56c a4baa4f3     |.4.....l.......
 8012278:	a44fa483 a3eea41d a396a3c1 a348a36e     ..O.........n.H.
 8012288:	a304a325 a2caa2e6 a298a2b0 a271a284     %.............q.
 8012298:	a253a261 a23fa248 a234a238 a232a232     a.S.H.?.8.4.2.2.
 80122a8:	a23aa235 a24ba241 a265a257 a289a276     5.:.A.K.W.e.v...
 80122b8:	a2b5a29e a2eba2cf a32aa309 a372a34d     ..........*.M.r.
 80122c8:	a3c2a399 a41ba3ee a47da44b a4e8a4b2     ........K.}.....
 80122d8:	a55ba521 a5d7a598 a65aa618 a6e7a69f     !.[.......Z.....
 80122e8:	a77ba730 a817a7c8 a8bba868 a967a910     0.{.....h.....g.
 80122f8:	aa1aa9bf aad5aa77 ab98ab36 ac61abfc     ....w...6.....a.
 8012308:	ad32acc9 ae0aad9d aee9ae79 afcfaf5b     ..2.....y...[...
 8012318:	b0bbb044 b1aeb133 b2a7b229 b3a6b326     D...3...)...&...
 8012328:	b4abb428 b5b7b530 b6c8b63e b7deb752     (...0...>...R...
 8012338:	b8fab86c ba1cb98a bb42baae bc6ebbd7     l.........B...n.
 8012348:	bd9ebd05 bed3be38 c00cbf6f c14ac0ab     ....8...o.....J.
 8012358:	c28cc1eb c3d2c32f c51cc477 c669c5c2     ..../...w.....i.
 8012368:	c7bac711 c90fc864 ca66c9ba cbc1cb13     ....d.....f.....
 8012378:	cd1ecc6f ce7ecdce cfe0cf2f d145d092     o.....~./.....E.
 8012388:	d2acd1f8 d415d360 d57fd4ca d6ebd635     ....`.......5...
 8012398:	d859d7a2 d9c8d910 db38da80 dca9dbf1     ..Y.......8.....
 80123a8:	de1bdd62 df8dded4 e100e047 e273e1ba     b.......G.....s.
 80123b8:	e3e6e32d e55ae4a0 e6cce613 e83fe786     -.....Z.......?.
 80123c8:	e9b1e8f8 eb22ea6a ec92ebda ee02ed4a     ....j.".....J...
 80123d8:	ef70eeb9 f0ddf027 f248f193 f3b2f2fd     ..p.'.....H.....
 80123e8:	f51af466 f67ff5cd f7e3f732 f945f894     f.......2.....E.
 80123f8:	faa4f9f5 fc01fb53 fd5bfcae feb2fe07     ....S.....[.....
 8012408:	0006ff5c 015800af 02a601ff 03f0034b     \.....X.....K...
 8012418:	05380494 067b05da 07bb071c 08f8085a     ..8...{.....Z...
 8012428:	0a300994 0b640acb 0c950bfd 0dc10d2b     ..0...d.....+...
 8012438:	0ee80e55 100c0f7a 112a109b 124411b8     U...z.....*...D.
 8012448:	135a12cf 146a13e2 157614f0 167c15fa     ..Z...j...v...|.
 8012458:	177e16fe 187a17fd 197218f7 1a6319eb     ..~...z...r...c.
 8012468:	1b501ada 1c371bc4 1d191ca9 1df51d88     ..P...7.........
 8012478:	1ecc1e61 1f9d1f35 20682003 212e20cc     a...5.... h . .!
 8012488:	21ee218e 22a8224b 235c2302 240a23b4     .!.!K".".#\#.#.$
 8012498:	24b2245f 25552504 25f125a4 2688263d     _$.$.%U%.%.%=&.&
 80124a8:	271826d1 27a3275e 282827e6 28a62868     .&.'^'.'.'((h(.(
 80124b8:	291f28e3 29912959 29fe29c8 2a642a32     .(.)Y).).).)2*d*
 80124c8:	2ac52a95 2b1f2af2 2b742b4a 2bc22b9c     .*.*.*.+J+t+.+.+
 80124d8:	2c0b2be7 2c4d2c2d 2c8a2c6d 2cc12ca7     .+.,-,M,m,.,.,.,
 80124e8:	2cf22cdb 2d1e2d09 2d442d31 2d642d54     .,.,.-.-1-D-T-d-
 80124f8:	2d7e2d71 2d922d89 2da22d9b 2dab2da7     q-~-.-.-.-.-.-.-
 8012508:	2daf2dae 2dae2daf 2da82dac 2d9c2da2     .-.-.-.-.-.-.-.-
 8012518:	2d8b2d94 2d742d80 2d592d67 2d392d4a     .-.-.-t-g-Y-J-9-
 8012528:	2d142d27 2ce92cff 2cbb2cd3 2c872ca1     '-.-.,.,.,.,.,.,
 8012538:	2c4f2c6b 2c122c31 2bd12bf2 2b8b2baf     k,O,1,.,.+.+.+.+
 8012548:	2b412b67 2af32b1b 2aa12acb 2a4b2a77     g+A+.+.*.*.*w*K*
 8012558:	29f12a1e 299329c2 29312963 28cc28ff     .*.).).)c)1).(.(
 8012568:	28632898 27f7282e 278827c0 2715274f     .(c(.(.'.'.'O'.'
 8012578:	269f26db 26262663 25ab25e9 252c256c     .&.&c&&&.%.%l%,%
 8012588:	24ab24ec 24272469 23a123e4 2318235d     .$.$i$'$.#.#]#.#
 8012598:	228e22d3 22012247 217221b9 20e12129     ."."G".".!r!)!. 
 80125a8:	204e2097 1fb92004 1f231f6f 1e8c1ed8     . N . ..o.#.....
 80125b8:	1df31e40 1d591da6 1cbe1d0b 1c211c6f     @.....Y.....o.!.
 80125c8:	1b841bd3 1ae61b35 1a471a97 19a819f7     ....5.....G.....
 80125d8:	19081958 186818b8 17c71817 17261777     X.....h.....w.&.
 80125e8:	168616d6 15e51635 15441594 14a414f4     ....5.....D.....
 80125f8:	14041454 136413b4 12c51315 12271276     T.....d.....v.'.
 8012608:	118911d8 10ec113b 1050109e 0fb51003     ....;.....P.....
 8012618:	0f1c0f68 0e830ecf 0dec0e37 0d560da1     h.......7.....V.
 8012628:	0cc10d0b 0c2e0c78 0b9d0be6 0b0d0b55     ....x.......U...
 8012638:	0a800ac6 09f40a39 096a09ae 08e20925     ....9.....j.%...
 8012648:	085c089e 07d80819 07560797 06d70716     ..\.......V.....
 8012658:	065a0698 05df061c 056705a3 04f1052c     ..Z.......g.,...
 8012668:	047e04b7 040e0445 03a003d6 0335036a     ..~.E.......j.5.
 8012678:	02cc0300 02670299 02040235 01a401d4     ......g.5.......
 8012688:	01470175 00ed011a 009600c1 0042006c     u.G.........l.B.
 8012698:	fff10019 ffa3ffca ff58ff7d ff11ff34     ........}.X.4...
 80126a8:	feccfeee fe8bfeab fe4cfe6b fe11fe2e     ........k.L.....
 80126b8:	fdd9fdf5 fda4fdbe fd73fd8b fd44fd5b     ..........s.[.D.
 80126c8:	fd19fd2e fcf1fd04 fcccfcde fcaafcba     ................
 80126d8:	fc8bfc9a fc70fc7d fc57fc63 fc42fc4c     ....}.p.c.W.L.B.
 80126e8:	fc30fc38 fc21fc28 fc14fc1a fc0bfc0f     8.0.(.!.........
 80126f8:	fc05fc08 fc02fc03 fc02fc01 fc04fc03     ................
 8012708:	fc0afc07 fc12fc0e fc1dfc17 fc2bfc24     ............$.+.
 8012718:	fc3cfc33 fc4ffc45 fc65fc59 fc7dfc70     3.<.E.O.Y.e.p.}.
 8012728:	fc98fc8a fcb5fca6 fcd5fcc5 fcf7fce5     ................
 8012738:	fd1bfd09 fd42fd2e fd6afd56 fd95fd7f     ......B.V.j.....
 8012748:	fdc2fdab fdf1fdd9 fe21fe09 fe54fe3b     ..........!.;.T.
 8012758:	fe88fe6e febffea3 fef6feda ff30ff13     n.............0.
 8012768:	ff6bff4d ffa7ff88 ffe4ffc5 00230004     M.k...........#.
 8012778:	00630043 00a50084 00e700c6 012a0109     C.c...........*.
 8012788:	016e014c 01b30191 01f901d6 0240021c     L.n...........@.
 8012798:	02870263 02ce02aa 031602f2 035e033a     c...........:.^.
 80127a8:	03a70383 03f003cb 04390414 0482045d     ..........9.]...
 80127b8:	04ca04a6 051304ef 055c0537 05a40580     ........7.\.....
 80127c8:	05ec05c8 06330610 067a0657 06c0069d     ......3.W.z.....
 80127d8:	070606e3 074b0728 078f076d 07d207b0     ....(.K.m.......
 80127e8:	081407f3 08550834 08950875 08d308b4     ....4.U.u.......
 80127f8:	091108f2 094d092f 0987096a 09c109a4     ..../.M.j.......
 8012808:	09f809dd 0a2e0a13 0a620a48 0a950a7c     ........H.b.|...
 8012818:	0ac50aad 0af40add 0b210b0b 0b4c0b37     ..........!.7.L.
 8012828:	0b750b61 0b9b0b88 0bc00bae 0be20bd1     a.u.............
 8012838:	0c020bf2 0c200c11 0c3b0c2e 0c540c48     ...... ...;.H.T.
 8012848:	0c6a0c5f 0c7e0c75 0c8f0c87 0c9e0c97     _.j.u.~.........
 8012858:	0caa0ca5 0cb40caf 0cba0cb7 0cbe0cbd     ................
 8012868:	0cc00cbf 0cbe0cbf 0cba0cbc 0cb20cb6     ................
 8012878:	0ca80cae 0c9b0ca2 0c8b0c94 0c790c82     ..............y.
 8012888:	0c630c6e 0c4a0c57 0c2e0c3c 0c0f0c1f     n.c.W.J.<.......
 8012898:	0bee0bff 0bc90bdc 0ba10bb6 0b770b8c     ..............w.
 80128a8:	0b490b60 0b180b31 0ae50aff 0aae0aca     `.I.1...........
 80128b8:	0a740a91 0a380a56 09f80a18 09b609d7     ..t.V.8.........
 80128c8:	09700993 0928094c 08dd0903 088f08b6     ..p.L.(.........
 80128d8:	083e0867 07ea0814 079407bf 073b0768     g.>.........h.;.
 80128e8:	06df070d 068006b0 061f0650 05bb05ed     ........P.......
 80128f8:	05550588 04ec0521 048104b7 0413044a     ..U.!.......J...
 8012908:	03a303db 0331036a 02bc02f7 02450281     ....j.1.......E.
 8012918:	01cc0209 0151018f 00d40113 00550094     ......Q.......U.
 8012928:	ffd30014 ff50ff92 feccff0e fe45fe89     ......P.......E.
 8012938:	fdbdfe01 fd33fd78 fca8fcee fc1bfc61     ....x.3.....a...
 8012948:	fb8dfbd4 fafdfb45 fa6cfab5 f9dafa24     ....E.....l.$...
 8012958:	f947f991 f8b3f8fe f81ef869 f789f7d4     ..G.....i.......
 8012968:	f6f2f73d f65bf6a6 f5c3f60f f52af576     =.....[.....v.*.
 8012978:	f491f4de f3f8f444 f35ef3ab f2c4f311     ....D.....^.....
 8012988:	f22af277 f190f1dd f0f6f143 f05df0aa     w.*.....C.....].
 8012998:	efc3f010 ef2aef76 ee91eedd edf9ee45     ....v.*.....E...
 80129a8:	ed61edad ecc9ed15 ec33ec7e eb9debe8     ..a.....~.3.....
 80129b8:	eb09eb53 ea75eabf e9e2ea2c e951e99a     S.....u.,.....Q.
 80129c8:	e8c1e909 e832e879 e7a4e7eb e719e75e     ....y.2.....^...
 80129d8:	e68ee6d3 e606e64a e57fe5c2 e4fae53c     ....J.......<...
 80129e8:	e476e4b8 e3f5e436 e376e3b5 e2f9e337     ..v.6.....v.7...
 80129f8:	e27ee2bc e206e242 e190e1cb e11de156     ..~.B.......V...
 8012a08:	e0ace0e4 e03de074 dfd1e007 df68df9d     ....t.=.......h.
 8012a18:	df02df35 de9fded0 de3ede6e dde1de0f     5.......n.>.....
 8012a28:	dd87ddb4 dd30dd5b dcdcdd05 dc8bdcb3     ....[.0.........
 8012a38:	dc3edc64 dbf3dc18 dbaddbd0 db6adb8b     d.>...........j.
 8012a48:	db2adb49 daeedb0b dab5dad1 da80da9a     I.*.............
 8012a58:	da4fda67 da22da38 d9f8da0d d9d2d9e5     g.O.8.".........
 8012a68:	d9b0d9c1 d992d9a1 d978d985 d962d96c     ..........x.l.b.
 8012a78:	d950d958 d941d948 d937d93c d931d933     X.P.H.A.<.7.3.1.
 8012a88:	d92fd92f d930d92f d936d933 d940d93b     /././.0.3.6.;.@.
 8012a98:	d94fd947 d961d957 d977d96c d992d984     G.O.W.a.l.w.....
 8012aa8:	d9b0d9a1 d9d3d9c1 d9fad9e6 da25da0f     ..............%.
 8012ab8:	da54da3c da88da6e dabfdaa3 dafadadc     <.T.n...........
 8012ac8:	db3adb1a db7edb5b dbc5dba1 dc11dbea     ..:.[.~.........
 8012ad8:	dc60dc38 dcb4dc8a dd0bdcdf dd67dd38     8.`.........8.g.
 8012ae8:	ddc6dd96 de29ddf7 de90de5c defadec5     ......).\.......
 8012af8:	df69df31 dfdbdfa1 e050e015 e0cae08c     1.i.......P.....
 8012b08:	e146e107 e1c6e186 e24ae208 e2d1e28d     ..F.......J.....
 8012b18:	e35ce316 e3e9e3a2 e47ae431 e50ee4c4     ..\.....1.z.....
 8012b28:	e5a5e559 e63fe5f2 e6dce68d e77ce72c     Y.....?.....,.|.
 8012b38:	e81fe7cd e8c4e871 e96ce918 ea17e9c2     ....q.....l.....
 8012b48:	eac5ea6e eb74eb1c ec26ebcd ecdbec80     n.....t...&.....
 8012b58:	ed91ed36 ee4aedee ef05eea7 efc2ef63     6.....J.....c...
 8012b68:	f080f021 f141f0e0 f203f1a2 f2c7f265     !.....A.....e...
 8012b78:	f38cf329 f453f3ef f51bf4b7 f5e5f580     ).....S.........
 8012b88:	f6aff64a f77bf715 f848f7e1 f915f8ae     J.....{...H.....
 8012b98:	f9e4f97c fab3fa4b fb82fb1a fc53fbea     |...K.........S.
 8012ba8:	fd23fcbb fdf4fd8c fec5fe5d ff97ff2e     ..#.....].......
 8012bb8:	0068ffff 013a00d1 020b01a2 02dc0273     ..h...:.....s...
 8012bc8:	03ac0344 047d0415 054c04e5 061b05b4     D.....}...L.....
 8012bd8:	06ea0683 07b70751 0884081e 095008ea     ....Q.........P.
 8012be8:	0a1a09b5 0ae40a7f 0bac0b48 0c730c10     ........H.....s.
 8012bf8:	0d380cd6 0dfc0d9a 0ebe0e5d 0f7f0f1f     ..8.....].......
 8012c08:	103d0fde 10fa109c 11b51158 126e1211     ..=.....X.....n.
 8012c18:	132412c9 13d9137f 148b1432 153a14e3     ..$.....2.....:.
 8012c28:	15e81591 1693163d 173b16e7 17e0178e     ....=.....;.....
 8012c38:	18831832 192318d3 19c01972 1a5a1a0d     2.....#.r.....Z.
 8012c48:	1af11aa6 1b851b3b 1c161bce 1ca31c5d     ....;.......]...
 8012c58:	1d2e1ce9 1db51d72 1e391df7 1eb91e79     ....r.....9.y...
 8012c68:	1f351ef8 1faf1f73 20241fea 2096205e     ..5.s.....$ ^ . 
 8012c78:	210520ce 216f213a 21d621a3 22392208     . .!:!o!.!.!."9"
 8012c88:	22982269 22f422c7 234b2320 239f2375     i"."."." #K#u#.#
 8012c98:	23ee23c7 243a2415 2481245e 24c524a4     .#.#.$:$^$.$.$.$
 8012ca8:	250524e5 25402523 2577255c 25ab2591     .$.%#%@%\%w%.%.%
 8012cb8:	25da25c3 260525f0 262c2619 264f263e     .%.%.%.&.&,&>&O&
 8012cc8:	266d265e 2688267b 269e2693 26b026a8     ^&m&{&.&.&.&.&.&
 8012cd8:	26bf26b8 26c926c4 26cf26cc 26d026d0     .&.&.&.&.&.&.&.&
 8012ce8:	26ce26d0 26c826cc 26be26c3 26af26b7     .&.&.&.&.&.&.&.&
 8012cf8:	269d26a7 26872693 266d267a 264f265e     .&.&.&.&z&m&^&O&
 8012d08:	262d263e 2607261a 25dd25f2 25b025c7     >&-&.&.&.%.%.%.%
 8012d18:	257f2598 254a2565 2511252e 24d524f4     .%.%e%J%.%.%.$.$
 8012d28:	249524b6 24522474 240c242f 23c123e7     .$.$t$R$/$.$.#.#
 8012d38:	2374239b 2323234c 22cf22fa 227822a4     .#t#L###."."."x"
 8012d48:	221e224b 21c121f0 21602191 20fd212f     K".".!.!.!`!/!. 
 8012d58:	209720ca 202e2062 1fc21ff8 1f531f8b     . . b . ......S.
 8012d68:	1ee21f1b 1e6f1ea9 1df91e34 1d811dbd     ......o.4.......
 8012d78:	1d061d43 1c891cc8 1c0a1c4a 1b891bc9     C.......J.......
 8012d88:	1b051b47 1a801ac3 19f91a3d 197119b5     G.......=.....q.
 8012d98:	18e6192c 185b18a1 17cd1814 173e1786     ,.....[.......>.
 8012da8:	16ae16f6 161d1665 158a15d3 14f61540     ....e.......@...
 8012db8:	146214ac 13cc1417 13361381 129e12ea     ..b.......6.....
 8012dc8:	12061252 116e11ba 10d51122 103c1089     R.....n.".....<.
 8012dd8:	0fa20fef 0f090f55 0e6f0ebc 0dd50e22     ....U.....o."...
 8012de8:	0d3b0d88 0ca10cee 0c070c54 0b6e0bbb     ..;.....T.....n.
 8012df8:	0ad50b21 0a3c0a89 09a409f0 090d0959     !.....<.....Y...
 8012e08:	087608c2 07e1082b 074c0796 06b80701     ..v.+.....L.....
 8012e18:	0625066e 059305db 0502054a 047204ba     n.%.....J.....r.
 8012e28:	03e4042b 0357039e 02cc0311 02420287     +.....W.......B.
 8012e38:	01ba01fe 01330176 00af00f1 002c006d     ....v.3.....m.,.
 8012e48:	ffaaffeb ff2bff6b feaefeec fe33fe70     ....k.+.....p.3.
 8012e58:	fdbafdf6 fd43fd7e fccefd08 fc5cfc95     ....~.C.......\.
 8012e68:	fbecfc24 fb7efbb5 fb13fb48 faaafade     $.....~.H.......
 8012e78:	fa44fa77 f9e0fa12 f97ff9af f920f94f     w.D.........O. .
 8012e88:	f8c4f8f2 f86bf897 f815f840 f7c1f7eb     ......k.@.......
 8012e98:	f770f798 f722f749 f6d7f6fc f68ff6b3     ..p.I.".........
 8012ea8:	f649f66c f607f628 f5c7f5e7 f58bf5a9     l.I.(...........
 8012eb8:	f551f56e f51af535 f4e7f500 f4b6f4ce     n.Q.5...........
 8012ec8:	f488f49f f45ef473 f436f449 f411f423     ....s.^.I.6.#...
 8012ed8:	f3f0f400 f3d1f3e0 f3b5f3c3 f39cf3a8     ................
 8012ee8:	f386f391 f374f37d f364f36b f357f35d     ....}.t.k.d.].W.
 8012ef8:	f34df351 f345f349 f341f343 f33ff340     Q.M.I.E.C.A.@.?.
 8012f08:	f341f340 f345f342 f34bf348 f355f350     @.A.B.E.H.K.P.U.
 8012f18:	f361f35a f370f368 f381f378 f395f38a     Z.a.h.p.x.......
 8012f28:	f3abf3a0 f3c4f3b7 f3dff3d1 f3fdf3ee     ................
 8012f38:	f41df40d f43ff42e f464f451 f48af477     ......?.Q.d.w...
 8012f48:	f4b3f49e f4def4c8 f50bf4f4 f53af522     ............".:.
 8012f58:	f56af552 f59df583 f5d1f5b7 f607f5ec     R.j.............
 8012f68:	f63ef622 f678f65b f6b2f695 f6eef6d0     ".>.[.x.........
 8012f78:	f72cf70d f76af74b f7aaf78a f7ebf7cb     ..,.K.j.........
 8012f88:	f82df80c f870f84f f8b4f892 f8f9f8d7     ..-.O.p.........
 8012f98:	f93ff91c f985f962 f9ccf9a8 fa13f9ef     ..?.b...........
 8012fa8:	fa5bfa37 faa3fa7f faecfac8 fb35fb10     7.[...........5.
 8012fb8:	fb7dfb59 fbc6fba2 fc0ffbeb fc58fc34     Y.}.........4.X.
 8012fc8:	fca1fc7c fce9fcc5 fd31fd0d fd78fd55     |.........1.U.x.
 8012fd8:	fdbffd9c fe06fde3 fe4cfe29 fe91fe6e     ........).L.n...
 8012fe8:	fed5feb3 ff18fef6 ff5aff39 ff9cff7b     ........9.Z.{...
 8012ff8:	ffdcffbc 001bfffb 0058003a 00940077     ........:.X.w...
 8013008:	00cf00b2 010900ec 01400125 0177015c     ........%.@.\.w.
 8013018:	01ab0191 01de01c4 020e01f6 023d0226     ............&.=.
 8013028:	026a0254 02950280 02bd02a9 02e402d1     T.j.............
 8013038:	030802f6 032a031a 034a033a 03670359     ......*.:.J.Y.g.
 8013048:	03820375 039a038f 03b003a6 03c303ba     u...............
 8013058:	03d403cc 03e203db 03ed03e8 03f503f1     ................
 8013068:	03fb03f8 03fd03fc 03fd03fe 03fa03fc     ................
 8013078:	03f403f7 03eb03f0 03de03e5 03cf03d7     ................
 8013088:	03bd03c7 03a803b3 038f039c 03740382     ..............t.
 8013098:	03550365 03330345 030e0321 02e602fb     e.U.E.3.!.......
 80130a8:	02bb02d1 028c02a4 025b0274 02260241     ........t.[.A.&.
 80130b8:	01ee020a 01b301d1 01740194 01330154     ..........t.T.3.
 80130c8:	00ee0111 00a700cb 005c0082 000e0035     ..........\.5...
 80130d8:	ffbdffe6 ff69ff93 ff12ff3e feb8fee5     ......i.>.......
 80130e8:	fe5bfe8a fdfbfe2b fd98fdca fd33fd66     ..[.+.......f.3.
 80130f8:	fccafcff fc5ffc95 fbf1fc29 fb81fbba     ......_.).......
 8013108:	fb0efb48 fa98fad3 fa20fa5c f9a5f9e3     H.......\. .....
 8013118:	f928f967 f8a9f8e9 f827f868 f7a3f7e6     g.(.....h.'.....
 8013128:	f71df761 f695f6da f60bf651 f57ff5c6     a.......Q.......
 8013138:	f4f2f539 f462f4aa f3d1f419 f33ef387     9.....b.......>.
 8013148:	f2a9f2f4 f213f25e f17cf1c8 f0e3f130     ....^.....|.0...
 8013158:	f04af097 efafeffc ef13ef61 ee76eec4     ..J.....a.....v.
 8013168:	edd8ee27 ed3aed89 ec9becea ebfbec4b     '.....:.....K...
 8013178:	eb5bebab eabbeb0b ea1aea6b e979e9ca     ..[.....k.....y.
 8013188:	e8d9e929 e838e888 e797e7e8 e6f7e747     ).....8.....G...
 8013198:	e657e6a7 e5b8e608 e519e568 e47be4ca     ..W.....h.....{.
 80131a8:	e3dee42c e341e390 e2a6e2f4 e20ce259     ,.....A.....Y...
 80131b8:	e173e1bf e0dce127 e046e090 dfb1dffb     ..s.'.....F.....
 80131c8:	df1edf68 de8dded6 ddfede46 dd71ddb8     h.......F.....q.
 80131d8:	dce7dd2c dc5edca2 dbd8dc1b db54db96     ,.....^.......T.
 80131e8:	dad3db13 da54da93 d9d9da16 d960d99c     ......T.......`.
 80131f8:	d8ead924 d877d8b0 d808d83f d79cd7d1     $.....w.?.......
 8013208:	d733d767 d6ced700 d66cd69c d60ed63d     g.3.......l.=...
 8013218:	d5b4d5e1 d55ed588 d50cd534 d4bed4e4     ......^.4.......
 8013228:	d474d498 d42ed450 d3edd40d d3b0d3ce     ..t.P...........
 8013238:	d378d394 d344d35e d316d32c d2ebd300     ..x.^.D.,.......
 8013248:	d2c6d2d8 d2a6d2b5 d28bd298 d274d27f     ..............t.
 8013258:	d263d26b d257d25d d251d253 d250d250     k.c.].W.S.Q.P.P.
 8013268:	d254d251 d25dd258 d26dd264 d281d276     Q.T.X.].d.m.v...
 8013278:	d29bd28e d2bbd2ab d2e1d2ce d30dd2f6     ................
 8013288:	d33ed324 d375d358 d3b2d392 d3f4d3d2     $.>.X.u.........
 8013298:	d43dd418 d48bd463 d4e0d4b5 d53ad50d     ..=.c.........:.
 80132a8:	d59bd56a d601d5cd d66ed637 d6e0d6a6     j.......7.n.....
 80132b8:	d759d71c d7d7d797 d85cd819 d8e7d8a1     ..Y.......\.....
 80132c8:	d977d92e da0ed9c2 daaada5b db4ddafb     ..w.....[.....M.
 80132d8:	dbf5dba0 dca3dc4b dd57dcfd de11ddb4     ....K.....W.....
 80132e8:	ded1de71 df97df33 e062dffc e133e0ca     q...3.....b...3.
 80132f8:	e20ae19e e2e6e277 e3c8e356 e4afe43b     ....w...V...;...
 8013308:	e59ce525 e68de614 e785e708 e881e802     %...............
 8013318:	e983e901 ea89ea05 eb95eb0f eca5ec1d     ................
 8013328:	edbbed30 eed5ee47 eff3ef64 f117f085     0...G...d.......
 8013338:	f23ef1aa f36af2d4 f49bf402 f5cff534     ..>...j.....4...
 8013348:	f707f66b f844f7a5 f984f8e3 fac7fa25     k.....D.....%...
 8013358:	fc0ffb6b fd59fcb4 fea7fe00 fff9ff50     k.....Y.....P...
 8013368:	014d00a3 02a401f8 03fe0351 055b04ac     ..M.....Q.....[.
 8013378:	06ba060a 081c076b 098008cd 0ae50a32     ....k.......2...
 8013388:	0c4d0b99 0db70d02 0f220e6c 108f0fd8     ..M.....l.".....
 8013398:	11fd1146 136d12b5 14dd1425 164e1595     F.....m.%.....N.
 80133a8:	17c01707 19331879 1aa519ec 1c191b5f     ....y.3....._...
 80133b8:	1d8c1cd2 1eff1e45 20721fb8 21e4212b     ....E.....r +!.!
 80133c8:	2356229d 24c7240e 2637257f 27a626ef     ."V#.$.$.%7&.&.'
 80133d8:	2914285d 2a8029ca 2bea2b35 2d532c9f     ](.).).*5+.+.,S-
 80133e8:	2eba2e07 301f2f6d 318130d0 32e13231     ....m/.0.0.112.2
 80133f8:	343e3390 359934ec 36f03645 3845379b     .3>4.4.5E6.6.7E8
 8013408:	399638ee 3ae33a3d 3c2d3b88 3d733cd0     .8.9=:.:.;-<.<s=
 8013418:	3eb53e14 3ff33f54 412c4090 426141c7     .>.>T?.?.@,A.AaB
 8013428:	439142fa 44bd4428 45e34551 47054675     .B.C(D.DQE.EuF.G
 8013438:	48214793 493748ad 4a4849c1 4b544acf     .G!H.H7I.IHJ.JTK
 8013448:	4c594bd7 4d584cd9 4e514dd6 4f444ecc     .KYL.LXM.MQN.NDO
 8013458:	50304fbb 511650a4 51f55186 52cd5262     .O0P.P.Q.Q.QbR.R
 8013468:	539e5336 54675403 552a54c9 55e55588     6S.S.TgT.T*U.U.U
 8013478:	56985640 574456ef 57e85797 58845837     @V.V.VDW.W.W7X.X
 8013488:	591858cf 59a55960 5a2859e7 5aa45a67     .X.Y`Y.Y.Y(ZgZ.Z
 8013498:	5b175ade 5b825b4d 5be45bb4 5c3d5c11     .Z.[M[.[.[.[.\=\
 80134a8:	5c8d5c66 5cd55cb2 5d145cf6 5d4a5d30     f\.\.\.\.\.]0]J]
 80134b8:	5d765d61 5d9a5d89 5db45da8 5dc55dbe     a]v].].].].].].]
 80134c8:	5dcd5dca 5dcb5dcd 5dc05dc7 5dac5db7     .].].].].].].].]
 80134d8:	5d8e5d9e 5d675d7b 5d355d4f 5cfb5d19     .].]{]g]O]5].].\
 80134e8:	5cb75cda 5c695c91 5c115c3e 5bb05be2     .\.\.\i\>\.\.[.[
 80134f8:	5b455b7c 5ad15b0c 5a525a93 59cb5a10     |[E[.[.Z.ZRZ.Z.Y
 8013508:	59395983 589e58ed 57f9584d 574b57a3     .Y9Y.X.XMX.W.WKW
 8013518:	569356f0 55d25634 5507556e 5433549e     .V.V4V.UnU.U.T3T
 8013528:	535553c5 526e52e3 517e51f7 50845102     .SUS.RnR.Q~Q.Q.P
 8013538:	4f825004 4e764efd 4d614ded 4c434cd3     .P.O.NvN.MaM.LCL
 8013548:	4b1d4bb1 49ed4a86 48b54952 47744816     .K.K.J.IRI.H.HtG
 8013558:	462b46d1 44d94583 437f442d 421d42cf     .F+F.E.D-D.C.B.B
 8013568:	40b34169 3f403ffa 3dc63e84 3c443d06     iA.@.?@?.>.=.=D<
 8013578:	3abb3b80 392a39f3 3792385f 35f236c3     .;.:.9*9_8.7.6.5
 8013588:	344c3520 329e3376 30ea31c5 2f2f300d      5L4v3.2.1.0.0//
 8013598:	2d6e2e4f 2ba62c8b 29d92ac0 280528f0     O.n-.,.+.*.).(.(
 80135a8:	262c2719 244d253d 2268235b 207e2174     .',&=%M$[#h"t!~ 
 80135b8:	1e901f88 1c9c1d96 1aa31ba0 18a719a6     ................
 80135c8:	16a517a6 14a015a3 1297139c 10891190     ................
 80135d8:	0e790f82 0c650d6f 0a4e0b5a 08340941     ..y.o.e.Z.N.A.4.
 80135e8:	06170726 03f80508 01d602e7 ffb300c5     &...............
 80135f8:	fd8dfea0 fb66fc7a f93efa52 f714f829     ....z.f.R.>.)...
 8013608:	f4e9f5ff f2bef3d4 f092f1a8 ee66ef7c     ............|.f.
 8013618:	ec39ed4f ea0deb23 e7e1e8f7 e5b6e6cb     O.9.#...........
 8013628:	e38be4a0 e162e277 df3ae04e dd13de26     ....w.b.N.:.&...
 8013638:	daeedc00 d8cbd9dd d6abd7bb d48cd59b     ................
 8013648:	d270d37e d058d164 ce42cf4c cc2fcd38     ~.p.d.X.L.B.8./.
 8013658:	ca20cb27 c815c91a c60ec711 c40bc50c     '. .............
 8013668:	c20cc30b c012c10f be1dbf17 bc2dbd25     ............%.-.
 8013678:	ba42bb37 b85db94f b67db76d b4a4b590     7.B.O.].m.}.....
 8013688:	b2d0b3b9 b103b1e9 af3cb01f ad7cae5b     ..........<.[.|.
 8013698:	abc3ac9f aa11aae9 a866a93b a6c3a794     ........;.f.....
 80136a8:	a528a5f4 a394a45d a208a2cd a085a145     ..(.].......E...
 80136b8:	9f0a9fc6 9d979e4f 9c2d9ce1 9acc9b7c     ....O.....-.|...
 80136c8:	99759a1f 982698cc 96e19782 95a59642     ..u...&.....B...
 80136d8:	9473950b 934a93dd 922c92ba 911891a1     ..s...J...,.....
 80136e8:	900e9091 8f0e8f8d 8e198e92 8d2e8da2     ................
 80136f8:	8c4e8cbc 8b798be2 8aae8b12 89ef8a4d     ..N...y.....M...
 8013708:	893b8993 889288e5 87f48841 876187a9     ..;.....A.....a.
 8013718:	86da871c 865f869b 85ef8626 858b85bc     ......_.&.......
 8013728:	8532855d 84e6850b 84a584c4 84708489     ].2...........p.
 8013738:	8446845a 84298436 8418841f 84138414     Z.F.6.).........
 8013748:	84198415 842c8421 844b843a 8476845f     ....!.,.:.K._.v.
 8013758:	84ad8490 84f084cd 853f8516 859a856b     ..........?.k...
 8013768:	860085cb 86738638 86f286b1 877d8736     ....8.s.....6.}.
 8013778:	881487c7 88b68863 8964890c 8a1e89c0     ....c.....d.....
 8013788:	8ae48a80 8bb58b4b 8c928c22 8d7a8d04     ....K...".....z.
 8013798:	8e6d8df2 8f6c8eeb 90768ff0 918b90ff     ..m...l...v.....
 80137a8:	92ab921a 93d6933f 950c9470 964c95ab     ....?...p.....L.
 80137b8:	979796f1 98ed9841 9a4d999b 9bb69b00     ....A.....M.....
 80137c8:	9d2a9c6f 9ea89de8 a0309f6b a1c1a0f7     o.*.....k.0.....
 80137d8:	a35ca28d a500a42d a6ada5d5 a863a787     ..\.-.........c.
 80137e8:	aa22a942 abeaab05 adbaacd1 af92aea5     B.".............
 80137f8:	b173b082 b35bb266 b54bb452 b743b646     ..s.f.[.R.K.F.C.
 8013808:	b942b842 bb48ba44 bd55bc4e bf69be5f     B.B.D.H.N.U._.i.
 8013818:	c184c076 c3a4c293 c5cbc4b7 c7f8c6e1     v...............
 8013828:	ca2bc911 cc62cb46 ce9fcd80 d0e2cfc0     ..+.F.b.........
 8013838:	d329d204 d574d44e d7c4d69b da18d8ed     ..).N.t.........
 8013848:	dc6fdb43 decbdd9c e129dff9 e38be25a     C.o.......).Z...
 8013858:	e5f0e4bd e857e723 eac1e98c ed2debf6     ....#.W.......-.
 8013868:	ef9bee63 f20af0d2 f47bf342 f6edf5b4     c.......B.{.....
 8013878:	f960f826 fbd4fa9a fe48fd0e 00bcff82     &.`.......H.....
 8013888:	033001f6 05a4046a 081706de 0a8a0951     ..0.j.......Q...
 8013898:	0cfb0bc3 0f6b0e33 11da10a3 14461310     ....3.k.......F.
 80138a8:	16b1157c 191917e6 1b7f1a4d 1de21cb1     |.......M.......
 80138b8:	20421f13 229f2171 24f823cc 274d2623     ..B q!.".#.$#&M'
 80138c8:	299f2877 2bec2ac6 2e352d11 30792f57     w(.).*.+.-5.W/y0
 80138d8:	32b83199 34f233d6 3727360d 3956383f     .1.2.3.4.6'7?8V9
 80138e8:	3b7f3a6b 3da23c91 3fbf3eb1 41d640cb     k:.;.<.=.>.?.@.A
 80138f8:	43e542de 45ee44eb 47f046f0 49eb48ef     .B.C.D.E.F.G.H.I
 8013908:	4bde4ae6 4dca4cd5 4fad4ebd 5189509c     .J.K.L.M.N.O.P.Q
 8013918:	535d5274 55285443 56ea560a 58a457c8     tR]SCT(U.V.V.W.X
 8013928:	5a55597d 5bfc5b2a 5d9b5ccd 5f305e66     }YUZ*[.[.\.]f^0_
 8013938:	60bb5ff7 623d617d 63b562fa 6523646d     ._.`}a=b.b.cmd#e
 8013948:	668765d6 67e06735 692f6889 6a7469d3     .e.f5g.g.h/i.itj
 8013958:	6bae6b13 6cdd6c47 6e026d71 6f1b6e90     .k.kGl.lqm.n.n.o
 8013968:	702a6fa4 712d70ad 722571ab 7312729d     .o*p.p-q.q%r.r.s
 8013978:	73f37384 74c9745f 7593752f 765275f4     .s.s_t.t/u.u.uRv
 8013988:	770576ad 77ac775a 784777fb 78d77890     .v.wZw.w.wGx.x.x
 8013998:	795a791a 79d27998 7a3e7a09 7a9e7a6f     .yZy.y.y.z>zoz.z
 80139a8:	7af17ac9 7b397b17 7b757b58 7ba47b8e     .z.z.{9{X{u{.{.{
 80139b8:	7bc87bb8 7be07bd5 7beb7be7 7beb7bec     .{.{.{.{.{.{.{.{
 80139c8:	7bde7be6 7bc67bd3 7ba17bb5 7b717b8b     .{.{.{.{.{.{.{q{
 80139d8:	7b357b54 7aed7b12 7a997ac4 7a397a6b     T{5{.{.z.z.zkz9z
 80139e8:	79ce7a05 79577994 78d57918 78477890     .z.y.yWy.y.x.xGx
 80139f8:	77ae77fc 7709775d 765a76b3 759f75fe     .w.w]w.w.vZv.u.u
 8013a08:	74d9753d 74087472 732c739b 724672ba     =u.trt.t.s,s.rFr
 8013a18:	715471ce 705970d8 6f536fd7 6e436ecc     .qTq.pYp.oSo.nCn
 8013a28:	6d286db7 6c046c97 6ad66b6e 699e6a3b     .m(m.l.lnk.j;j.i
 8013a38:	685c68fe 671167b8 65bd6668 64606510     .h\h.g.ghf.e.e`d
 8013a48:	62fa63ae 618b6243 601360d0 5e935f54     .c.bCb.a.`.`T_.^
 8013a58:	5d0a5dd0 5b7a5c43 59e15aaf 58415912     .].]C\z[.Z.Y.YAX
 8013a68:	569a576e 54ea55c3 53345410 51775256     nW.V.U.T.T4SVRwQ
 8013a78:	4fb35096 4de84ece 4c174d00 4a404b2c     .P.O.N.M.M.L,K@J
 8013a88:	48624952 467f4772 4497458c 42a943a0     RIbHrG.F.E.D.C.B
 8013a98:	40b641b0 3ebe3fba 3cc13dc0 3ac03bc1     .A.@.?.>.=.<.;.:
 8013aa8:	38ba39bd 36b037b6 34a335aa 3292339b     .9.8.7.6.5.4.3.2
 8013ab8:	307d3188 2e662f72 2c4b2d59 2a2e2b3d     .1}0r/f.Y-K,=+.*
 8013ac8:	280e291e 25ec26fd 23c824da 21a222b5     .).(.&.%.$.#.".!
 8013ad8:	1f7a208e 1d511e66 1b271c3c 18fc1a12     . z.f.Q.<.'.....
 8013ae8:	16d017e6 14a415ba 1278138e 104c1162     ..........x.b.L.
 8013af8:	0e1f0f36 0bf40d0a 09c90ade 079f08b4     6...............
 8013b08:	0576068a 034e0462 0128023b ff030015     ..v.b.N.;.(.....
 8013b18:	fce1fdf2 fac1fbd1 f8a3f9b2 f688f795     ................
 8013b28:	f470f57c f25bf365 f049f151 ee3aef41     |.p.e.[.Q.I.A.:.
 8013b38:	ec2fed34 ea28eb2b e825e926 e627e725     4./.+.(.&.%.%.'.
 8013b48:	e42ce529 e237e331 e046e13e de5adf4f     ).,.1.7.>.F.O.Z.
 8013b58:	dc74dd66 da92db82 d8b7d9a4 d6e1d7cb     f.t.............
 8013b68:	d511d5f8 d347d42b d183d264 cfc5d0a3     ....+.G.d.......
 8013b78:	ce0fcee9 cc5ecd36 cab5cb89 c913c9e3     ....6.^.........
 8013b88:	c778c844 c5e4c6ad c457c51d c2d2c394     D.x.......W.....
 8013b98:	c155c213 bfe0c099 be72bf28 bd0dbdbe     ..U.....(.r.....
 8013ba8:	bbafbc5d ba5abb04 b90eb9b3 b7c9b86a     ].....Z.....j...
 8013bb8:	b68eb72a b55bb5f3 b431b4c5 b30fb39f     *.....[...1.....
 8013bc8:	b1f7b282 b0e7b16e afe1b063 aee4af61     ....n...c...a...
 8013bd8:	adf0ae69 ad05ad79 ac24ac93 ab4cabb6     i...y.....$...L.
 8013be8:	aa7daae3 a9b8aa19 a8fca959 a84aa8a2     ..}.....Y.....J.
 8013bf8:	a7a2a7f5 a703a751 a66da6b7 a5e2a626     ....Q.....m.&...
 8013c08:	a560a5a0 a4e7a522 a479a4af a414a445     ..`.".....y.E...
 8013c18:	a3b8a3e5 a366a38e a31ea341 a2e0a2fe     ......f.A.......
 8013c28:	a2aba2c4 a280a294 a25ea26e a246a251     ........n.^.Q.F.
 8013c38:	a237a23d a231a233 a235a232 a243a23b     =.7.3.1.2.5.;.C.
 8013c48:	a259a24d a279a268 a2a2a28d a2d5a2ba     M.Y.h.y.........
 8013c58:	a310a2f1 a354a331 a3a1a379 a3f7a3cb     ....1.T.y.......
 8013c68:	a455a425 a4bca488 a52ca4f3 a5a4a567     %.U.......,.g...
 8013c78:	a625a5e3 a6aea668 a73ea6f5 a7d7a78a     ..%.h.....>.....
 8013c88:	a878a827 a921a8cc a9d1a978 aa89aa2d     '.x...!.x...-...
 8013c98:	ab49aae8 ac10abab acdeac76 adb3ad48     ..I.....v...H...
 8013ca8:	ae8fae20 af72af00 b05cafe6 b14cb0d3      .....r...\...L.
 8013cb8:	b242b1c6 b33fb2c0 b442b3c0 b54bb4c6     ..B...?...B...K.
 8013cc8:	b65ab5d2 b76eb6e3 b888b7fa b9a7b917     ..Z...n.........
 8013cd8:	baccba39 bbf5bb60 bd24bc8c be57bdbd     9...`.....$...W.
 8013ce8:	bf8ebef2 c0cbc02c c20bc16a c34fc2ad     ....,...j.....O.
 8013cf8:	c498c3f3 c5e4c53d c733c68b c886c7dc     ....=.....3.....
 8013d08:	c9dcc931 cb36ca89 cc92cbe3 cdf1cd41     1.....6.....A...
 8013d18:	cf52cea1 d0b6d004 d21cd169 d384d2d0     ..R.....i.......
 8013d28:	d4eed439 d65ad5a4 d7c7d710 d935d87e     9.....Z.....~.5.
 8013d38:	daa5d9ed dc15db5d dd87dcce def9de40     ....].......@...
 8013d48:	e06cdfb2 e1dfe125 e352e298 e4c5e40c     ..l.%.....R.....
 8013d58:	e638e57f e7abe6f2 e91de864 ea8fe9d6     ..8.....d.......
 8013d68:	ebffeb47 ed6fecb7 eedeee26 f04bef94     G.....o.&.....K.
 8013d78:	f1b7f101 f321f26c f48af3d6 f5f1f53d     ....l.!.....=...
 8013d88:	f755f6a3 f8b8f807 fa18f968 fb76fac7     ..U.....h.....v.
 8013d98:	fcd1fc23 fe29fd7d ff7ffed4 00d10028     #...}.).....(...
 8013da8:	02200179 036c02c7 04b50411 05fa0558     y. ...l.....X...
 8013db8:	073c069c 087a07db 09b40917 0aea0a4f     ..<...z.....O...
 8013dc8:	0c1b0b83 0d490cb3 0e730dde 0f980f06     ......I...s.....
 8013dd8:	10b81028 11d41147 12eb1260 13fe1375     (...G...`...u...
 8013de8:	150b1485 16141590 17171696 18161797     ................
 8013df8:	190f1893 1a03198a 1af21a7b 1bdb1b67     ........{...g...
 8013e08:	1cbf1c4e 1d9e1d2f 1e771e0b 1f4a1ee1     N.../.....w...J.
 8013e18:	20171fb1 20df207c 21a12141 225e2200     ... | . A!.!."^"
 8013e28:	231422ba 23c5236d 2470241b 251524c3     .".#m#.#.$p$.$.%
 8013e38:	25b32565 264c2601 26df2697 276c2727     e%.%.&L&.&.&''l'
 8013e48:	27f327b0 28742834 28ef28b2 2964292a     .'.'4(t(.(.(*)d)
 8013e58:	29d3299c 2a3c2a08 2a9f2a6e 2afc2ace     .).).*<*n*.*.*.*
 8013e68:	2b522b28 2ba32b7c 2bee2bca 2c332c12     (+R+|+.+.+.+.,3,
 8013e78:	2c732c54 2cac2c90 2ce02cc6 2d0d2cf7     T,s,.,.,.,.,.,.-
 8013e88:	2d352d22 2d572d47 2d742d66 2d8b2d80     "-5-G-W-f-t-.-.-
 8013e98:	2d9c2d94 2da82da3 2dae2dac 2daf2daf     .-.-.-.-.-.-.-.-
 8013ea8:	2dab2dae 2da12da7 2d922d9a 2d7e2d89     .-.-.-.-.-.-.-~-
 8013eb8:	2d652d72 2d462d56 2d232d35 2cfb2d10     r-e-V-F-5-#-.-.,
 8013ec8:	2cce2ce5 2c9c2cb6 2c662c82 2c2b2c49     .,.,.,.,.,f,I,+,
 8013ed8:	2beb2c0c 2ba82bca 2b5f2b84 2b132b3a     .,.+.+.+.+_+:+.+
 8013ee8:	2ac22aeb 2a6e2a99 2a152a42 29b929e8     .*.*.*n*B*.*.).)
 8013ef8:	29592989 28f52927 288e28c2 28232859     .)Y)').(.(.(Y(#(
 8013f08:	27b527ec 2743277c 26cf2709 26572693     .'.'|'C'.'.&.&W&
 8013f18:	25dd261a 255f259e 24df251f 245c249e     .&.%.%_%.%.$.$\$
 8013f28:	23d7241a 234f2393 22c5230b 22392280     .$.#.#O#.#."."9"
 8013f38:	21ab21f2 211b2163 208920d2 1ff5203f     .!.!c!.!. . ? ..
 8013f48:	1f601faa 1ec91f14 1e301e7d 1d971de4     ..`.....}.0.....
 8013f58:	1cfc1d49 1c601cae 1bc31c12 1b251b74     I.....`.....t.%.
 8013f68:	1a871ad6 19e81a37 19481998 18a818f8     ....7.....H.....
 8013f78:	18071858 176717b7 16c61716 16251675     X.....g.....u.%.
 8013f88:	158415d5 14e41534 14441494 13a413f4     ....4.....D.....
 8013f98:	13051354 126612b5 11c81217 112b1179     T.....f.....y.+.
 8013fa8:	108f10dd 0ff31041 0f590fa6 0ec00f0c     ....A.....Y.....
 8013fb8:	0e280e74 0d920ddd 0cfd0d47 0c690cb3     t.(.....G.....i.
 8013fc8:	0bd70c20 0b470b8f 0ab80aff 0a2b0a72      .....G.....r.+.
 8013fd8:	09a109e6 0918095c 089108d4 080c084e     ....\.......N...
 8013fe8:	078a07cb 07090749 068b06ca 0610064d     ....I.......M...
 8013ff8:	059705d3 0520055b 04ac04e6 043a0473     ....[. .....s.:.
 8014008:	03cb0402 035f0395 02f6032a 028f02c2     ......_.*.......
 8014018:	022b025d 01ca01fa 016c019b 0111013e     ].+.......l.>...
 8014028:	00b900e4 0063008e 0011003a ffc2ffe9     ......c.:.......
 8014038:	ff76ff9c ff2dff51 fee7ff0a fea4fec5     ..v.Q.-.........
 8014048:	fe65fe84 fe28fe46 fdeffe0b fdb9fdd4     ..e.F.(.........
 8014058:	fd86fd9f fd56fd6e fd2afd40 fd00fd15     ....n.V.@.*.....
 8014068:	fcdafced fcb7fcc8 fc97fca7 fc7afc88     ..............z.
 8014078:	fc61fc6d fc4afc55 fc37fc40 fc26fc2e     m.a.U.J.@.7...&.
 8014088:	fc19fc1f fc0ffc13 fc07fc0b fc03fc05     ................
 8014098:	fc01fc02 fc03fc02 fc07fc05 fc0efc0b     ................
 80140a8:	fc18fc13 fc25fc1e fc35fc2d fc47fc3d     ......%.-.5.=.G.
 80140b8:	fc5cfc51 fc73fc67 fc8dfc7f fca9fc9a     Q.\.g.s.........
 80140c8:	fcc8fcb8 fce9fcd8 fd0cfcfa fd32fd1f     ..............2.
 80140d8:	fd5afd45 fd84fd6e fdb0fd99 fddefdc6     E.Z.n...........
 80140e8:	fe0efdf6 fe40fe26 fe73fe59 fea9fe8e     ....&.@.Y.s.....
 80140f8:	fee0fec4 ff19fefc ff53ff35 ff8eff70     ........5.S.p...
 8014108:	ffccffad 000affeb 004a002a 008a006a     ........*.J.j...
 8014118:	00cc00ab 010f00ee 01530131 01980175     ........1.S.u...
 8014128:	01dd01ba 02230200 026a0247 02b2028e     ......#.G.j.....
 8014138:	02f902d5 0342031d 038a0366 03d303ae     ......B.f.......
 8014148:	041c03f7 04640440 04ad0489 04f604d2     ....@.d.........
 8014158:	053f051a 05870563 05cf05ab 061705f3     ..?.c...........
 8014168:	065e063a 06a40681 06ea06c7 072f070d     :.^.........../.
 8014178:	07740752 07b70795 07fa07d8 083b081a     R.t...........;.
 8014188:	087b085b 08ba089b 08f808da 09350917     [.{...........5.
 8014198:	09700953 09aa098d 09e209c6 0a1909fe     S.p.............
 80141a8:	0a4e0a33 0a810a67 0ab20a9a 0ae20aca     3.N.g...........
 80141b8:	0b0f0af9 0b3b0b25 0b650b50 0b8c0b79     ....%.;.P.e.y...
 80141c8:	0bb10b9f 0bd50bc3 0bf60be5 0c140c05     ................
 80141d8:	0c300c23 0c4a0c3e 0c620c56 0c770c6c     #.0.>.J.V.b.l.w.
 80141e8:	0c890c80 0c990c91 0ca60ca0 0cb00cab     ................
 80141f8:	0cb80cb5 0cbd0cbb 0cc00cbf 0cbf0cc0     ................
 8014208:	0cbc0cbe 0cb60cb9 0cad0cb2 0ca10ca7     ................
 8014218:	0c920c9a 0c800c8a 0c6c0c76 0c540c60     ........v.l.`.T.
 8014228:	0c3a0c47 0c1c0c2b 0bfc0c0c 0bd80bea     G.:.+...........
 8014238:	0bb20bc5 0b880b9d 0b5c0b72 0b2c0b44     ........r.\.D.,.
 8014248:	0afa0b13 0ac40adf 0a8c0aa8 0a500a6e     ............n.P.
 8014258:	0a120a31 09d109f2 098c09af 09450969     1...........i.E.
 8014268:	08fb0920 08ae08d5 085e0887 080c0836      .........^.6...
 8014278:	07b707e2 075f078b 07040732 06a606d5     ......_.2.......
 8014288:	06460677 05e30615 057e05b1 0516054b     w.F.......~.K...
 8014298:	04ac04e2 043f0476 03d00408 035f0398     ....v.?......._.
 80142a8:	02eb0325 027502b0 01fd0239 018201c0     %.....u.9.......
 80142b8:	01060144 008800c7 00070048 ff85ffc6     D.......H.......
 80142c8:	ff01ff43 fe7bfebe fdf4fe38 fd6afdaf     C.....{.8.....j.
 80142d8:	fce0fd25 fc53fc9a fbc6fc0d fb37fb7e     %.....S.....~.7.
 80142e8:	faa6faef fa15fa5e f982f9cc f8eff939     ....^.......9...
 80142f8:	f85af8a5 f7c5f80f f72ef779 f697f6e3     ..Z.....y.......
 8014308:	f5fff64b f567f5b3 f4cef51b f435f482     K.....g.......5.
 8014318:	f39cf3e8 f302f34f f268f2b5 f1cef21b     ....O.....h.....
 8014328:	f134f181 f09af0e7 f000f04d ef67efb4     ..4.....M.....g.
 8014338:	eeceef1a ee35ee82 ed9dede9 ed06ed52     ......5.....R...
 8014348:	ec6fecba ebd9ec24 eb44eb8f eab0eafa     ..o.$.....D.....
 8014358:	ea1dea66 e98be9d4 e8fae942 e86be8b2     f.......B.....k.
 8014368:	e7dde824 e750e796 e6c5e70b e63ce680     $.....P.......<.
 8014378:	e5b4e5f8 e52fe571 e4abe4ec e429e469     ....q./.....i.).
 8014388:	e3a9e3e8 e32be36a e2afe2ed e236e272     ....j.+.....r.6.
 8014398:	e1bfe1fa e14ae184 e0d8e111 e069e0a0     ......J.......i.
 80143a8:	dffce032 df92dfc7 df2bdf5e dec6def8     2.......^.+.....
 80143b8:	de65de95 de06de35 ddabddd8 dd52dd7e     ..e.5.......~.R.
 80143c8:	dcfddd27 dcabdcd3 dc5cdc83 dc11dc36     '.........\.6...
 80143d8:	dbc9dbec db84dba6 db43db63 db05db24     ........c.C.$...
 80143e8:	dacbdae8 da95dab0 da63da7b da34da4b     ........{.c.K.4.
 80143f8:	da08da1e d9e1d9f4 d9bed9cf d99ed9ad     ................
 8014408:	d982d98f d96ad976 d956d960 d946d94e     ....v.j.`.V.N.F.
 8014418:	d93bd940 d933d936 d92fd930 d92fd92f     @.;.6.3.0./././.
 8014428:	d933d931 d93cd937 d948d942 d959d950     1.3.7.<.B.H.P.Y.
 8014438:	d96ed963 d987d97a d9a4d995 d9c5d9b4     c.n.z...........
 8014448:	d9ead9d7 da14d9fe da41da2a da73da59     ........*.A.Y.s.
 8014458:	daa8da8d dae2dac5 db20db01 db62db41     .......... .A.b.
 8014468:	dba8db85 dbf2dbcd dc40dc19 dc92dc68     ..........@.h...
 8014478:	dce8dcbc dd42dd14 dd9fdd70 de01ddd0     ......B.p.......
 8014488:	de66de33 decfde9a df3cdf05 dfaddf74     3.f.......<.t...
 8014498:	e021dfe6 e099e05c e114e0d6 e193e153     ..!.\.......S...
 80144a8:	e215e1d3 e29be257 e324e2df e3b0e36a     ....W.....$.j...
 80144b8:	e440e3f8 e4d2e489 e568e51d e601e5b4     ..@.......h.....
 80144c8:	e69de64f e73ce6ec e7dde78c e882e82f     O.....<...../...
 80144d8:	e929e8d5 e9d3e97d ea7fea28 eb2eead6     ..).}...(.......
 80144e8:	ebdfeb86 ec92ec38 ed48eced ee00eda4     ....8.....H.....
 80144f8:	eebaee5d ef76ef18 f034efd5 f0f4f094     ].....v...4.....
 8014508:	f1b5f154 f278f217 f33df2db f403f3a0     T.....x...=.....
 8014518:	f4cbf467 f594f52f f65ef5f9 f729f6c4     g.../.....^...).
 8014528:	f7f6f78f f8c3f85c f991f92a fa60f9f8     ....\...*.....`.
 8014538:	fb2ffac7 fbfffb97 fcd0fc67 fda1fd38     ../.....g...8...
 8014548:	fe72fe09 ff43feda 0014ffac 00e6007d     ..r...C.....}...
 8014558:	01b7014f 02880220 035902f1 042903c1     O... .....Y...).
 8014568:	04f90491 05c90561 06970630 076506fe     ....a...0.....e.
 8014578:	083207cc 08fe0899 09c90964 0a930a2f     ..2.....d.../...
 8014588:	0b5c0af8 0c230bc0 0ce90c87 0dae0d4c     ..\...#.....L...
 8014598:	0e710e0f 0f320ed1 0ff10f92 10af1050     ..q...2.....P...
 80145a8:	116a110d 122411c7 12db1280 13911336     ..j...$.....6...
 80145b8:	144413eb 14f4149c 15a3154c 164f15f9     ..D.....L.....O.
 80145c8:	16f816a3 179e174b 184217f1 18e31893     ....K.....B.....
 80145d8:	19811933 1a1d19cf 1ab51a69 1b4a1b00     3.......i.....J.
 80145e8:	1bdc1b94 1c6b1c24 1cf71cb1 1d7f1d3b     ....$.k.....;...
 80145f8:	1e041dc2 1e861e45 1f041ec5 1f7f1f42     ....E.......B...
 8014608:	1ff61fbb 20692030 20d920a2 2145210f     ....0 i . . .!E!
 8014618:	21ad217a 221221e0 22732243 22d022a2     z!.!.!."C"s"."."
 8014628:	232922fd 237e2354 23cf23a7 241c23f6     .")#T#~#.#.#.#.$
 8014638:	24652441 24aa2488 24ec24cc 2529250b     A$e$.$.$.$.$.%)%
 8014648:	25622546 2597257d 25c725af 25f425de     F%b%}%.%.%.%.%.%
 8014658:	261d2609 2641262f 26612652 267e2670     .&.&/&A&R&a&p&~&
 8014668:	2696268a 26aa26a0 26b926b2 26c526c0     .&.&.&.&.&.&.&.&
 8014678:	26cd26c9 26d026cf 26d026d0 26cb26ce     .&.&.&.&.&.&.&.&
 8014688:	26c226c7 26b626bd 26a526ae 2690269b     .&.&.&.&.&.&.&.&
 8014698:	26782684 265b266a 263b264b 26162629     .&x&j&[&K&;&)&.&
 80146a8:	25ee2603 25c225d9 259325ab 255f2579     .&.%.%.%.%.%y%_%
 80146b8:	25282544 24ee250b 24af24cf 246d248f     D%(%.%.$.$.$.$m$
 80146c8:	2428244b 23e02404 239323ba 2344236c     K$($.$.#.#.#l#D#
 80146d8:	22f1231b 229b22c7 2242226f 21e62215     .#."."."o"B".".!
 80146e8:	218721b7 21252156 20c020f3 2058208c     .!.!V!%!. . . X 
 80146f8:	1fed2023 1f801fb7 1f101f48 1e9d1ed7     # ......H.......
 8014708:	1e281e63 1db11ded 1d371d74 1cbb1cf9     c.(.....t.7.....
 8014718:	1c3d1c7c 1bbd1bfd 1b3a1b7c 1ab61af8     |.=.....|.:.....
 8014728:	1a301a73 19a819ec 191e1963 189318d9     s.0.....c.......
 8014738:	1806184c 177817bf 16e81730 165716a0     L.....x.0.....W.
 8014748:	15c5160e 1531157b 149d14e7 14081453     ....{.1.....S...
 8014758:	137213bd 12db1326 1243128f 11ab11f7     ..r.&.....C.....
 8014768:	1112115f 107910c6 0fe0102d 0f460f93     _.....y.-.....F.
 8014778:	0eac0ef9 0e120e5f 0d780dc5 0cde0d2b     ...._.....x.+...
 8014788:	0c450c91 0bab0bf8 0b120b5f 0a790ac6     ..E....._.....y.
 8014798:	09e10a2d 094a0995 08b308fe 081c0867     -.....J.....g...
 80147a8:	078707d2 06f3073d 065f06a9 05cd0616     ....=....._.....
 80147b8:	053c0584 04ac04f3 041d0464 038f03d6     ..<.....d.......
 80147c8:	03040349 027902be 01f00234 016901ac     I.....y.4.....i.
 80147d8:	00e40126 006000a1 ffde001f ff5eff9e     &.....`.......^.
 80147e8:	fee0ff1f fe64fea2 fdeafe27 fd72fdae     ......d.'.....r.
 80147f8:	fcfdfd37 fc89fcc3 fc18fc51 fbaafbe1     7.......Q.......
 8014808:	fb3dfb73 fad4fb08 fa6cfaa0 fa08fa3a     s.=.......l.:...
 8014818:	f9a5f9d6 f946f975 f8e9f917 f88ff8bb     ....u.F.........
 8014828:	f837f862 f7e2f80c f790f7b9 f741f768     b.7.........h.A.
 8014838:	f6f5f71b f6abf6d0 f665f688 f621f643     ..........e.C.!.
 8014848:	f5e0f600 f5a3f5c1 f568f585 f530f54c     ..........h.L.0.
 8014858:	f4fbf515 f4c9f4e2 f49af4b1 f46ef484     ..............n.
 8014868:	f446f45a f420f432 f3fdf40e f3ddf3ec     Z.F.2. .........
 8014878:	f3c0f3ce f3a6f3b2 f38ff39a f37bf384     ..............{.
 8014888:	f36af372 f35cf362 f350f356 f348f34c     r.j.b.\.V.P.L.H.
 8014898:	f342f345 f340f341 f340f33f f343f341     E.B.A.@.?.@.A.C.
 80148a8:	f348f345 f351f34c f35cf356 f369f362     E.H.L.Q.V.\.b.i.
 80148b8:	f37af371 f38cf383 f3a2f397 f3baf3ad     q.z.............
 80148c8:	f3d4f3c7 f3f1f3e2 f410f400 f431f420     ............ .1.
 80148d8:	f455f443 f47bf467 f4a3f48e f4cdf4b7     C.U.g.{.........
 80148e8:	f4f9f4e2 f527f50f f557f53e f588f56f     ......'.>.W.o...
 80148f8:	f5bcf5a2 f5f1f5d6 f628f60c f661f644     ..........(.D.a.
 8014908:	f69bf67d f6d6f6b8 f713f6f4 f751f732     }...........2.Q.
 8014918:	f790f771 f7d1f7b1 f813f7f2 f855f834     q...........4.U.
 8014928:	f899f877 f8def8bb f923f900 f969f946     w.........#.F.i.
 8014938:	f9aff98c f9f7f9d3 fa3efa1a fa86fa62     ..........>.b...
 8014948:	facffaab fb17faf3 fb60fb3c fba9fb85     ........<.`.....
 8014958:	fbf2fbce fc3bfc16 fc84fc5f fcccfca8     ......;._.......
 8014968:	fd14fcf0 fd5cfd38 fda3fd7f fdeafdc6     ....8.\.........
 8014978:	fe30fe0d fe75fe52 febafe97 fefdfedc     ..0.R.u.........
 8014988:	ff40ff1f ff82ff61 ffc2ffa2 0002ffe2     ..@.a...........
 8014998:	00400021 007d005e 00b8009a 00f200d5     !.@.^.}.........
 80149a8:	012a010e 01610146 0196017c 01c901b0     ..*.F.a.|.......
 80149b8:	01fb01e2 022b0213 02580242 0284026e     ......+.B.X.n...
 80149c8:	02ad0299 02d502c1 02fa02e8 031d030c     ................
 80149d8:	033e032e 035c034d 0378036a 03910385     ..>.M.\.j.x.....
 80149e8:	03a8039d 03bc03b2 03ce03c5 03dd03d5     ................
 80149f8:	03e903e3 03f203ee 03f903f6 03fd03fb     ................
 8014a08:	03fd03fd 03fb03fd 03f703f9 03ef03f3     ................
 8014a18:	03e403ea 03d603dd 03c503ce 03b103bb     ................
 8014a28:	039903a5 037f038d 03620371 03410352     ........q.b.R.A.
 8014a38:	031e0330 02f7030a 02cd02e2 029f02b6     0...............
 8014a48:	026f0288 023b0256 02050220 01cb01e8     ..o.V.;. .......
 8014a58:	018e01ad 014d016e 010a012c 00c400e7     ....n.M.,.......
 8014a68:	007a009f 002d0054 ffde0006 ff8bffb5     ..z.T.-.........
 8014a78:	ff35ff60 fedcff09 fe80feaf fe22fe51     `.5.........Q.".
 8014a88:	fdc0fdf1 fd5cfd8e fcf4fd28 fc8afcc0     ......\.(.......
 8014a98:	fc1efc54 fbaefbe6 fb3cfb76 fac8fb02     T.......v.<.....
 8014aa8:	fa50fa8c f9d7fa14 f95bf999 f8dcf91c     ..P.......[.....
 8014ab8:	f85bf89c f7d8f81a f753f796 f6ccf710     ..[.......S.....
 8014ac8:	f643f688 f5b8f5fd f52bf571 f49cf4e3     ..C.....q.+.....
 8014ad8:	f40bf453 f379f3c2 f2e5f32f f24ff29a     S.....y./.....O.
 8014ae8:	f1b9f204 f121f16d f087f0d4 efedf03a     ....m.!.....:...
 8014af8:	ef51ef9f eeb5ef03 ee17ee66 ed79edc8     ..Q.....f.....y.
 8014b08:	ecdbed2a ec3bec8b eb9bebeb eafbeb4b     *.....;.....K...
 8014b18:	ea5aeaab e9baea0a e919e969 e878e8c9     ..Z.....i.....x.
 8014b28:	e7d8e828 e737e787 e697e6e7 e5f8e647     (.....7.....G...
 8014b38:	e559e5a8 e4bae509 e41de46b e380e3ce     ..Y.....k.......
 8014b48:	e2e4e332 e24ae297 e1b0e1fd e118e164     2.....J.....d...
 8014b58:	e081e0cd dfece037 df59dfa2 dec7df10     ....7.....Y.....
 8014b68:	de37de7f ddaaddf0 dd1edd63 dc94dcd9     ..7.....c.......
 8014b78:	dc0ddc50 db88dbca db06db47 da87dac6     P.......G.......
 8014b88:	da0ada48 d990d9cc d919d954 d8a5d8de     H.......T.......
 8014b98:	d834d86c d7c6d7fd d75cd791 d6f6d729     l.4.......\.)...
 8014ba8:	d693d6c4 d633d662 d5d8d605 d580d5ab     ....b.3.........
 8014bb8:	d52cd555 d4dcd504 d491d4b6 d44ad46d     U.,.........m.J.
 8014bc8:	d407d428 d3c8d3e7 d38ed3aa d359d373     (...........s.Y.
 8014bd8:	d328d340 d2fcd311 d2d5d2e8 d2b2d2c3     @.(.............
 8014be8:	d295d2a3 d27dd288 d26ad272 d25cd262     ......}.r.j.b.\.
 8014bf8:	d253d257 d24fd250 d251d250 d259d254     W.S.P.O.P.Q.T.Y.
 8014c08:	d266d25f d278d26e d290d284 d2aed29e     _.f.n.x.........
 8014c18:	d2d1d2bf d2fad2e5 d329d311 d35ed343     ..........).C.^.
 8014c28:	d399d37b d3d9d3b8 d41fd3fb d46bd445     {...........E.k.
 8014c38:	d4bdd494 d516d4e9 d574d544 d5d8d5a5     ........D.t.....
 8014c48:	d642d60c d6b2d679 d728d6ec d7a4d765     ..B.y.....(.e...
 8014c58:	d826d7e4 d8aed86a d93dd8f5 d9d1d986     ..&.j.....=.....
 8014c68:	da6bda1d db0bdaba dbb1db5d dc5ddc06     ..k.....].....].
 8014c78:	dd0fdcb5 ddc6dd6a de84de24 df47dee5     ....j...$.....G.
 8014c88:	e010dfab e0dfe077 e1b3e148 e28de220     ....w...H... ...
 8014c98:	e36de2fc e452e3df e53ce4c6 e62ce5b3     ..m...R...<...,.
 8014ca8:	e721e6a6 e81ce79e e91be89b ea20e99d     ..!........... .
 8014cb8:	eb29eaa4 ec38ebb0 ed4becc1 ee63edd7     ..)...8...K...c.
 8014cc8:	ef80eef1 f0a2f010 f1c8f134 f2f2f25c     ........4...\...
 8014cd8:	f420f389 f553f4b9 f68af5ee f7c5f727     .. ...S.....'...
 8014ce8:	f903f863 fa45f9a4 fb8bfae8 fcd5fc30     c.....E.....0...
 8014cf8:	fe21fd7b ff71fec9 00c5001b 021b016f     {.!...q.....o...
 8014d08:	037402c7 04cf0421 062d057e 078e06dd     ..t.!...~.-.....
 8014d18:	08f1083f 0a5609a3 0bbd0b09 0d260c71     ?.....V.....q.&.
 8014d28:	0e910ddb 0ffd0f47 116b10b4 12d91222     ....G.....k."...
 8014d38:	14491391 15ba1502 172c1673 189e17e5     ..I.....s.,.....
 8014d48:	1a111958 1b841acb 1cf71c3e 1e6a1db1     X.......>.....j.
 8014d58:	1fdd1f24 21502097 22c22209 2433237b     $.... P!."."{#3$
 8014d68:	25a424ec 2713265c 288127ca 29ee2938     .$.%\&.'.'.(8).)
 8014d78:	2b5a2aa4 2cc32c0f 2e2b2d77 2f902ede     .*Z+.,.,w-+..../
 8014d88:	30f43042 325531a4 33b33304 350f3461     B0.0.1U2.3.3a4.5
 8014d98:	366735bb 37bd3712 390f3866 3a5e39b7     .5g6.7.7f8.9.9^:
 8014da8:	3ba93b04 3cf13c4e 3e353d93 3f743ed5     .;.;N<.<.=5>.>t?
 8014db8:	40af4012 41e6414b 43184280 444643b0     .@.@KA.A.B.C.CFD
 8014dc8:	456e44db 46924601 47b04721 48c9483d     .DnE.F.F!G.G=H.H
 8014dd8:	49dc4953 4ae94a63 4bf14b6e 4cf34c73     SI.IcJ.JnK.KsL.L
 8014de8:	4dee4d71 4ee44e6a 4fd34f5c 50bb5048     qM.MjN.N\O.OHP.P
 8014df8:	519c512d 5277520b 534b52e2 541853b2     -Q.Q.RwR.RKS.S.T
 8014e08:	54dd547b 559b553d 565155f7 570056aa     {T.T=U.U.UQV.V.W
 8014e18:	57a85755 584757f8 58de5894 596d5927     UW.W.WGX.X.X'YmY
 8014e28:	59f559b2 5a735a35 5aea5ab0 5b585b22     .Y.Y5ZsZ.Z.Z"[X[
 8014e38:	5bbd5b8c 5c1a5bed 5c6e5c45 5cba5c95     .[.[.[.\E\n\.\.\
 8014e48:	5cfc5cdc 5d355d1a 5d665d4f 5d8d5d7a     .\.\.]5]O]f]z].]
 8014e58:	5dab5d9d 5dc05db6 5dcb5dc6 5dcd5dcd     .].].].].].].].]
 8014e68:	5dc65dcb 5db55dbf 5d9b5da9 5d775d8a     .].].].].].].]w]
 8014e78:	5d4a5d62 5d135d30 5cd35cf4 5c895caf     b]J]0].].\.\.\.\
 8014e88:	5c355c60 5bd85c08 5b715ba6 5b005b3a     `\5\.\.[.[q[:[.[
 8014e98:	5a865ac4 5a025a45 597459bc 58dd592a     .Z.ZEZ.Z.YtY*Y.X
 8014ea8:	583c588e 579257e8 56de5739 56205680     .X<X.W.W9W.V.V V
 8014eb8:	555955be 548954f2 53af541d 52cc533f     .UYU.T.T.T.S?S.R
 8014ec8:	51df5257 50e95165 4fea506b 4ee24f67     WR.QeQ.PkP.OgO.N
 8014ed8:	4dd14e5b 4cb74d45 4b934c26 4a684aff     [N.MEM.L&L.K.JhJ
 8014ee8:	493349ce 47f54895 46b04754 45614609     .I3I.H.GTG.F.FaE
 8014ef8:	440b44b7 42ac435c 414441f9 3fd5408e     .D.D\C.B.ADA.@.?
 8014f08:	3e5e3f1b 3ce03da0 3b593c1d 39cb3a93     .?^>.=.<.<Y;.:.9
 8014f18:	38363901 36993768 34f535c8 334b3421     .968h7.6.5.4!4K3
 8014f28:	31993273 2fe130be 2e222f02 2c5d2d41     s2.1.0././".A-],
 8014f38:	2a922b78 28c129aa 26ea27d6 250d25fc     x+.*.).(.'.&.%.%
 8014f48:	232b241c 21432237 1f56204d 1d641e5e     .$+#7"C!M V.^.d.
 8014f58:	1b6e1c6a 19731a71 17731873 156f1672     j.n.q.s.s.s.r.o.
 8014f68:	1368146c 115c1262 0f4d1055 0d3a0e44     l.h.b.\.U.M.D.:.
 8014f78:	0b240c2f 090b0a18 06f007fe 04d105e1     /.$.............
 8014f88:	02b103c1 008e01a0 fe69ff7c fc43fd56     ........|.i.V.C.
 8014f98:	fa1bfb2f f7f2f906 f5c7f6dd f39cf4b2     /...............
 8014fa8:	f170f286 ef44f05a ed18ee2e eaebec02     ..p.Z.D.........
 8014fb8:	e8bfe9d5 e694e7aa e469e57e e23fe354     ........~.i.T.?.
 8014fc8:	e016e12b ddefdf03 dbcadcdc d9a6dab7     +...............
 8014fd8:	d784d895 d565d674 d348d456 d12ed23b     ....t.e.V.H.;...
 8014fe8:	cf17d022 cd03ce0d caf3cbfa c8e6c9ec     "...............
 8014ff8:	c6ddc7e1 c4d8c5da c2d8c3d8 c0dcc1d9     ................
 8015008:	bee5bfe0 bcf3bdeb bb06bbfc b91fba12     ................
 8015018:	b73db82d b561b64e b38bb475 b1bbb2a2     -.=.N.a.u.......
 8015028:	aff1b0d5 ae2faf0f ac73ad50 aabeab97     ....../.P.s.....
 8015038:	a910a9e6 a76aa83c a5cba69a a434a4ff     ....<.j.......4.
 8015048:	a2a5a36c a11fa1e1 9fa0a05e 9e2a9ee4     l.......^.....*.
 8015058:	9cbd9d73 9b599c0a 99fd9aaa 98ab9953     s.....Y.....S...
 8015068:	97629805 962296c1 94ec9586 93c09455     ..b...".....U...
 8015078:	929d932d 91859210 907790fd 8f738ff4     -.........w...s.
 8015088:	8e798ef5 8d8a8e01 8ca68d17 8bcd8c38     ..y.........8...
 8015098:	8afe8b64 8a3a8a9b 898189dc 88d48929     d.....:.....)...
 80150a8:	88328881 879b87e5 870f8753 868f86ce     ..2.....S.......
 80150b8:	861a8653 85b285e5 85548581 8503852a     S.........T.*...
 80150c8:	84bd84df 8483849f 8455846b 84338443     ........k.U.C.3.
 80150d8:	841d8427 84138417 84158413 8423841b     '.............#.
 80150e8:	843d842f 8463844f 8495847b 84d384b3     /.=.O.c.{.......
 80150f8:	851e84f7 85748547 85d685a3 8644860b     ....G.t.......D.
 8015108:	86be8680 87448700 87d6878c 88748823     ......D.....#.t.
 8015118:	891d88c7 89d28976 8a938a31 8b608af8     ....v...1.....`.
 8015128:	8c388bcb 8d1c8ca8 8e0b8d92 8f058e86     ..8.............
 8015138:	900a8f86 911b9091 923791a7 935d92c9     ..........7...].
 8015148:	948f93f5 95cb952c 9712966d 986397b9     ....,...m.....c.
 8015158:	99bf9910 9b249a70 9c949bdb 9e0e9d50     ....p.$.....P...
 8015168:	9f929ecf a120a058 a2b6a1ea a457a385     ....X. .......W.
 8015178:	a600a52a a7b3a6d8 a96ea890 ab33aa4f     *.........n.O.3.
 8015188:	acffac18 aed4ade9 b0b2afc2 b297b1a3     ................
 8015198:	b484b38c b679b57d b875b776 ba78b976     ....}.y.v.u.v.x.
 80151a8:	bc83bb7c be94bd8a c0acbf9f c2cac1ba     |...............
 80151b8:	c4eec3db c719c603 c949c830 cb7fca63     ........0.I.c...
 80151c8:	cdbacc9b cffaced9 d23fd11c d488d363     ..........?.c...
 80151d8:	d6d7d5af d929d7ff db7fda53 ddd9dcab     ......).S.......
 80151e8:	e036df07 e297e166 e4fae3c8 e761e62d     ..6.f.......-.a.
 80151f8:	e9c9e895 ec34eaff eea2ed6b f110efd9     ......4.k.......
 8015208:	f381f248 f5f2f4b9 f865f72c fad8f99f     H.......,.e.....
 8015218:	fd4cfc12 ffc1fe87 023500fb 04a9036f     ..L.......5.o...
 8015228:	071c05e3 098f0856 0c010ac8 0e720d3a     ....V.......:.r.
 8015238:	10e10faa 134e1218 15ba1484 182316ef     ......N.......#.
 8015248:	1a8a1957 1cee1bbc 1f4f1e1f 21ad207f     W.........O.. .!
 8015258:	240822db 265f2534 28b22789 2b0129da     .".$4%_&.'.(.).+
 8015268:	2d4b2c27 2f912e6f 31d330b3 340f32f1     ',K-o../.0.1.2.4
 8015278:	3645352b 3877375f 3aa2398d 3cc83bb6     +5E6_7w8.9.:.;.<
 8015288:	3ee73dd8 41013ff5 4313420b 451f441a     .=.>.?.A.B.C.D.E
 8015298:	47244622 49214823 4b174a1d 4d064c10     "F$G#H!I.J.K.L.M
 80152a8:	4eed4dfb 50cc4fdd 52a351b8 5471538b     .M.N.O.P.Q.R.SqT
 80152b8:	56375555 57f45717 59a858cf 5b545a7f     UU7V.W.W.X.Y.ZT[
 80152c8:	5cf65c26 5e8f5dc4 601e5f58 61a460e2     &\.\.].^X_.`.`.a
 80152d8:	63206263 649263da 65fa6547 675766aa     cb c.c.dGe.e.fWg
 80152e8:	68ab6802 69f46950 6b326a94 6c656bcd     .h.hPi.i.j2k.kel
 80152f8:	6d8e6cfb 6eac6e1f 6fbf6f37 70c77044     .l.m.n.n7o.oDp.p
 8015308:	71c37146 72b5723d 739a7329 74757409     Fq.q=r.r)s.s.tut
 8015318:	754474de 760775a7 76be7664 776a7716     .tDu.u.vdv.v.wjw
 8015328:	780a77bc 789f7856 792778e4 79a47967     .w.xVx.x.x'ygy.y
 8015338:	7a1479dd 7a797a48 7ad17aa6 7b1e7af9     .y.zHzyz.z.z.z.{
 8015348:	7b5e7b40 7b937b7a 7bbb7ba8 7bd87bcb     @{^{z{.{.{.{.{.{
 8015358:	7be87be1 7bec7bec 7be57bea 7bd17bdc     .{.{.{.{.{.{.{.{
 8015368:	7bb17bc3 7b867b9d 7b4e7b6b 7b0b7b2e     .{.{.{.{k{N{.{.{
 8015378:	7abc7ae5 7a617a90 79fa7a2f 798879c3     .z.z.zaz/z.y.y.y
 8015388:	790b794b 788178c7 77ed7838 774d779e     Ky.y.x.x8x.w.wMw
 8015398:	76a176f8 75eb7647 7529758b 745d74c4     .v.vGv.u.u)u.t]t
 80153a8:	738573f2 72a37315 71b6722e 70bf713c     .s.s.s.r.r.q<q.p
 80153b8:	6fbd703f 6eb16f38 6d9a6e27 6c7a6d0b     ?p.o8o.n'n.m.mzl
 80153c8:	6b506be6 6a1c6ab7 68de697e 6797683c     .kPk.j.j~i.h<h.g
 80153d8:	664666f0 64ed659b 638a643c 621e62d5     .fFf.e.d<d.c.b.b
 80153e8:	60aa6165 5f2d5fed 5da85e6c 5c1b5ce3     ea.`._-_l^.].\.\
 80153f8:	5a865b51 58e959b8 57445817 5598566f     Q[.Z.Y.X.XDWoV.U
 8015408:	53e454bf 522a5308 5068514a 4ea04f85     .T.S.S*RJQhP.O.N
 8015418:	4cd24dba 4afd4be8 49224a10 47414832     .M.L.K.J.J"I2HAG
 8015428:	455b464f 436f4466 417e4277 3f884084     OF[EfDoCwB~A.@.?
 8015438:	3d8d3e8b 3b8d3c8e 398a3a8c 37823886     .>.=.<.;.:.9.8.7
 8015448:	3576367c 3366346e 3153325d 2f3c3048     |6v5n4f3]2S1H0</
 8015458:	2d232e30 2b072c15 28e829f7 26c627d7     0.#-.,.+.).(.'.&
 8015468:	24a325b5 227e2391 2057216b 1e2e1f43     .%.$.#~"k!W C...
 8015478:	1c051d1a 19da1af0 17af18c5 15831699     ................
 8015488:	1357146d 112a1240 0efe1014 0cd20de8     m.W.@.*.........
 8015498:	0aa70bbc 087c0991 06530767 042a053e     ......|.g.S.>.*.
 80154a8:	02040317 ffdf00f1 fdbbfecd fb9afcab     ................
 80154b8:	f97cfa8b f75ff86d f546f652 f330f43a     ..|.m._.R.F.:.0.
 80154c8:	f11cf225 ef0cf014 ed00ee06 eaf7ebfb     %...............
 80154d8:	e8f3e9f5 e6f2e7f2 e4f6e5f4 e2ffe3fa     ................
 80154e8:	e10ce205 df1ee015 dd36de29 db52dc43     ........).6.C.R.
 80154f8:	d974da62 d79cd887 d5cad6b2 d3fdd4e3     b.t.............
 8015508:	d237d319 d077d156 cebdcf99 cd0acde3     ..7.V.w.........
 8015518:	cb5ecc34 c9b9ca8b c81bc8e9 c684c74f     4.^.........O...
 8015528:	c4f5c5bc c36dc430 c1edc2ac c074c12f     ....0.m...../.t.
 8015538:	bf03bfbb bd9bbe4e bc3abce9 bae2bb8d     ....N.....:.....
 8015548:	b992ba39 b84ab8ed b70bb7a9 b5d5b66f     9.....J.....o...
 8015558:	b4a7b53d b382b413 b266b2f3 b153b1db     =.........f...S.
 8015568:	b049b0cd af48afc7 ae50aecb ad62add8     ..I...H...P...b.
 8015578:	ac7dacee aba1ac0e aacfab37 aa06aa69     ..}.....7...i...
 8015588:	a946a9a5 a890a8ea a7e4a839 a741a791     ..F.....9.....A.
 8015598:	a6a8a6f3 a618a65f a593a5d4 a516a553     ...._.......S...
 80155a8:	a4a4a4dc a43ba46e a3dca40a a386a3b0     ....n.;.........
 80155b8:	a33aa35f a2f8a318 a2bfa2da a290a2a6     _.:.............
 80155c8:	a26aa27c a24ea25b a23ca244 a232a236     |.j.[.N.D.<.6.2.
 80155d8:	a233a231 a23ca236 a24fa245 a26ca25c     1.3.6.<.E.O.\.l.
 80155e8:	a291a27d a2bfa2a7 a2f7a2da a337a316     }.............7.
 80155f8:	a381a35b a3d3a3a9 a42ea400 a492a45f     [..........._...
 8015608:	a4fea4c7 a573a538 a5f0a5b1 a676a632     ....8.s.....2.v.
 8015618:	a703a6bc a799a74d a837a7e7 a8dda889     ....M.....7.....
 8015628:	a98aa932 aa3fa9e4 aafcaa9c abbfab5d     2.....?.....]...
 8015638:	ac8bac24 ad5dacf3 ae36adc9 af16aea5     $.....]...6.....
 8015648:	affdaf89 b0ebb073 b1dfb164 b2d9b25b     ....s...d...[...
 8015658:	b3dab359 b4e0b45c b5edb566 b6ffb675     Y...\...f...u...
 8015668:	b817b78a b934b8a5 ba56b9c4 bb7ebae9     ......4...V...~.
 8015678:	bcaabc13 bddbbd42 bf11be76 c04cbfae     ....B...v.....L.
 8015688:	c18ac0ea c2cdc22b c414c370 c55ec4b9     ....+...p.....^.
 8015698:	c6adc605 c7fec755 c953c8a8 caabc9ff     ....U.....S.....
 80156a8:	cc06cb58 cd64ccb5 cec5ce14 d027cf76     X.....d.....v.'.
 80156b8:	d18dd0da d2f4d240 d45dd3a8 d5c8d512     ....@.....].....
 80156c8:	d735d67e d8a2d7eb da12d95a db82daca     ~.5.....Z.......
 80156d8:	dcf3dc3a de65ddac dfd7df1e e14ae091     :.....e.......J.
 80156e8:	e2bde204 e431e377 e5a4e4ea e717e65d     ....w.1.....]...
 80156f8:	e889e7d0 e9fbe942 eb6ceab3 ecdcec24     ....B.....l.$...
 8015708:	ee4bed94 efb9ef02 f126f06f f290f1db     ..K.....o.&.....
 8015718:	f3faf345 f561f4ae f6c7f614 f82af779     E.....a.....y.*.
 8015728:	f98bf8db faeafa3b fc46fb98 fda0fcf3     ....;.....F.....
 8015738:	fef6fe4b 004affa1 019b00f3 02e80242     K.....J.....B...
 8015748:	0432038d 057904d6 06bc061b 07fb075c     ..2...y.....\...
 8015758:	09370899 0a6e09d3 0ba20b08 0cd10c3a     ..7...n.....:...
 8015768:	0dfc0d67 0f230e90 10450fb5 116310d5     g.....#...E...c.
 8015778:	127c11f0 13901307 14a01419 15ab1526     ..|.........&...
 8015788:	16b0162e 17b11731 18ac182f 19a21928     ....1.../...(...
 8015798:	1a931a1b 1b7f1b0a 1c651bf2 1d451cd6     ..........e...E.
 80157a8:	1e211db4 1ef61e8c 1fc61f5f 2090202c     ..!....._..., . 
 80157b8:	215520f3 221321b5 22cc2270 237f2326     . U!.!."p"."&#.#
 80157c8:	242c23d6 24d32480 25752525 261025c3     .#,$.$.$%%u%.%.&
 80157d8:	26a5265b 273526ee 27be277a 28412800     [&.&.&5'z'.'.(A(
 80157e8:	28bf2881 293628fb 29a7296f 2a1329de     .(.(.(6)o).).).*
 80157f8:	2a782a46 2ad72aa8 2b302b04 2b842b5b     F*x*.*.*.+0+[+.+
 8015808:	2bd12bab 2c192bf6 2c5a2c3a 2c962c79     .+.+.+.,:,Z,y,.,
 8015818:	2ccc2cb1 2cfc2ce4 2d262d11 2d4a2d39     .,.,.,.,.-&-9-J-
 8015828:	2d692d5b 2d822d77 2d962d8d 2da42d9e     [-i-w-.-.-.-.-.-
 8015838:	2dac2da9 2db02daf 2dad2daf 2da62daa     .-.-.-.-.-.-.-.-
 8015848:	2d992da0 2d872d90 2d6f2d7c 2d532d62     .-.-.-.-|-o-b-S-
 8015858:	2d322d43 2d0c2d1f 2ce02cf7 2cb12cc9     C-2-.-.-.,.,.,.,
 8015868:	2c7c2c97 2c432c60 2c052c25 2bc32be5     .,|,`,C,%,.,.+.+
 8015878:	2b7d2ba1 2b322b58 2ae32b0b 2a902aba     .+}+X+2+.+.*.*.*
 8015888:	2a392a65 29de2a0c 298029b0 291d294f     e*9*.*.).).)O).)
 8015898:	28b728eb 284e2883 27e12818 277127aa     .(.(.(N(.(.'.'q'
 80158a8:	26fe2738 268726c3 260e264b 259225d0     8'.&.&.&K&.&.%.%
 80158b8:	25132552 249124d2 240d244f 238623ca     R%.%.$.$O$.$.#.#
 80158c8:	22fd2342 227222b7 21e4222b 2155219d     B#."."r"+".!.!U!
 80158d8:	20c3210c 2030207a 1f9c1fe6 1f051f51     .!. z 0 ....Q...
 80158e8:	1e6d1eb9 1dd41e21 1d3a1d87 1c9e1cec     ..m.!.....:.....
 80158f8:	1c021c50 1b641bb3 1ac61b15 1a271a77     P.....d.....w.'.
 8015908:	198819d8 18e81938 18471898 17a717f7     ....8.....G.....
 8015918:	17061757 166516b6 15c51615 15241574     W.....e.....t.$.
 8015928:	148414d4 13e41434 13441394 12a512f5     ....4.....D.....
 8015938:	12071256 116a11b8 10cd111b 1031107f     V.....j.......1.
 8015948:	0f970fe4 0efd0f4a 0e650eb1 0dce0e19     ....J.....e.....
 8015958:	0d380d83 0ca40cee 0c110c5a 0b800bc8     ..8.....Z.......
 8015968:	0af10b38 0a630aaa 09d80a1d 094e0993     8.....c.......N.
 8015978:	08c7090a 08410884 07be07ff 073c077d     ......A.....}.<.
 8015988:	06bd06fd 0641067f 05c70604 054f058b     ......A.......O.
 8015998:	04da0514 046704a0 03f7042f 038a03c0     ......g./.......
 80159a8:	031f0354 02b802eb 02530285 01f10221     T.........S.!...
 80159b8:	019101c1 01350163 00db0108 008500b0     ....c.5.........
 80159c8:	0032005b ffe10009 ff94ffba ff4aff6f     [.2.........o.J.
 80159d8:	ff03ff26 febffee0 fe7efe9e fe40fe5f     &.........~._.@.
 80159e8:	fe06fe23 fdcefdea fd9afdb4 fd69fd81     #.............i.
 80159f8:	fd3bfd52 fd11fd25 fce9fcfc fcc5fcd6     R.;.%...........
 8015a08:	fca3fcb4 fc85fc94 fc6bfc78 fc53fc5e     ........x.k.^.S.
 8015a18:	fc3efc48 fc2cfc35 fc1efc25 fc12fc18     H.>.5.,.%.......
 8015a28:	fc0afc0e fc04fc07 fc02fc03 fc02fc01     ................
 8015a38:	fc05fc03 fc0bfc08 fc14fc0f fc20fc1a     .............. .
 8015a48:	fc2efc27 fc3ffc36 fc53fc49 fc69fc5e     '...6.?.I.S.^.i.
 8015a58:	fc82fc75 fc9dfc8f fcbbfcac fcdbfccb     u...............
 8015a68:	fcfefcec fd22fd10 fd49fd36 fd73fd5e     ......".6.I.^.s.
 8015a78:	fd9efd88 fdcbfdb4 fdfafde2 fe2bfe13     ..............+.
 8015a88:	fe5efe45 fe93fe79 fecafeae ff02fee5     E.^.y...........
 8015a98:	ff3bff1e ff76ff59 ffb3ff95 fff1ffd2     ..;.Y.v.........
 8015aa8:	00300010 00700050 00b20091 00f400d3     ..0.P.p.........
 8015ab8:	01380116 017c015a 01c1019f 020701e4     ..8.Z.|.........
 8015ac8:	024e022a 02950271 02dd02b9 03250301     *.N.q.........%.
 8015ad8:	036d0349 03b60391 03fe03da 04470423     I.m.........#.G.
 8015ae8:	0490046c 04d904b5 052204fd 056a0546     l.........".F.j.
 8015af8:	05b2058e 05fa05d6 0641061e 06880665     ..........A.e...
 8015b08:	06ce06ab 071406f1 07580736 079c077a     ........6.X.z...
 8015b18:	07df07be 08210800 08620841 08a10882     ......!.A.b.....
 8015b28:	08e008c1 091d08fe 0959093b 09930976     ........;.Y.v...
 8015b38:	09cc09b0 0a0309e8 0a390a1e 0a6d0a53     ..........9.S.m.
 8015b48:	0a9f0a86 0acf0ab7 0afd0ae6 0b2a0b14     ..............*.
 8015b58:	0b540b3f 0b7d0b69 0ba30b90 0bc70bb5     ?.T.i.}.........
 8015b68:	0be90bd8 0c080bf9 0c250c17 0c400c33     ..........%.3.@.
 8015b78:	0c590c4d 0c6e0c64 0c820c78 0c930c8b     M.Y.d.n.x.......
 8015b88:	0ca10c9a 0cac0ca7 0cb50cb1 0cbb0cb9     ................
 8015b98:	0cbf0cbe 0cc00cc0 0cbd0cbf 0cb80cbb     ................
 8015ba8:	0cb10cb5 0ca60cac 0c980ca0 0c880c90     ................
 8015bb8:	0c740c7e 0c5e0c6a 0c450c52 0c280c37     ~.t.j.^.R.E.7.(.
 8015bc8:	0c090c19 0be70bf8 0bc10bd4 0b990bae     ................
 8015bd8:	0b6e0b84 0b3f0b57 0b0e0b27 0ada0af4     ..n.W.?.'.......
 8015be8:	0aa30abf 0a680a86 0a2b0a4a 09eb0a0b     ......h.J.+.....
 8015bf8:	09a809ca 09620985 0919093e 08cd08f4     ......b.>.......
 8015c08:	087f08a6 082d0856 07d90804 078207ae     ....V.-.........
 8015c18:	07280756 06cc06fb 066d069d 060b063c     V.(.......m.<...
 8015c28:	05a705d9 05400574 04d7050c 046b04a1     ....t.@.......k.
 8015c38:	03fd0434 038c03c5 031a0353 02a402df     4.......S.......
 8015c48:	022d0269 01b401f1 01380176 00ba00f9     i.-.....v.8.....
 8015c58:	003b007b ffb9fffa ff36ff78 feb1fef4     {.;.....x.6.....
 8015c68:	fe2afe6e fda1fde6 fd17fd5d fc8cfcd2     n.*.....].......
 8015c78:	fbfffc45 fb70fbb7 fae0fb28 fa4ffa98     E.....p.(.....O.
 8015c88:	f9bdfa06 f92af974 f896f8e0 f800f84b     ....t.*.....K...
 8015c98:	f76af7b6 f6d4f71f f63cf688 f5a4f5f0     ..j.......<.....
 8015ca8:	f50cf558 f472f4bf f3d9f426 f33ff38c     X.....r.&.....?.
 8015cb8:	f2a6f2f2 f20cf259 f172f1bf f0d8f125     ....Y.....r.%...
 8015cc8:	f03ef08b efa4eff1 ef0bef58 ee72eebf     ..>.....X.....r.
 8015cd8:	eddaee26 ed42ed8e ecabecf7 ec15ec60     &.....B.....`...
 8015ce8:	eb80ebca eaebeb35 ea58eaa1 e9c5ea0e     ....5.....X.....
 8015cf8:	e934e97c e8a4e8ec e815e85d e788e7cf     |.4.....].......
 8015d08:	e6fde742 e673e6b7 e5eae62e e564e5a7     B.....s.......d.
 8015d18:	e4dfe521 e45ce49e e3dce41c e35de39c     !.....\.......].
 8015d28:	e2e0e31e e266e2a3 e1eee22a e179e1b3     ......f.*.....y.
 8015d38:	e106e13f e095e0cd e027e05e dfbcdff1     ?.......^.'.....
 8015d48:	df54df88 deeedf21 de8bdebc de2cde5b     ..T.!.......[.,.
 8015d58:	ddcfddfd dd75dda2 dd1fdd49 dccbdcf5     ......u.I.......
 8015d68:	dc7bdca3 dc2edc54 dbe5dc09 db9fdbc2     ..{.T...........
 8015d78:	db5ddb7d db1edb3d dae2daff daaadac6     }.].=...........
 8015d88:	da76da90 da46da5e da19da2f d9f0da04     ..v.^.F./.......
 8015d98:	d9cbd9dd d9aad9ba d98dd99b d973d980     ..............s.
 8015da8:	d95ed968 d94cd955 d93fd945 d935d93a     h.^.U.L.E.?.:.5.
 8015db8:	d930d932 d92fd92f d931d92f d938d934     2.0./././.1.4.8.
 8015dc8:	d943d93d d952d94a d965d95b d97cd970     =.C.J.R.[.e.p.|.
 8015dd8:	d998d989 d9b7d9a7 d9dbd9c8 da02d9ee     ................
 8015de8:	da2eda18 da5eda46 da92da78 dacbdaae     ....F.^.x.......
 8015df8:	db07dae8 db47db27 db8cdb69 dbd4dbaf     ....'.G.i.......
 8015e08:	dc20dbfa dc71dc48 dcc5dc9a dd1ddcf1     .. .H.q.........
 8015e18:	dd79dd4b ddd9dda9 de3dde0b dea5de71     K.y.......=.q...
 8015e28:	df10deda df7fdf47 dff2dfb8 e068e02d     ....G.......-.h.
 8015e38:	e0e2e0a5 e160e120 e1e1e1a0 e265e222     .... .`.....".e.
 8015e48:	e2ede2a8 e378e332 e406e3be e497e44e     ....2.x.....N...
 8015e58:	e52ce4e1 e5c4e577 e65ee611 e6fce6ad     ..,.w.....^.....
 8015e68:	e79ce74c e840e7ee e8e6e892 e98ee93a     L.....@.....:...
 8015e78:	ea3ae9e4 eae7ea90 eb98eb3f ec4aebf1     ..:.....?.....J.
 8015e88:	ecffeca4 edb6ed5a ee6fee13 ef2beecd     ....Z.....o...+.
 8015e98:	efe8ef89 f0a7f047 f168f107 f22af1c9     ....G.....h...*.
 8015ea8:	f2eef28c f3b4f351 f47bf417 f543f4df     ....Q.....{...C.
 8015eb8:	f60df5a8 f6d8f672 f7a4f73e f871f80a     ....r...>.....q.
 8015ec8:	f93ef8d7 fa0df9a6 fadcfa74 fbacfb44     ..>.....t...D...
 8015ed8:	fc7cfc14 fd4dfce5 fe1efdb5 feeffe87     ..|...M.........
 8015ee8:	ffc1ff58 00920029 016300fb 023501cc     X...).....c...5.
 8015ef8:	0306029d 03d6036e 04a6043e 0576050e     ....n...>.....v.
 8015f08:	064505dd 071306ac 07e0077a 08ad0847     ..E.....z...G...
 8015f18:	09780913 0a4309de 0b0c0aa8 0bd40b70     ..x...C.....p...
 8015f28:	0c9a0c37 0d5f0cfd 0e230dc1 0ee50e84     7....._...#.....
 8015f38:	0fa50f45 10631004 112010c2 11da117d     E.....c... .}...
 8015f48:	12921236 134812ee 13fc13a3 14ae1456     6.....H.....V...
 8015f58:	155d1506 160a15b4 16b41660 175c1709     ..].....`.....\.
 8015f68:	180117af 18a31852 194218f3 19df1991     ....R.....B.....
 8015f78:	1a781a2c 1b0f1ac4 1ba21b59 1c321beb     ,.x.....Y.....2.
 8015f88:	1cbf1c79 1d491d05 1dcf1d8d 1e521e11     y.....I.......R.
 8015f98:	1ed21e93 1f4e1f10 1fc71f8b 203b2001     ......N...... ; 
 8015fa8:	20ad2074 211a20e4 21842150 21ea21b8     t . . .!P!.!.!.!
 8015fb8:	224c221c 22ab227c 230622d9 235c2331     ."L"|".".".#1#\#
 8015fc8:	23af2386 23fe23d7 24492424 248f246c     .#.#.#.#$$I$l$.$
 8015fd8:	24d224b1 251124f2 254b252f 25822567     .$.$.$.%/%K%g%.%
 8015fe8:	25b4259c 25e325cc 260d25f8 26332620     .%.%.%.%.%.& &3&
 8015ff8:	26552645 26732664 268d2680 26a22698     E&U&d&s&.&.&.&.&
 8016008:	26b426ab 26c126bb 26ca26c6 26cf26cd     .&.&.&.&.&.&.&.&
 8016018:	26d026d0 26cd26cf 26c626ca 26bb26c1     .&.&.&.&.&.&.&.&
 8016028:	26ac26b4 269926a3 2682268e 26672675     .&.&.&.&.&.&u&g&
 8016038:	26482658 26252637 25ff2613 25d425ea     X&H&7&%&.&.%.%.%
 8016048:	25a625be 2574258e 253f255a 25052523     .%.%.%t%Z%?%#%.%
 8016058:	24c924e7 248824a9 24442467 23fd2421     .$.$.$.$g$D$!$.#
 8016068:	23b223d8 2364238c 2313233c 22be22e9     .#.#.#d#<#.#."."
 8016078:	22662293 220b2239 21ad21dd 214d217d     ."f"9".".!.!}!M!
 8016088:	20e9211b 208220b6 2018204d 1fac1fe2     .!. . . M . ....
 8016098:	1f3d1f75 1ecc1f05 1e571e92 1de11e1d     u.=.......W.....
 80160a8:	1d681da5 1ced1d2b 1c701caf 1bf01c30     ..h.+.....p.0...
 80160b8:	1b6f1bb0 1aeb1b2d 1a661aa9 19de1a22     ..o.-.....f."...
 80160c8:	1955199a 18cb1910 183e1885 17b117f8     ..U.......>.....
 80160d8:	17221769 169116d9 15ff1648 156d15b6     i.".....H.....m.
 80160e8:	14d91523 1444148e 13ae13f9 13171363     #.....D.....c...
 80160f8:	128012cc 11e81234 1150119c 10b71103     ....4.....P.....
 8016108:	101d106a 0f840fd0 0eea0f37 0e500e9d     j.......7.....P.
 8016118:	0db60e03 0d1c0d69 0c820ccf 0be90c35     ....i.......5...
 8016128:	0b4f0b9c 0ab60b03 0a1e0a6a 098609d2     ..O.....j.......
 8016138:	08ef093a 085808a4 07c3080d 072e0778     :.....X.....x...
 8016148:	069a06e4 06070651 057605be 04e5052d     ....Q.....v.-...
 8016158:	0456049d 03c8040f 033b0381 02b002f6     ..V.......;.....
 8016168:	0227026b 019f01e3 0119015c 009400d6     k.'.....\.......
 8016178:	00120053 ff91ffd1 ff12ff51 fe95fed3     S.......Q.......
 8016188:	fe1bfe58 fda2fdde fd2bfd66 fcb7fcf1     X.......f.+.....
 8016198:	fc45fc7e fbd6fc0d fb68fb9f fafefb33     ~.E.......h.3...
 80161a8:	fa95fac9 fa30fa62 f9ccf9fe f96cf99c     ....b.0.......l.
 80161b8:	f90ef93c f8b2f8e0 f85af886 f804f82e     <.........Z.....
 80161c8:	f7b1f7da f761f788 f713f739 f6c8f6ed     ......a.9.......
 80161d8:	f681f6a4 f63cf65e f5faf61b f5bbf5da     ....^.<.........
 80161e8:	f57ff59d f546f562 f510f52b f4ddf4f6     ....b.F.+.......
 80161f8:	f4adf4c4 f480f496 f456f46a f42ef442     ........j.V.B...
 8016208:	f40af41c f3e9f3f9 f3cbf3da f3b0f3bd     ................
 8016218:	f398f3a3 f382f38d f370f379 f361f368     ........y.p.h.a.
 8016228:	f354f35a f34bf34f f344f347 f340f342     Z.T.O.K.G.D.B.@.
 8016238:	f33ff33f f341f340 f346f343 f34df349     ?.?.@.A.C.F.I.M.
 8016248:	f357f352 f364f35d f373f36b f385f37b     R.W.].d.k.s.{...
 8016258:	f399f38e f3b0f3a4 f3c9f3bc f3e5f3d7     ................
 8016268:	f403f3f4 f424f413 f446f435 f46bf458     ......$.5.F.X.k.
 8016278:	f492f47f f4bcf4a7 f4e7f4d1 f514f4fd     ................
 8016288:	f543f52b f574f55b f5a7f58d f5dcf5c1     +.C.[.t.........
 8016298:	f612f5f7 f64af62e f683f666 f6bef6a0     ......J.f.......
 80162a8:	f6faf6dc f738f719 f777f757 f7b7f797     ......8.W.w.....
 80162b8:	f7f8f7d8 f83bf819 f87ef85c f8c2f8a0     ......;.\.~.....
 80162c8:	f907f8e4 f94df92a f993f970 f9daf9b7     ....*.M.p.......
 80162d8:	fa22f9fe fa6afa45 fab2fa8e fafafad6     ..".E.j.........
 80162e8:	fb43fb1f fb8cfb68 fbd5fbb0 fc1efbf9     ..C.h...........
 80162f8:	fc66fc42 fcaffc8b fcf7fcd3 fd3ffd1b     B.f...........?.
 8016308:	fd87fd63 fdcdfdaa fe14fdf1 fe59fe37     c...........7.Y.
 8016318:	fe9efe7c fee2fec0 ff25ff04 ff67ff47     |.........%.G.g.
 8016328:	ffa8ff88 ffe8ffc9 00270008 00640046     ..........'.F.d.
 8016338:	00a00083 00db00be 011400f8 014b0130     ............0.K.
 8016348:	01810166 01b5019b 01e701cf 02180200     f...............
 8016358:	0246022f 0273025d 029d0288 02c502b2     /.F.].s.........
 8016368:	02eb02d9 030f02fe 03310320 03500341     ........ .1.A.P.
 8016378:	036d035f 0387037a 039f0393 03b403aa     _.m.z...........
 8016388:	03c703be 03d703cf 03e403de 03ef03ea     ................
 8016398:	03f603f3 03fb03f9 03fd03fd 03fd03fd     ................
 80163a8:	03f903fb 03f203f6 03e803ee 03dc03e2     ................
 80163b8:	03cc03d4 03b903c3 03a303ae 038a0397     ................
 80163c8:	036e037c 034f035f 032c033e 0307031a     |.n._.O.>.,.....
 80163d8:	02de02f3 02b202c8 0283029b 0250026a     ............j.P.
 80163e8:	021b0236 01e201ff 01a701c5 01680187     6.............h.
 80163f8:	01250147 00e00103 009800bc 004c0073     G.%.........s.L.
 8016408:	fffe0026 ffacffd5 ff58ff82 ff00ff2c     &.........X.,...
 8016418:	fea6fed3 fe48fe77 fde8fe18 fd84fdb6     ....w.H.........
 8016428:	fd1efd52 fcb5fcea fc4afc80 fbdbfc13     R.........J.....
 8016438:	fb6afba3 faf7fb31 fa80fabc fa08fa44     ..j.1.......D...
 8016448:	f98df9ca f90ff94e f88ff8cf f80df84e     ....N.......N...
 8016458:	f789f7cb f702f746 f67af6be f5f0f635     ....F.....z.5...
 8016468:	f563f5aa f4d5f51c f445f48d f3b3f3fc     ..c.......E.....
 8016478:	f320f36a f28bf2d6 f1f5f240 f15ef1a9     j. .....@.....^.
 8016488:	f0c5f111 f02bf078 ef90efdd eef3ef42     ....x.+.....B...
 8016498:	ee56eea5 edb9ee08 ed1aed69 ec7beccb     ..V.....i.....{.
 80164a8:	ebdbec2b eb3beb8b ea9beaeb e9faea4a     +.....;.....J...
 80164b8:	e959e9aa e8b9e909 e818e868 e777e7c8     ..Y.....h.....w.
 80164c8:	e6d7e727 e637e687 e598e5e8 e4f9e549     '.....7.....I...
 80164d8:	e45ce4aa e3bee40d e322e370 e287e2d5     ..\.....p.".....
 80164e8:	e1ede23a e155e1a1 e0bde109 e028e072     :.....U.....r.(.
 80164f8:	df94dfdd df01df4a de71deb9 dde2de29     ....J.....q.)...
 8016508:	dd55dd9b dccbdd10 dc43dc87 dbbddc00     ..U.......C.....
 8016518:	db3adb7b dab9daf9 da3bda7a d9c0d9fd     {.:.....z.;.....
 8016528:	d948d984 d8d3d90d d861d899 d7f2d829     ..H.......a.)...
 8016538:	d786d7bc d71ed752 d6bad6ec d659d689     ....R.........Y.
 8016548:	d5fcd62a d5a3d5cf d54dd577 d4fcd524     *.......w.M.$...
 8016558:	d4afd4d5 d466d48a d421d443 d3e1d400     ......f.C.!.....
 8016568:	d3a5d3c2 d36dd388 d33bd353 d30dd323     ......m.S.;.#...
 8016578:	d2e4d2f8 d2bfd2d1 d2a0d2af d286d292     ................
 8016588:	d271d27b d261d268 d256d25a d250d252     {.q.h.a.Z.V.R.P.
 8016598:	d250d24f d255d252 d260d25a d270d267     O.P.R.U.Z.`.g.p.
 80165a8:	d286d27a d2a1d293 d2c3d2b1 d2e9d2d5     z...............
 80165b8:	d316d2ff d348d32e d380d364 d3bed39f     ......H.d.......
 80165c8:	d402d3e0 d44cd427 d49cd473 d4f2d4c6     ....'.L.s.......
 80165d8:	d54dd51f d5afd57d d617d5e2 d684d64d     ..M.}.......M...
 80165e8:	d6f8d6bd d772d734 d7f2d7b1 d877d834     ....4.r.....4.w.
 80165f8:	d903d8bc d995d94b da2dd9e0 dacada7b     ....K.....-.{...
 8016608:	db6edb1b dc17dbc2 dcc7dc6e dd7cdd21     ..n.....n...!.|.
 8016618:	de37ddd9 def8de97 dfbfdf5b e08ce025     ..7.....[...%...
 8016628:	e15ee0f4 e235e1c9 e313e2a3 e3f6e383     ..^...5.........
 8016638:	e4dee469 e5cbe554 e6bfe644 e7b7e73a     i...T...D...:...
 8016648:	e8b4e835 e9b7e935 eabeea3a ebcbeb44     5...5...:...D...
 8016658:	ecddec53 edf3ed67 ef0eee80 f02def9d     S...g.........-.
 8016668:	f151f0bf f27af1e5 f3a7f310 f4d8f43f     ..Q...z.....?...
 8016678:	f60df572 f746f6a9 f883f7e4 f9c4f923     r.....F.....#...
 8016688:	fb09fa66 fc51fbac fd9cfcf6 feebfe43     f.....Q.....C...
 8016698:	003dff93 019100e7 02e9023d 04440396     ..=.....=.....D.
 80166a8:	05a104f2 07010651 086307b1 09c70915     ....Q.....c.....
 80166b8:	0b2d0a7a 0c960be1 0e000d4a 0f6b0eb5     z.-.....J.....k.
 80166c8:	10d81021 1247118f 13b612fe 1527146e     !.....G.....n.'.
 80166d8:	169815df 180a1751 197d18c3 1af01a36     ....Q.....}.6...
 80166e8:	1c631ba9 1dd61d1c 1f491e90 20bc2002     ..c.......I.. . 
 80166f8:	222e2175 23a022e7 25102458 268025c9     u!.".".#X$.%.%.&
 8016708:	27ef2738 295c28a6 2ac82a13 2c332b7e     8'.'.(\).*.*~+3,
 8016718:	2d9b2ce7 2f022e4f 30662fb4 31c83117     .,.-O.././f0.1.1
 8016728:	33273278 348433d6 35de3531 3735368a     x2'3.3.415.5.657
 8016738:	388837df 39d93931 3b253a7f 3c6e3bca     .7.819.9.:%;.;n<
 8016748:	3db43d11 3ef53e55 40323f94 416a40cf     .=.=U>.>.?2@.@jA
 8016758:	429e4205 43ce4337 44f84464 461e458c     .B.B7C.CdD.D.E.F
 8016768:	473e46ae 485947cc 496e48e4 4a7e49f7     .F>G.GYH.HnI.I~J
 8016778:	4b884b04 4c8d4c0b 4d8b4d0c 4e824e07     .K.K.L.L.M.M.N.N
 8016788:	4f744efc 505f4fea 514350d2 522151b3     .NtO.O_P.PCQ.Q!R
 8016798:	52f7528d 53c75360 548f542c 555054f0     .R.R`S.S,T.T.TPU
 80167a8:	560955ae 56bb5663 57665711 580857b8     .U.VcV.V.WfW.W.X
 80167b8:	58a35856 593558ed 59c0597b 5a425a02     VX.X.X5Y{Y.Y.ZBZ
 80167c8:	5abc5a80 5b2d5af5 5b965b63 5bf65bc7     .Z.Z.Z-[c[.[.[.[
 80167d8:	5c4e5c23 5c9c5c76 5ce25cc1 5d1f5d02     #\N\v\.\.\.\.].]
 80167e8:	5d535d3a 5d7e5d6a 5da05d90 5db85dad     :]S]j]~].].].].]
 80167f8:	5dc85dc1 5dcd5dcc 5dca5dcd 5dbd5dc5     .].].].].].].].]
 8016808:	5da75db3 5d875d98 5d5d5d73 5d2a5d45     .].].].]s]]]E]*]
 8016818:	5cee5d0d 5ca85ccc 5c585c81 5bfe5c2c     .].\.\.\.\X\,\.[
 8016828:	5b9b5bce 5b2f5b66 5ab85af5 5a385a79     .[.[f[/[.Z.ZyZ8Z
 8016838:	59ae59f4 591b5966 587e58ce 57d7582c     .Y.YfY.Y.X~X,X.W
 8016848:	57275780 566d56cb 55aa560d 54dd5545     .W'W.VmV.V.UEU.T
 8016858:	54075474 53285399 523f52b4 514d51c7     tT.T.S(S.R?R.QMQ
 8016868:	505150d0 4f4d4fd0 4e3f4ec7 4d294db5     .PQP.OMO.N?N.M)M
 8016878:	4c094c9a 4ae14b76 49af4a49 48754913     .L.LvK.JIJ.I.IuH
 8016888:	473347d5 45e8468f 4495453f 433943e8     .G3G.F.E?E.D.C9C
 8016898:	41d54288 40694120 3ef53fb0 3d7a3e38     .B.A Ai@.?.>8>z=
 80168a8:	3bf63cb9 3a6b3b32 38d939a3 373f380d     .<.;2;k:.9.8.8?7
 80168b8:	359e366f 33f634cb 32473320 3092316d     o6.5.4.3 3G2m1.0
 80168c8:	2ed62fb5 2d132df5 2b4a2c30 297c2a64     ./...-.-0,J+d*|)
 80168d8:	27a72892 25cc26ba 23ec24dd 220722fa     .(.'.&.%.$.#."."
 80168e8:	201c2112 1e2c1f25 1c371d32 1a3e1b3b     .!. %.,.2.7.;.>.
 80168f8:	18401940 163e1740 1438153c 122e1333     @.@.@.>.<.8.3...
 8016908:	10201127 0e0f0f18 0bfa0d05 09e20aef     '. .............
 8016918:	07c808d5 05ab06ba 038b049b 0169027a     ............z.i.
 8016928:	ff450057 fd1ffe32 faf8fc0c f8cff9e4     W.E.2...........
 8016938:	f6a5f7ba f47af590 f24ff365 f023f139     ......z.e.O.9.#.
 8016948:	edf6ef0c ebcaece0 e99eeab4 e772e888     ..............r.
 8016958:	e547e65c e31de432 e0f3e208 deccdfdf     \.G.2...........
 8016968:	dca5ddb8 da81db93 d85ed96f d63ed74e     ........o.^.N.>.
 8016978:	d420d52f d205d312 cfedd0f8 cdd7cee2     /. .............
 8016988:	cbc6ccce c9b7cabe c7adc8b2 c5a7c6a9     ................
 8016998:	c3a4c4a5 c1a7c2a5 bfaec0aa bdbabeb3     ................
 80169a8:	bbcbbcc1 b9e1bad5 b7fdb8ee b61eb70d     ................
 80169b8:	b446b531 b273b35c b0a7b18d aee2afc4     1.F.\.s.........
 80169c8:	ad23ae02 ab6cac47 a9bbaa93 a812a8e6     ..#.G.l.........
 80169d8:	a670a740 a4d6a5a2 a344a40c a1baa27e     @.p.......D.~...
 80169e8:	a038a0f8 9ebf9f7a 9d4e9e05 9be69c99     ..8.z.....N.....
 80169f8:	9a879b35 993199db 97e49889 96a19741     5.....1.....A...
 8016a08:	95679603 943794ce 931093a2 91f49281     ..g...7.........
 8016a18:	90e2916a 8fda905c 8edc8f5a 8de98e61     j...\...Z...a...
 8016a28:	8d008d73 8c228c90 8b4f8bb7 8a878aea     s....."...O.....
 8016a38:	89ca8a27 89188970 887188c3 87d68822     '...p.....q."...
 8016a48:	8745878c 86c18702 86488683 85da860f     ..E.......H.....
 8016a58:	857885a8 8522854c 84d884fb 849984b7     ..x.L.".........
 8016a68:	8466847e 84408452 84258431 8416841c     ~.f.R.@.1.%.....
 8016a78:	84138413 841c8416 84318425 84538440     ........%.1.@.S.
 8016a88:	84808468 84b9849b 84fe84da 85508526     h...........&.P.
 8016a98:	85ad857d 861685e0 868c8650 870d86cb     }.......P.......
 8016aa8:	879a8752 883387e5 88d88884 8989892f     R.....3...../...
 8016ab8:	8a4589e5 8b0d8aa7 8be08b75 8cbf8c4e     ..E.....u...N...
 8016ac8:	8daa8d33 8e9f8e23 8fa08f1e 90ad9025     3...#.......%...
 8016ad8:	91c49137 92e69254 9413937b 954b94ae     7...T...{.....K.
 8016ae8:	968e95eb 97db9733 99329885 9a9499e2     ....3.....2.....
 8016af8:	9c009b49 9d769cba 9ef69e35 a07f9fb9     I.....v.5.......
 8016b08:	a213a148 a3afa2e0 a555a481 a704a62b     H.........U.+...
 8016b18:	a8bca7df aa7da99b ac46ab60 ae18ad2e     ......}.`.F.....
 8016b28:	aff2af04 b1d4b0e2 b3beb2c8 b5afb4b6     ................
 8016b38:	b7a9b6ab b9a9b8a8 bbb1baac bdbfbcb7     ................
 8016b48:	bfd4bec9 c1f0c0e2 c412c300 c63ac525     ............%.:.
 8016b58:	c868c750 ca9cc981 ccd5cbb7 cf13cdf3     P.h.............
 8016b68:	d156d034 d39ed279 d5ead4c3 d83bd712     4.V.y.........;.
 8016b78:	da8fd964 dce8dbbb df44de15 e1a3e073     d.........D.s...
 8016b88:	e405e2d4 e66be538 e8d2e79e eb3dea07     ....8.k.......=.
 8016b98:	eda9ec73 f017eee0 f287f14f f4f8f3bf     s.......O.......
 8016ba8:	f76af631 f9ddf8a4 fc51fb17 fec5fd8b     1.j.......Q.....

08016bb8 <tone_table>:
 8016bb8:	00fb0000 02f101f6 04e803ed 06de05e3     ................
 8016bc8:	08d407d9 0ac909ce 0cbd0bc3 0eb10db7     ................
 8016bd8:	10a40faa 1296119d 1486138e 1676157e     ............~.v.
 8016be8:	1864176d 1a51195a 1c3c1b46 1e251d31     m.d.Z.Q.F.<.1.%.
 8016bf8:	200d1f19 21f22100 23d622e4 25b724c7     ... .!.!.".#.$.%
 8016c08:	279626a7 29732885 2b4d2a61 2d252c3a     .&.'.(s)a*M+:,%-
 8016c18:	2efa2e10 30cc2fe3 329b31b4 34673382     ...../.0.1.2.3g4
 8016c28:	3630354c 37f63714 39b838d8 3b773a98     L506.7.7.8.9.:w;
 8016c38:	3d323c55 3eea3e0f 409e3fc4 424e4176     U<2=.>.>.?.@vANB
 8016c48:	43fa4324 45a144ce 47454674 48e44815     $C.C.D.EtFEG.H.H
 8016c58:	4a7f49b2 4c164b4b 4da84cdf 4f354e6f     .I.JKK.L.L.MoN5O
 8016c68:	50bd4ffa 52415180 53bf5301 5539547d     .O.P.QAR.S.S}T9U
 8016c78:	56ad55f4 581d5766 598658d2 5aeb5a39     .U.VfW.X.X.Y9Z.Z
 8016c88:	5c4a5b9b 5da35cf7 5ef75e4e 60455f9f     .[J\.\.]N^.^._E`
 8016c98:	618e60ea 62d06230 640d636f 654364a8     .`.a0b.boc.d.dCe
 8016ca8:	667365dc 679d6709 68c16830 69df6951     .esf.g.g0h.hQi.i
 8016cb8:	6af66a6b 6c076b7f 6d116c8d 6e156d94     kj.j.k.l.l.m.m.n
 8016cc8:	6f126e94 70096f8e 70f87081 71e1716d     .n.o.o.p.p.pmq.q
 8016cd8:	72c37253 739e7331 74727409 753f74da     Sr.r1s.s.trt.t?u
 8016ce8:	760575a3 76c47666 777c7721 782d77d5     .u.vfv.v!w|w.w-x
 8016cf8:	78d67882 79787928 7a1379c6 7aa67a5d     .x.x(yxy.y.z]z.z
 8016d08:	7b327aed 7bb77b75 7c347bf6 7ca97c6f     .z2{u{.{.{4|o|.|
 8016d18:	7d177ce1 7d7e7d4c 7ddd7daf 7e357e0a     .|.}L}~}.}.}.~5~
 8016d28:	7e847e5d 7ecd7ea9 7f0d7eee 7f467f2b     ]~.~.~.~.~..+.F.
 8016d38:	7f777f60 7fa17f8d 7fc37fb3 7fdd7fd1     `.w.............
 8016d48:	7ff07fe7 7ffa7ff6 7ffd7ffd 7ff97ffc     ................
 8016d58:	7fed7ff4 7fd87fe3 7fbd7fcc 7f997fac     ................
 8016d68:	7f6e7f85 7f3b7f56 7f017f1f 7ebf7ee1     ..n.V.;......~.~
 8016d78:	7e757e9b 7e247e4d 7dcb7df8 7d6a7d9b     .~u~M~$~.}.}.}j}
 8016d88:	7d027d37 7c927ccb 7c1b7c58 7b9d7bdd     7}.}.|.|X|.|.{.{
 8016d98:	7b177b5b 7a897ad1 79f47a40 795879a7     [{.{.z.z@z.y.yXy
 8016da8:	78b57907 780a7860 775877b2 769f76fc     .y.x`x.x.wXw.v.v
 8016db8:	75de763f 7517757b 744874b0 737373de     ?v.u{u.u.tHt.sss
 8016dc8:	72967305 71b37226 70c9713f 6fd87051     .s.r&r.q?q.pQp.o
 8016dd8:	6ee06f5d 6de26e62 6cdd6d60 6bd16c58     ]o.nbn.m`m.lXl.k
 8016de8:	6abf6b49 69a66a33 68886918 676267f6     Ik.j3j.i.i.h.gbg
 8016df8:	663766cd 6505659f 63ce646a 62906330     .f7f.e.ejd.c0c.b
 8016e08:	614c61ef 600360a8 5eb45f5c 5d5f5e0a     .aLa.`.`\_.^.^_]
 8016e18:	5c045cb2 5aa45b55 593e59f2 57d4588a     .\.\U[.Z.Y>Y.X.W
 8016e28:	5663571c 54ee55a9 53735431 51f452b4     .WcV.U.T1TsS.R.Q
 8016e38:	506f5132 4ee64fab 4d584e1f 4bc54c8f     2QoP.O.N.NXM.L.K
 8016e48:	4a2e4afa 48924960 46f247c2 454d4620     .J.J`I.H.G.F FME
 8016e58:	43a44479 41f842cf 40474120 3e923f6d     yD.C.B.A AG@m?.>
 8016e68:	3cda3db7 3b1e3bfd 395f3a3f 379c387d     .=.<.;.;?:_9}8.7
 8016e78:	35d536b9 340c34f1 323f3326 306f3157     .6.5.4.4&3?2W1o0
 8016e88:	2e9c2f86 2cc72db2 2aef2bdb 29142a02     ./...-.,.+.*.*.)
 8016e98:	27372826 25572647 23752466 21912283     &(7'G&W%f$u#.".!
 8016ea8:	1fab209e 1dc31eb7 1bda1ccf 19ee1ae4     . ..............
 8016eb8:	180118f8 1613170a 1423151b 1232132b     ..........#.+.2.
 8016ec8:	10401139 0e4d0f47 0c590d53 0a640b5f     9.@.G.M.S.Y._.d.
 8016ed8:	086f096a 06790774 0483057e 028d0388     j.o.t.y.~.......
 8016ee8:	00960192 fea0ff9b fca9fda4 fab3fbae     ................
 8016ef8:	f8bdf9b8 f6c7f7c2 f4d2f5cd f2def3d8     ................
 8016f08:	f0eaf1e4 eef8eff1 ed06edff eb16ec0e     ................
 8016f18:	e926ea1e e738e82f e54ce642 e361e457     ..&./.8.B.L.W.a.
 8016f28:	e178e26d df91e085 ddacde9e dbc9dcba     m.x.............
 8016f38:	d9e8dad8 d809d8f8 d62dd71b d453d540     ..........-.@.S.
 8016f48:	d27cd367 d0a8d191 ced6cfbe cd08cdee     g.|.............
 8016f58:	cb3ccc21 c974ca57 c7afc891 c5edc6cd     !.<.W.t.........
 8016f68:	c42fc50d c274c351 c0bdc198 bf0abfe3     ../.Q.t.........
 8016f78:	bd5bbe32 bbb0bc85 ba09badc b867b937     2.[.........7.g.
 8016f88:	b6c8b797 b52eb5fa b398b463 b208b2cf     ........c.......
 8016f98:	b07bb141 aef4afb7 ad71ae32 abf4acb2     A.{.....2.q.....
 8016fa8:	aa7bab37 a908a9c1 a79aa850 a631a6e5     7.{.....P.....1.
 8016fb8:	a4cda57e a370a41e a217a2c3 a0c4a16d     ~.....p.....m...
 8016fc8:	9f78a01d 9e309ed3 9cef9d8f 9bb49c51     ..x...0.....Q...
 8016fd8:	9a7f9b19 995099e6 982798ba 97049795     ......P...'.....
 8016fe8:	95e89675 94d2955c 93c29449 92b9933d     u...\...I...=...
 8016ff8:	91b79237 90bb9138 8fc69040 8ed88f4e     7...8...@...N...
 8017008:	8df08e63 8d108d7f 8c368ca2 8b638bcc     c.........6...c.
 8017018:	8a988afd 89d38a34 89158973 885f88b9     ....4...s....._.
 8017028:	87b08807 8708875b 866886b7 85ce861a     ....[.....h.....
 8017038:	853c8584 84b284f6 842f846f 83b383f0     ..<.....o./.....
 8017048:	833f8378 82d28308 826d829f 8210823e     x.?.......m.>...
 8017058:	81ba81e4 816c8192 81258147 80e68104     ......l.G.%.....
 8017068:	80ae80c9 807f8096 8057806a 80368045     ........j.W.E.6.
 8017078:	801e8029 800d8014 80038007 80028002     )...............
 8017088:	80088004 8016800e 802b8020 80498039     ........ .+.9.I.
 8017098:	806e805a 809a8083 80cf80b4 810b80ec     Z.n.............
 80170a8:	814e812c 819a8173 81ed81c2 82478219     ,.N.s.........G.
 80170b8:	82a98277 831382dd 8384834a 83fc83bf     w.......J.......
 80170c8:	847d843c 850484bf 8593854b 862985dd     <.}.....K.....).
 80170d8:	86c78677 876c8719 881887c1 88cc8871     w.....l.....q...
 80170e8:	89868928 8a4889e6 8b118aac 8be18b78     (.....H.....x...
 80170f8:	8cb88c4b 8d968d26 8e7a8e07 8f668eef     K...&.....z...f.
 8017108:	90588fde 915190d4 925191d0 935792d3     ..X...Q...Q...W.
 8017118:	946493dd 957894ed 96919604 97b29721     ..d...x.....!...
 8017128:	98d89844 9a05996e 9b379a9d 9c709bd3     D...n.....7...p.
 8017138:	9daf9d0f 9ef49e51 a03f9f99 a18fa0e6     ....Q.....?.....
 8017148:	a2e5a239 a441a392 a5a2a4f1 a709a655     9.....A.....U...
 8017158:	a875a7be a9e6a92d ab5caaa1 acd8ac1a     ..u.-.....\.....
 8017168:	ae59ad98 afdeaf1b b168b0a3 b2f8b22f     ..Y.......h./...
 8017178:	b48bb3c1 b623b557 b7c0b6f1 b961b890     ....W.#.......a.
 8017188:	bb07ba33 bcb0bbdb be5ebd86 c00fbf36     3.........^.6...
 8017198:	c1c4c0e9 c37dc2a0 c53ac45b c6fac61a     ......}.[.:.....
 80171a8:	c8bec7dc ca85c9a1 cc4fcb6a ce1dcd36     ........j.O.6...
 80171b8:	cfedcf04 d1c0d0d6 d396d2ab d56fd482     ..............o.
 80171c8:	d74ad65c d928d839 db08da18 dceadbf9     \.J.9.(.........
 80171d8:	decfdddc e0b5dfc2 e29ee1a9 e488e392     ................
 80171e8:	e673e57d e861e76a ea4fe958 ec3feb47     }.s.j.a.X.O.G.?.
 80171f8:	ee30ed38 f023ef29 f216f11c f40af310     8.0.).#.........
 8017208:	f5fff504 f7f4f6f9 f9eaf8ef fbe0fae5     ................
 8017218:	fdd7fcdb ffcdfed2 01c400c9 03ba02bf     ................
 8017228:	05b104b6 07a706ac 099c08a1 0b910a97     ................
 8017238:	0d850c8b 0f790e7f 116b1072 135c1264     ......y.r.k.d.\.
 8017248:	154d1455 173c1644 19291833 1b151a1f     U.M.D.<.3.).....
 8017258:	1d001c0b 1ee81df4 20cf1fdc 22b421c2     ........... .!."
 8017268:	249723a5 26772587 28552767 2a312944     .#.$.%w&g'U(D)1*
 8017278:	2c0a2b1e 2de12cf6 2fb52ecb 3186309e     .+.,.,.-.../.0.1
 8017288:	3354326d 351f3439 36e63603 38ab37c9     m2T394.5.6.6.7.8
 8017298:	3a6c398b 3c293b4b 3de33d06 3f993ebe     .9l:K;)<.=.=.>.?
 80172a8:	414b4072 42f94223 44a443cf 464a4577     r@KA#B.B.C.DwEJF
 80172b8:	47ec471b 498948bb 4b224a56 4cb74bed     .G.G.H.IVJ"K.K.L
 80172c8:	4e474d80 4fd24f0d 51595096 52da521a     .MGN.O.O.PYQ.R.R
 80172d8:	54575399 55cf5513 57415688 58ae57f8     .SWT.U.U.VAW.W.X
 80172e8:	5a165962 5b785ac8 5cd55c27 5e2c5d81     bY.Z.Zx['\.\.],^
 80172f8:	5f7e5ed6 60c96024 620f616d 634f62b0     .^~_$`.`ma.b.bOc
 8017308:	648963ed 65bd6524 66eb6655 68136780     .c.d$e.eUf.f.g.h
 8017318:	693468a4 6a4f69c3 6b646adb 6c726bec     .h4i.iOj.jdk.krl
 8017328:	6d7a6cf7 6e7b6dfb 6f766ef9 70696ff0     .lzm.m{n.nvo.oip
 8017338:	715670e1 723c71ca 731b72ad 73f47388     .pVq.q<r.r.s.s.s
 8017348:	74c5745d 758f752b 765375f2 770f76b1     ]t.t+u.u.uSv.v.w
 8017358:	77c3776a 7871781b 791878c5 79b77968     jw.w.xqx.x.yhy.y
 8017368:	7a4f7a04 7adf7a98 7b687b24 7bea7baa     .zOz.z.z${h{.{.{
 8017378:	7c647c28 7cd67c9e 7d417d0d 7da57d74     (|d|.|.|.}A}t}.}
 8017388:	7e017dd4 7e557e2c 7ea27e7d 7ee77ec6     .}.~,~U~}~.~.~.~
 8017398:	7f257f07 7f5b7f41 7f897f73 7faf7f9d     ..%.A.[.s.......
 80173a8:	7fce7fc0 7fe57fdb 7ff57fee 7ffd7ffa     ................
 80173b8:	7ffd7ffe 7ff57ffa 7fe57fee 7fce7fdb     ................
 80173c8:	7faf7fc0 7f897f9d 7f5b7f73 7f257f41     ........s.[.A.%.
 80173d8:	7ee77f07 7ea27ec6 7e557e7d 7e017e2c     ...~.~.~}~U~,~.~
 80173e8:	7da57dd4 7d417d74 7cd67d0d 7c647c9e     .}.}t}A}.}.|.|d|
 80173f8:	7bea7c28 7b687baa 7adf7b24 7a4f7a98     (|.{.{h{${.z.zOz
 8017408:	79b77a04 79187968 787178c5 77c3781b     .z.yhy.y.xqx.x.w
 8017418:	770f776a 765376b1 758f75f2 74c5752b     jw.w.vSv.u.u+u.t
 8017428:	73f4745d 731b7388 723c72ad 715671ca     ]t.s.s.s.r<r.qVq
 8017438:	706970e1 6f766ff0 6e7b6ef9 6d7a6dfb     .pip.ovo.n{n.mzm
 8017448:	6c726cf7 6b646bec 6a4f6adb 693469c3     .lrl.kdk.jOj.i4i
 8017458:	681368a4 66eb6780 65bd6655 64896524     .h.h.g.fUf.e$e.d
 8017468:	634f63ed 620f62b0 60c9616d 5f7e6024     .cOc.b.bma.`$`~_
 8017478:	5e2c5ed6 5cd55d81 5b785c27 5a165ac8     .^,^.].\'\x[.Z.Z
 8017488:	58ae5962 574157f8 55cf5688 54575513     bY.X.WAW.V.U.UWT
 8017498:	52da5399 5159521a 4fd25096 4e474f0d     .S.R.RYQ.P.O.OGN
 80174a8:	4cb74d80 4b224bed 49894a56 47ec48bb     .M.L.K"KVJ.I.H.G
 80174b8:	464a471b 44a44577 42f943cf 414b4223     .GJFwE.D.C.B#BKA
 80174c8:	3f994072 3de33ebe 3c293d06 3a6c3b4b     r@.?.>.=.=)<K;l:
 80174d8:	38ab398b 36e637c9 351f3603 33543439     .9.8.7.6.6.594T3
 80174e8:	3186326d 2fb5309e 2de12ecb 2c0a2cf6     m2.1.0./...-.,.,
 80174f8:	2a312b1e 28552944 26772767 24972587     .+1*D)U(g'w&.%.$
 8017508:	22b423a5 20cf21c2 1ee81fdc 1d001df4     .#.".!. ........
 8017518:	1b151c0b 19291a1f 173c1833 154d1644     ......).3.<.D.M.
 8017528:	135c1455 116b1264 0f791072 0d850e7f     U.\.d.k.r.y.....
 8017538:	0b910c8b 099c0a97 07a708a1 05b106ac     ................
 8017548:	03ba04b6 01c402bf ffcd00c9 fdd7fed2     ................
 8017558:	fbe0fcdb f9eafae5 f7f4f8ef f5fff6f9     ................
 8017568:	f40af504 f216f310 f023f11c ee30ef29     ..........#.).0.
 8017578:	ec3fed38 ea4feb47 e861e958 e673e76a     8.?.G.O.X.a.j.s.
 8017588:	e488e57d e29ee392 e0b5e1a9 decfdfc2     }...............
 8017598:	dceadddc db08dbf9 d928da18 d74ad839     ..........(.9.J.
 80175a8:	d56fd65c d396d482 d1c0d2ab cfedd0d6     \.o.............
 80175b8:	ce1dcf04 cc4fcd36 ca85cb6a c8bec9a1     ....6.O.j.......
 80175c8:	c6fac7dc c53ac61a c37dc45b c1c4c2a0     ......:.[.}.....
 80175d8:	c00fc0e9 be5ebf36 bcb0bd86 bb07bbdb     ....6.^.........
 80175e8:	b961ba33 b7c0b890 b623b6f1 b48bb557     3.a.......#.W...
 80175f8:	b2f8b3c1 b168b22f afdeb0a3 ae59af1b     ..../.h.......Y.
 8017608:	acd8ad98 ab5cac1a a9e6aaa1 a875a92d     ......\.....-.u.
 8017618:	a709a7be a5a2a655 a441a4f1 a2e5a392     ....U.....A.....
 8017628:	a18fa239 a03fa0e6 9ef49f99 9daf9e51     9.....?.....Q...
 8017638:	9c709d0f 9b379bd3 9a059a9d 98d8996e     ..p...7.....n...
 8017648:	97b29844 96919721 95789604 946494ed     D...!.....x...d.
 8017658:	935793dd 925192d3 915191d0 905890d4     ..W...Q...Q...X.
 8017668:	8f668fde 8e7a8eef 8d968e07 8cb88d26     ..f...z.....&...
 8017678:	8be18c4b 8b118b78 8a488aac 898689e6     K...x.....H.....
 8017688:	88cc8928 88188871 876c87c1 86c78719     (...q.....l.....
 8017698:	86298677 859385dd 8504854b 847d84bf     w.).....K.....}.
 80176a8:	83fc843c 838483bf 8313834a 82a982dd     <.......J.......
 80176b8:	82478277 81ed8219 819a81c2 814e8173     w.G.........s.N.
 80176c8:	810b812c 80cf80ec 809a80b4 806e8083     ,.............n.
 80176d8:	8049805a 802b8039 80168020 8008800e     Z.I.9.+. .......
 80176e8:	80028004 80038002 800d8007 801e8014     ................
 80176f8:	80368029 80578045 807f806a 80ae8096     ).6.E.W.j.......
 8017708:	80e680c9 81258104 816c8147 81ba8192     ......%.G.l.....
 8017718:	821081e4 826d823e 82d2829f 833f8308     ....>.m.......?.
 8017728:	83b38378 842f83f0 84b2846f 853c84f6     x...../.o.....<.
 8017738:	85ce8584 8668861a 870886b7 87b0875b     ......h.....[...
 8017748:	885f8807 891588b9 89d38973 8a988a34     .._.....s...4...
 8017758:	8b638afd 8c368bcc 8d108ca2 8df08d7f     ..c...6.........
 8017768:	8ed88e63 8fc68f4e 90bb9040 91b79138     c...N...@...8...
 8017778:	92b99237 93c2933d 94d29449 95e8955c     7...=...I...\...
 8017788:	97049675 98279795 995098ba 9a7f99e6     u.....'...P.....
 8017798:	9bb49b19 9cef9c51 9e309d8f 9f789ed3     ....Q.....0...x.
 80177a8:	a0c4a01d a217a16d a370a2c3 a4cda41e     ....m.....p.....
 80177b8:	a631a57e a79aa6e5 a908a850 aa7ba9c1     ~.1.....P.....{.
 80177c8:	abf4ab37 ad71acb2 aef4ae32 b07bafb7     7.....q.2.....{.
 80177d8:	b208b141 b398b2cf b52eb463 b6c8b5fa     A.......c.......
 80177e8:	b867b797 ba09b937 bbb0badc bd5bbc85     ..g.7.........[.
 80177f8:	bf0abe32 c0bdbfe3 c274c198 c42fc351     2.........t.Q./.
 8017808:	c5edc50d c7afc6cd c974c891 cb3cca57     ..........t.W.<.
 8017818:	cd08cc21 ced6cdee d0a8cfbe d27cd191     !.............|.
 8017828:	d453d367 d62dd540 d809d71b d9e8d8f8     g.S.@.-.........
 8017838:	dbc9dad8 ddacdcba df91de9e e178e085     ..............x.
 8017848:	e361e26d e54ce457 e738e642 e926e82f     m.a.W.L.B.8./.&.
 8017858:	eb16ea1e ed06ec0e eef8edff f0eaeff1     ................
 8017868:	f2def1e4 f4d2f3d8 f6c7f5cd f8bdf7c2     ................
 8017878:	fab3f9b8 fca9fbae fea0fda4 0096ff9b     ................
 8017888:	028d0192 04830388 0679057e 086f0774     ........~.y.t.o.
 8017898:	0a64096a 0c590b5f 0e4d0d53 10400f47     j.d._.Y.S.M.G.@.
 80178a8:	12321139 1423132b 1613151b 1801170a     9.2.+.#.........
 80178b8:	19ee18f8 1bda1ae4 1dc31ccf 1fab1eb7     ................
 80178c8:	2191209e 23752283 25572466 27372647     . .!."u#f$W%G&7'
 80178d8:	29142826 2aef2a02 2cc72bdb 2e9c2db2     &(.).*.*.+.,.-..
 80178e8:	306f2f86 323f3157 340c3326 35d534f1     ./o0W1?2&3.4.4.5
 80178f8:	379c36b9 395f387d 3b1e3a3f 3cda3bfd     .6.7}8_9?:.;.;.<
 8017908:	3e923db7 40473f6d 41f84120 43a442cf     .=.>m?G@ A.A.B.C
 8017918:	454d4479 46f24620 489247c2 4a2e4960     yDME F.F.G.H`I.J
 8017928:	4bc54afa 4d584c8f 4ee64e1f 506f4fab     .J.K.LXM.N.N.OoP
 8017938:	51f45132 537352b4 54ee5431 566355a9     2Q.Q.RsS1T.T.UcV
 8017948:	57d4571c 593e588a 5aa459f2 5c045b55     .W.W.X>Y.Y.ZU[.\
 8017958:	5d5f5cb2 5eb45e0a 60035f5c 614c60a8     .\_].^.^\_.`.`La
 8017968:	629061ef 63ce6330 6505646a 6637659f     .a.b0c.cjd.e.e7f
 8017978:	676266cd 688867f6 69a66918 6abf6a33     .fbg.g.h.i.i3j.j
 8017988:	6bd16b49 6cdd6c58 6de26d60 6ee06e62     Ik.kXl.l`m.mbn.n
 8017998:	6fd86f5d 70c97051 71b3713f 72967226     ]o.oQp.p?q.q&r.r
 80179a8:	73737305 744873de 751774b0 75de757b     .sss.sHt.t.u{u.u
 80179b8:	769f763f 775876fc 780a77b2 78b57860     ?v.v.vXw.w.x`x.x
 80179c8:	79587907 79f479a7 7a897a40 7b177ad1     .yXy.y.y@z.z.z.{
 80179d8:	7b9d7b5b 7c1b7bdd 7c927c58 7d027ccb     [{.{.{.|X|.|.|.}
 80179e8:	7d6a7d37 7dcb7d9b 7e247df8 7e757e4d     7}j}.}.}.}$~M~u~
 80179f8:	7ebf7e9b 7f017ee1 7f3b7f1f 7f6e7f56     .~.~.~....;.V.n.
 8017a08:	7f997f85 7fbd7fac 7fd87fcc 7fed7fe3     ................
 8017a18:	7ff97ff4 7ffd7ffc 7ffa7ffd 7ff07ff6     ................
 8017a28:	7fdd7fe7 7fc37fd1 7fa17fb3 7f777f8d     ..............w.
 8017a38:	7f467f60 7f0d7f2b 7ecd7eee 7e847ea9     `.F.+....~.~.~.~
 8017a48:	7e357e5d 7ddd7e0a 7d7e7daf 7d177d4c     ]~5~.~.}.}~}L}.}
 8017a58:	7ca97ce1 7c347c6f 7bb77bf6 7b327b75     .|.|o|4|.{.{u{2{
 8017a68:	7aa67aed 7a137a5d 797879c6 78d67928     .z.z]z.z.yxy(y.x
 8017a78:	782d7882 777c77d5 76c47721 76057666     .x-x.w|w!w.vfv.v
 8017a88:	753f75a3 747274da 739e7409 72c37331     .u?u.trt.t.s1s.r
 8017a98:	71e17253 70f8716d 70097081 6f126f8e     Sr.qmq.p.p.p.o.o
 8017aa8:	6e156e94 6d116d94 6c076c8d 6af66b7f     .n.n.m.m.l.l.k.j
 8017ab8:	69df6a6b 68c16951 679d6830 66736709     kj.iQi.h0h.g.gsf
 8017ac8:	654365dc 640d64a8 62d0636f 618e6230     .eCe.d.doc.b0b.a
 8017ad8:	604560ea 5ef75f9f 5da35e4e 5c4a5cf7     .`E`._.^N^.].\J\
 8017ae8:	5aeb5b9b 59865a39 581d58d2 56ad5766     .[.Z9Z.Y.X.XfW.V
 8017af8:	553955f4 53bf547d 52415301 50bd5180     .U9U}T.S.SAR.Q.P
 8017b08:	4f354ffa 4da84e6f 4c164cdf 4a7f4b4b     .O5OoN.M.L.LKK.J
 8017b18:	48e449b2 47454815 45a14674 43fa44ce     .I.H.HEGtF.E.D.C
 8017b28:	424e4324 409e4176 3eea3fc4 3d323e0f     $CNBvA.@.?.>.>2=
 8017b38:	3b773c55 39b83a98 37f638d8 36303714     U<w;.:.9.8.7.706
 8017b48:	3467354c 329b3382 30cc31b4 2efa2fe3     L5g4.3.2.1.0./..
 8017b58:	2d252e10 2b4d2c3a 29732a61 27962885     ..%-:,M+a*s).(.'
 8017b68:	25b726a7 23d624c7 21f222e4 200d2100     .&.%.$.#.".!.!. 
 8017b78:	1e251f19 1c3c1d31 1a511b46 1864195a     ..%.1.<.F.Q.Z.d.
 8017b88:	1676176d 1486157e 1296138e 10a4119d     m.v.~...........
 8017b98:	0eb10faa 0cbd0db7 0ac90bc3 08d409ce     ................
 8017ba8:	06de07d9 04e805e3 02f103ed 00fb01f6     ................
 8017bb8:	ff040000 fd0efe09 fb17fc12 f921fa1c     ..............!.
 8017bc8:	f72bf826 f536f631 f342f43c f14ef248     &.+.1.6.<.B.H.N.
 8017bd8:	ef5bf055 ed69ee62 eb79ec71 e989ea81     U.[.b.i.q.y.....
 8017be8:	e79be892 e5aee6a5 e3c3e4b9 e1dae2ce     ................
 8017bf8:	dff2e0e6 de0ddeff dc29dd1b da48db38     ..........).8.H.
 8017c08:	d869d958 d68cd77a d4b2d59e d2dad3c5     X.i.z...........
 8017c18:	d105d1ef cf33d01c cd64ce4b cb98cc7d     ......3.K.d.}...
 8017c28:	c9cfcab3 c809c8eb c647c727 c488c567     ........'.G.g...
 8017c38:	c2cdc3aa c115c1f0 bf61c03b bdb1be89     ........;.a.....
 8017c48:	bc05bcdb ba5ebb31 b8bab98b b71bb7ea     ....1.^.........
 8017c58:	b580b64d b3e9b4b4 b257b320 b0cab190     M....... .W.....
 8017c68:	af42b005 adbeae7f ac40acfe aac6ab82     ..B.......@.....
 8017c78:	a952aa0b a7e2a899 a679a72d a514a5c6     ..R.....-.y.....
 8017c88:	a3b5a464 a25ca308 a108a1b1 9fbaa060     d.....\.....`...
 8017c98:	9e719f15 9d2f9dcf 9bf29c90 9abc9b57     ..q.../.....W...
 8017ca8:	998c9a23 986298f6 973e97cf 962096ae     #.....b...>... .
 8017cb8:	95099594 93f89480 92ee9372 91ea926b     ........r...k...
 8017cc8:	90ed916b 8ff69071 8f078f7e 8e1e8e92     k...q...~.......
 8017cd8:	8d3c8dac 8c618cce 8b8d8bf6 8ac08b25     ..<...a.....%...
 8017ce8:	89fa8a5c 893b8999 888388de 87d2882a     \.....;.....*...
 8017cf8:	8729877d 868786d7 85ec8639 855985a2     }.).....9.....Y.
 8017d08:	84cd8512 8448848a 83cb8409 83568390     ......H.......V.
 8017d18:	82e8831e 828182b3 82228250 81ca81f5     ........P.".....
 8017d28:	817b81a2 81328156 80f28111 80b980d4     ..{.V.2.........
 8017d38:	8088809f 805e8072 803c804c 8022802e     ....r.^.L.<...".
 8017d48:	800f8018 80058009 80028002 80068003     ................
 8017d58:	8012800b 8027801c 80428033 80668053     ......'.3.B.S.f.
 8017d68:	8091807a 80c480a9 80fe80e0 8140811e     z.............@.
 8017d78:	818a8164 81db81b2 82348207 82958264     d.........4.d...
 8017d88:	82fd82c8 836d8334 83e483a7 84628422     ....4.m.....".b.
 8017d98:	84e884a4 8576852e 860b85bf 86a78658     ......v.....X...
 8017da8:	874a86f8 87f5879f 88a7884d 89608903     ..J.....M.....`.
 8017db8:	8a2189c0 8ae88a84 8bb78b4f 8c8c8c21     ..!.....O...!...
 8017dc8:	8d698cfa 8e4c8dd9 8f368ec0 90278fae     ..i...L...6...'.
 8017dd8:	911f90a2 921d919d 9322929f 942e93a7     ..........".....
 8017de8:	954094b6 965995cc 977796e7 989d9809     ..@...Y...w.....
 8017df8:	99c89932 9afa9a60 9c319b95 9d6f9ccf     2...`.....1...o.
 8017e08:	9eb39e10 9ffc9f57 a14ba0a3 a2a0a1f5     ....W.....K.....
 8017e18:	a3fba34d a55ba4aa a6c1a60d a82ba775     M.....[.....u.+.
 8017e28:	a99ca8e3 ab11aa56 ac8cabce ae0bad4b     ....V.......K...
 8017e38:	af90aecd b119b054 b2a7b1e0 b43ab370     ....T.......p.:.
 8017e48:	b5d1b505 b76db69f b90db83d bab2b9df     ......m.=.......
 8017e58:	bc5bbb86 be07bd30 bfb8bedf c16dc092     ..[.0.........m.
 8017e68:	c325c248 c4e1c402 c6a0c5c0 c863c782     H.%...........c.
 8017e78:	ca2ac946 cbf3cb0e cdc0ccd9 cf90cea8     F.*.............
 8017e88:	d163d079 d338d24d d510d424 d6ebd5fd     y.c.M.8.$.......
 8017e98:	d8c8d7d9 daa8d9b8 dc8adb99 de6edd7c     ............|.n.
 8017ea8:	e054df61 e23ce148 e425e330 e611e51b     a.T.H.<.0.%.....
 8017eb8:	e7fee707 e9ece8f5 ebdceae4 edcdecd4     ................
 8017ec8:	efbfeec6 f1b2f0b8 f3a6f2ac f59bf4a0     ................
 8017ed8:	f790f695 f986f88b fb7cfa81 fd72fc77     ..........|.w.r.
 8017ee8:	ff69fe6d 015f0064 0356025b 054c0451     m.i.d._.[.V.Q.L.
 8017ef8:	07420647 0938083d 0b2d0a32 0d210c27     G.B.=.8.2.-.'.!.
 8017f08:	0f150e1b 1107100e 12f91200 14e913f1     ................
 8017f18:	16d915e1 18c717d0 1ab319bd 1c9e1ba8     ................
 8017f28:	1e871d92 206e1f7a 22532161 24362345     ....z.n a!S"E#6$
 8017f38:	26172527 27f62707 29d228e4 2bac2abf     '%.&.'.'.(.).*.+
 8017f48:	2d832c98 2f572e6e 31293041 32f73211     .,.-n.W/A0)1.2.2
 8017f58:	34c333de 368b35a8 3850376e 3a123932     .3.4.5.6n7P829.:
 8017f68:	3bd03af2 3d8b3cae 3f423e67 40f5401c     .:.;.<.=g>B?.@.@
 8017f78:	42a441cd 444f437a 45f64523 479846c8     .A.BzCOD#E.E.F.G
 8017f88:	49374868 4ad14a05 4c674b9c 4df74d30     hH7I.J.J.KgL0M.M
 8017f98:	4f844ebe 510b5048 528e51cd 540b534d     .N.OHP.Q.Q.RMS.T
 8017fa8:	558454c8 56f7563e 586557af 59ce591a     .T.U>V.V.WeX.Y.Y
 8017fb8:	5b325a81 5c8f5be1 5de85d3c 5f3b5e92     .Z2[.[.\<].].^;_
 8017fc8:	60875fe2 61cf612c 63106270 644b63ae     ._.`,a.apb.c.cKd
 8017fd8:	658064e6 66af6619 67d86745 68fb686a     .d.e.f.fEg.gjh.h
 8017fe8:	6a17698a 6b2d6aa3 6c3d6bb6 6d466cc2     .i.j.j-k.k=l.lFm
 8017ff8:	6e486dc8 6f446ec7 70396fbf 712770b1     .mHn.nDo.o9p.p'q
 8018008:	720f719c 72ef7280 73c9735d 749c7433     .q.r.r.r]s.s3t.t
 8018018:	75677502 762c75cb 76ea768c 77a07746     .ugu.u,v.v.vFw.w
 8018028:	784f77f8 78f778a4 79977948 7a3179e5     .wOx.x.xHy.y.y1z
 8018038:	7ac37a7b 7b4d7b09 7bd07b90 7c4c7c0f     {z.z.{M{.{.{.|L|
 8018048:	7cc07c87 7d2d7cf7 7d927d60 7def7dc1     .|.|.|-}`}.}.}.}
 8018058:	7e457e1b 7e937e6d 7eda7eb8 7f197efb     .~E~m~.~.~.~.~..
 8018068:	7f517f36 7f807f69 7fa87f95 7fc97fba     6.Q.i...........
 8018078:	7fe17fd6 7ff27feb 7ffc7ff8 7ffd7ffd     ................
 8018088:	7ff77ffb 7fe97ff1 7fd47fdf 7fb67fc6     ................
 8018098:	7f917fa5 7f657f7c 7f307f4b 7ef47f13     ....|.e.K.0....~
 80180a8:	7eb17ed3 7e657e8c 7e127e3d 7db87de6     .~.~.~e~=~.~.}.}
 80180b8:	7d567d88 7cec7d22 7c7b7cb5 7c037c40     .}V}"}.|.|{|@|.|
 80180c8:	7b827bc3 7afb7b40 7a6c7ab4 79d67a22     .{.{@{.z.zlz"z.y
 80180d8:	79387988 789378e6 77e7783e 7733778e     .y8y.x.x>x.w.w3w
 80180e8:	767976d7 75b77619 74ee7553 741e7487     .vyv.v.uSu.t.t.t
 80180f8:	734773b4 726972d9 718571f8 70997110     .sGs.rir.q.q.q.p
 8018108:	6fa77021 6eae6f2b 6dae6e2f 6ca86d2c     !p.o+o.n/n.m,m.l
 8018118:	6b9b6c22 6a876b12 696e69fb 684d68de     "l.k.k.j.ini.hMh
 8018128:	672767bb 65fa6691 64c86562 638f642c     .g'g.f.ebe.d,d.c
 8018138:	625062f0 610b61ae 5fc06066 5e705f19     .bPb.a.af`._._p^
 8018148:	5d1a5dc6 5bbe5c6d 5a5d5b0e 58f659aa     .].]m\.[.[]Z.Y.X
 8018158:	578a5841 561956d2 54a3555e 532753e5     AX.W.V.V^U.T.S'S
 8018168:	51a65267 502150e4 4e974f5c 4d074dd0     gR.Q.P!P\O.N.M.M
 8018178:	4b744c3e 49dc4aa8 483f490e 469e476f     >LtK.J.I.I?HoG.F
 8018188:	44f845cc 434f4424 41a14279 3ff040c9     .E.D$DOCyB.A.@.?
 8018198:	3e3b3f16 3c823d5f 3ac53ba4 390539e5     .?;>_=.<.;.:.9.9
 80181a8:	37413823 357a365e 33b03495 31e232c9     #8A7^6z5.4.3.2.1
 80181b8:	301230fb 2e3f2f29 2c692d54 2a902b7d     .0.0)/?.T-i,}+.*
 80181c8:	28b529a3 26d727c6 24f725e7 23152406     .).(.'.&.%.$.$.#
 80181d8:	21302223 1f4a203d 1d611e56 1b771c6d     #"0!= J.V.a.m.w.
 80181e8:	198c1a82 179e1895 15b016a7 13c014b8     ................
 80181f8:	11cf12c7 0fdc10d6 0de90ee3 0bf50cef     ................
 8018208:	0a000afb 080b0906 06150710 041f051a     ................
 8018218:	02280324 0032012d fe3bff36 fc45fd40     $.(.-.2.6.;.@.E.
 8018228:	fa4efb49 f858f953 f663f75e f46ef568     I.N.S.X.^.c.h.n.
 8018238:	f27af374 f086f180 ee94ef8d eca3ed9b     t.z.............
 8018248:	eab2ebaa e8c3e9bb e6d6e7cc e4eae5e0     ................
 8018258:	e2ffe3f4 e117e20b df30e023 dd4bde3d     ........#.0.=.K.
 8018268:	db68dc5a d988da78 d7aad898 d5ced6bb     Z.h.x...........
 8018278:	d3f5d4e1 d21ed309 d04ad134 ce79cf61     ........4.J.a.y.
 8018288:	ccabcd92 cae0cbc6 c919c9fc c754c836     ............6.T.
 8018298:	c593c674 c3d6c4b4 c21cc2f9 c066c141     t...........A.f.
 80182a8:	beb4bf8d bd06bddc bb5bbc30 b9b5ba88     ........0.[.....
 80182b8:	b813b8e4 b676b744 b4ddb5a9 b348b412     ....D.v.......H.
 80182c8:	b1b8b27f b02db0f2 aea6af69 ad25ade5     ......-.i.....%.
 80182d8:	aba8ac66 aa30aaec a8bea977 a751a807     f.....0.w.....Q.
 80182e8:	a5e9a69d a487a537 a32aa3d8 a1d3a27e     ....7.....*.~...
 80182f8:	a081a129 9f369fdb 9df09e92 9cb09d4f     ).....6.....O...
 8018308:	9b769c12 9a429adb 991499aa 97ec987f     ..v...B.........
 8018318:	96cb975b 95b0963c 949b9524 938d9413     [...<...$.......
 8018328:	92859308 91849204 90899106 8f96900f     ................
 8018338:	8ea98f1e 8dc38e35 8ce48d52 8c0b8c77     ....5...R...w...
 8018348:	8b3a8ba2 8a708ad4 89ac8a0d 88f0894e     ..:...p.....N...
 8018358:	883c8895 878e87e4 86e7873a 86488697     ..<.....:.....H.
 8018368:	85b085fb 85208567 849784db 84158455     ....g. .....U...
 8018378:	839b83d7 83298361 82be82f2 825a828b     ....a.).......Z.
 8018388:	81fe822b 81aa81d3 815d8182 81188139     +.........].9...
 8018398:	80da80f8 80a480be 8076808c 80508062     ..........v.b.P.
 80183a8:	8031803f 801a8024 800a8011 80028005     ?.1.$...........
 80183b8:	80028002 800a8005 801a8011 80318024     ............$.1.
 80183c8:	8050803f 80768062 80a4808c 80da80be     ?.P.b.v.........
 80183d8:	811880f8 815d8139 81aa8182 81fe81d3     ....9.].........
 80183e8:	825a822b 82be828b 832982f2 839b8361     +.Z.......).a...
 80183f8:	841583d7 84978455 852084db 85b08567     ....U..... .g...
 8018408:	864885fb 86e78697 878e873a 883c87e4     ..H.....:.....<.
 8018418:	88f08895 89ac894e 8a708a0d 8b3a8ad4     ....N.....p...:.
 8018428:	8c0b8ba2 8ce48c77 8dc38d52 8ea98e35     ....w...R...5...
 8018438:	8f968f1e 9089900f 91849106 92859204     ................
 8018448:	938d9308 949b9413 95b09524 96cb963c     ........$...<...
 8018458:	97ec975b 9914987f 9a4299aa 9b769adb     [.........B...v.
 8018468:	9cb09c12 9df09d4f 9f369e92 a0819fdb     ....O.....6.....
 8018478:	a1d3a129 a32aa27e a487a3d8 a5e9a537     )...~.*.....7...
 8018488:	a751a69d a8bea807 aa30a977 aba8aaec     ..Q.....w.0.....
 8018498:	ad25ac66 aea6ade5 b02daf69 b1b8b0f2     f.%.....i.-.....
 80184a8:	b348b27f b4ddb412 b676b5a9 b813b744     ..H.......v.D...
 80184b8:	b9b5b8e4 bb5bba88 bd06bc30 beb4bddc     ......[.0.......
 80184c8:	c066bf8d c21cc141 c3d6c2f9 c593c4b4     ..f.A...........
 80184d8:	c754c674 c919c836 cae0c9fc ccabcbc6     t.T.6...........
 80184e8:	ce79cd92 d04acf61 d21ed134 d3f5d309     ..y.a.J.4.......
 80184f8:	d5ced4e1 d7aad6bb d988d898 db68da78     ............x.h.
 8018508:	dd4bdc5a df30de3d e117e023 e2ffe20b     Z.K.=.0.#.......
 8018518:	e4eae3f4 e6d6e5e0 e8c3e7cc eab2e9bb     ................
 8018528:	eca3ebaa ee94ed9b f086ef8d f27af180     ..............z.
 8018538:	f46ef374 f663f568 f858f75e fa4ef953     t.n.h.c.^.X.S.N.
 8018548:	fc45fb49 fe3bfd40 0032ff36 0228012d     I.E.@.;.6.2.-.(.
 8018558:	041f0324 0615051a 080b0710 0a000906     $...............
 8018568:	0bf50afb 0de90cef 0fdc0ee3 11cf10d6     ................
 8018578:	13c012c7 15b014b8 179e16a7 198c1895     ................
 8018588:	1b771a82 1d611c6d 1f4a1e56 2130203d     ..w.m.a.V.J.= 0!
 8018598:	23152223 24f72406 26d725e7 28b527c6     #".#.$.$.%.&.'.(
 80185a8:	2a9029a3 2c692b7d 2e3f2d54 30122f29     .).*}+i,T-?.)/.0
 80185b8:	31e230fb 33b032c9 357a3495 3741365e     .0.1.2.3.4z5^6A7
 80185c8:	39053823 3ac539e5 3c823ba4 3e3b3d5f     #8.9.9.:.;.<_=;>
 80185d8:	3ff03f16 41a140c9 434f4279 44f84424     .?.?.@.AyBOC$D.D
 80185e8:	469e45cc 483f476f 49dc490e 4b744aa8     .E.FoG?H.I.I.JtK
 80185f8:	4d074c3e 4e974dd0 50214f5c 51a650e4     >L.M.M.N\O!P.P.Q
 8018608:	53275267 54a353e5 5619555e 578a56d2     gR'S.S.T^U.V.V.W
 8018618:	58f65841 5a5d59aa 5bbe5b0e 5d1a5c6d     AX.X.Y]Z.[.[m\.]
 8018628:	5e705dc6 5fc05f19 610b6066 625061ae     .]p^._._f`.a.aPb
 8018638:	638f62f0 64c8642c 65fa6562 67276691     .b.c,d.dbe.e.f'g
 8018648:	684d67bb 696e68de 6a8769fb 6b9b6b12     .gMh.hni.i.j.k.k
 8018658:	6ca86c22 6dae6d2c 6eae6e2f 6fa76f2b     "l.l,m.m/n.n+o.o
 8018668:	70997021 71857110 726971f8 734772d9     !p.p.q.q.qir.rGs
 8018678:	741e73b4 74ee7487 75b77553 76797619     .s.t.t.tSu.u.vyv
 8018688:	773376d7 77e7778e 7893783e 793878e6     .v3w.w.w>x.x.x8y
 8018698:	79d67988 7a6c7a22 7afb7ab4 7b827b40     .y.y"zlz.z.z@{.{
 80186a8:	7c037bc3 7c7b7c40 7cec7cb5 7d567d22     .{.|@|{|.|.|"}V}
 80186b8:	7db87d88 7e127de6 7e657e3d 7eb17e8c     .}.}.}.~=~e~.~.~
 80186c8:	7ef47ed3 7f307f13 7f657f4b 7f917f7c     .~.~..0.K.e.|...
 80186d8:	7fb67fa5 7fd47fc6 7fe97fdf 7ff77ff1     ................
 80186e8:	7ffd7ffb 7ffc7ffd 7ff27ff8 7fe17feb     ................
 80186f8:	7fc97fd6 7fa87fba 7f807f95 7f517f69     ............i.Q.
 8018708:	7f197f36 7eda7efb 7e937eb8 7e457e6d     6....~.~.~.~m~E~
 8018718:	7def7e1b 7d927dc1 7d2d7d60 7cc07cf7     .~.}.}.}`}-}.|.|
 8018728:	7c4c7c87 7bd07c0f 7b4d7b90 7ac37b09     .|L|.|.{.{M{.{.z
 8018738:	7a317a7b 799779e5 78f77948 784f78a4     {z1z.y.yHy.x.xOx
 8018748:	77a077f8 76ea7746 762c768c 756775cb     .w.wFw.v.v,v.ugu
 8018758:	749c7502 73c97433 72ef735d 720f7280     .u.t3t.s]s.r.r.r
 8018768:	7127719c 703970b1 6f446fbf 6e486ec7     .q'q.p9p.oDo.nHn
 8018778:	6d466dc8 6c3d6cc2 6b2d6bb6 6a176aa3     .mFm.l=l.k-k.j.j
 8018788:	68fb698a 67d8686a 66af6745 65806619     .i.hjh.gEg.f.f.e
 8018798:	644b64e6 631063ae 61cf6270 6087612c     .dKd.c.cpb.a,a.`
 80187a8:	5f3b5fe2 5de85e92 5c8f5d3c 5b325be1     ._;_.^.]<].\.[2[
 80187b8:	59ce5a81 5865591a 56f757af 5584563e     .Z.Y.YeX.W.V>V.U
 80187c8:	540b54c8 528e534d 510b51cd 4f845048     .T.TMS.R.Q.QHP.O
 80187d8:	4df74ebe 4c674d30 4ad14b9c 49374a05     .N.M0MgL.K.J.J7I
 80187e8:	47984868 45f646c8 444f4523 42a4437a     hH.G.F.E#EODzC.B
 80187f8:	40f541cd 3f42401c 3d8b3e67 3bd03cae     .A.@.@B?g>.=.<.;
 8018808:	3a123af2 38503932 368b376e 34c335a8     .:.:29P8n7.6.5.4
 8018818:	32f733de 31293211 2f573041 2d832e6e     .3.2.2)1A0W/n..-
 8018828:	2bac2c98 29d22abf 27f628e4 26172707     .,.+.*.).(.'.'.&
 8018838:	24362527 22532345 206e2161 1e871f7a     '%6$E#S"a!n z...
 8018848:	1c9e1d92 1ab31ba8 18c719bd 16d917d0     ................
 8018858:	14e915e1 12f913f1 11071200 0f15100e     ................
 8018868:	0d210e1b 0b2d0c27 09380a32 0742083d     ..!.'.-.2.8.=.B.
 8018878:	054c0647 03560451 015f025b ff690064     G.L.Q.V.[._.d.i.
 8018888:	fd72fe6d fb7cfc77 f986fa81 f790f88b     m.r.w.|.........
 8018898:	f59bf695 f3a6f4a0 f1b2f2ac efbff0b8     ................
 80188a8:	edcdeec6 ebdcecd4 e9eceae4 e7fee8f5     ................
 80188b8:	e611e707 e425e51b e23ce330 e054e148     ......%.0.<.H.T.
 80188c8:	de6edf61 dc8add7c daa8db99 d8c8d9b8     a.n.|...........
 80188d8:	d6ebd7d9 d510d5fd d338d424 d163d24d     ........$.8.M.c.
 80188e8:	cf90d079 cdc0cea8 cbf3ccd9 ca2acb0e     y.............*.
 80188f8:	c863c946 c6a0c782 c4e1c5c0 c325c402     F.c...........%.
 8018908:	c16dc248 bfb8c092 be07bedf bc5bbd30     H.m.........0.[.
 8018918:	bab2bb86 b90db9df b76db83d b5d1b69f     ........=.m.....
 8018928:	b43ab505 b2a7b370 b119b1e0 af90b054     ..:.p.......T...
 8018938:	ae0baecd ac8cad4b ab11abce a99caa56     ....K.......V...
 8018948:	a82ba8e3 a6c1a775 a55ba60d a3fba4aa     ..+.u.....[.....
 8018958:	a2a0a34d a14ba1f5 9ffca0a3 9eb39f57     M.....K.....W...
 8018968:	9d6f9e10 9c319ccf 9afa9b95 99c89a60     ..o...1.....`...
 8018978:	989d9932 97779809 965996e7 954095cc     2.....w...Y...@.
 8018988:	942e94b6 932293a7 921d929f 911f919d     ......".........
 8018998:	902790a2 8f368fae 8e4c8ec0 8d698dd9     ..'...6...L...i.
 80189a8:	8c8c8cfa 8bb78c21 8ae88b4f 8a218a84     ....!...O.....!.
 80189b8:	896089c0 88a78903 87f5884d 874a879f     ..`.....M.....J.
 80189c8:	86a786f8 860b8658 857685bf 84e8852e     ....X.....v.....
 80189d8:	846284a4 83e48422 836d83a7 82fd8334     ..b.".....m.4...
 80189e8:	829582c8 82348264 81db8207 818a81b2     ....d.4.........
 80189f8:	81408164 80fe811e 80c480e0 809180a9     d.@.............
 8018a08:	8066807a 80428053 80278033 8012801c     z.f.S.B.3.'.....
 8018a18:	8006800b 80028003 80058002 800f8009     ................
 8018a28:	80228018 803c802e 805e804c 80888072     .."...<.L.^.r...
 8018a38:	80b9809f 80f280d4 81328111 817b8156     ..........2.V.{.
 8018a48:	81ca81a2 822281f5 82818250 82e882b3     ......".P.......
 8018a58:	8356831e 83cb8390 84488409 84cd848a     ..V.......H.....
 8018a68:	85598512 85ec85a2 86878639 872986d7     ..Y.....9.....).
 8018a78:	87d2877d 8883882a 893b88de 89fa8999     }...*.....;.....
 8018a88:	8ac08a5c 8b8d8b25 8c618bf6 8d3c8cce     \...%.....a...<.
 8018a98:	8e1e8dac 8f078e92 8ff68f7e 90ed9071     ........~...q...
 8018aa8:	91ea916b 92ee926b 93f89372 95099480     k...k...r.......
 8018ab8:	96209594 973e96ae 986297cf 998c98f6     .. ...>...b.....
 8018ac8:	9abc9a23 9bf29b57 9d2f9c90 9e719dcf     #...W...../...q.
 8018ad8:	9fba9f15 a108a060 a25ca1b1 a3b5a308     ....`.....\.....
 8018ae8:	a514a464 a679a5c6 a7e2a72d a952a899     d.....y.-.....R.
 8018af8:	aac6aa0b ac40ab82 adbeacfe af42ae7f     ......@.......B.
 8018b08:	b0cab005 b257b190 b3e9b320 b580b4b4     ......W. .......
 8018b18:	b71bb64d b8bab7ea ba5eb98b bc05bb31     M.........^.1...
 8018b28:	bdb1bcdb bf61be89 c115c03b c2cdc1f0     ......a.;.......
 8018b38:	c488c3aa c647c567 c809c727 c9cfc8eb     ....g.G.'.......
 8018b48:	cb98cab3 cd64cc7d cf33ce4b d105d01c     ....}.d.K.3.....
 8018b58:	d2dad1ef d4b2d3c5 d68cd59e d869d77a     ............z.i.
 8018b68:	da48d958 dc29db38 de0ddd1b dff2deff     X.H.8.).........
 8018b78:	e1dae0e6 e3c3e2ce e5aee4b9 e79be6a5     ................
 8018b88:	e989e892 eb79ea81 ed69ec71 ef5bee62     ......y.q.i.b.[.
 8018b98:	f14ef055 f342f248 f536f43c f72bf631     U.N.H.B.<.6.1.+.
 8018ba8:	f921f826 fb17fa1c fd0efc12 ff04fe09     &.!.............
 8018bb8:	00707865 00000000                       exp.....

08018bc0 <ln2HI>:
 8018bc0:	fee00000 3fe62e42 fee00000 bfe62e42     ....B..?....B...

08018bd0 <ln2LO>:
 8018bd0:	35793c76 3dea39ef 35793c76 bdea39ef     v<y5.9.=v<y5.9..

08018be0 <halF>:
 8018be0:	00000000 3fe00000 00000000 bfe00000     .......?........
 8018bf0:	00000043                                C...
